ARM GAS  /var/folders/sg/pxk9dyzj7jz_x3889hx3b3dw0000gn/T//ccWLA4u0.s 			page 1


   1              		.cpu cortex-m4
   2              		.arch armv7e-m
   3              		.fpu fpv4-sp-d16
   4              		.eabi_attribute 27, 1
   5              		.eabi_attribute 28, 1
   6              		.eabi_attribute 20, 1
   7              		.eabi_attribute 21, 1
   8              		.eabi_attribute 23, 3
   9              		.eabi_attribute 24, 1
  10              		.eabi_attribute 25, 1
  11              		.eabi_attribute 26, 1
  12              		.eabi_attribute 30, 1
  13              		.eabi_attribute 34, 1
  14              		.eabi_attribute 18, 4
  15              		.file	"bmi088middleware.c"
  16              		.text
  17              	.Ltext0:
  18              		.cfi_sections	.debug_frame
  19              		.file 1 "control-base/devices/src/bmi088middleware.c"
  20              		.section	.text.BMI088_delay_ms,"ax",%progbits
  21              		.align	1
  22              		.global	BMI088_delay_ms
  23              		.syntax unified
  24              		.thumb
  25              		.thumb_func
  27              	BMI088_delay_ms:
  28              	.LVL0:
  29              	.LFB139:
   1:control-base/devices/src/bmi088middleware.c **** #include "bmi088middleware.h"
   2:control-base/devices/src/bmi088middleware.c **** #include "main.h"
   3:control-base/devices/src/bmi088middleware.c **** #include "cmsis_os.h"
   4:control-base/devices/src/bmi088middleware.c **** #include "bsp_delay.h"
   5:control-base/devices/src/bmi088middleware.c **** extern SPI_HandleTypeDef hspi1;
   6:control-base/devices/src/bmi088middleware.c **** 
   7:control-base/devices/src/bmi088middleware.c **** //void BMI088_GPIO_init(void)
   8:control-base/devices/src/bmi088middleware.c **** //{
   9:control-base/devices/src/bmi088middleware.c **** 
  10:control-base/devices/src/bmi088middleware.c **** //}
  11:control-base/devices/src/bmi088middleware.c **** 
  12:control-base/devices/src/bmi088middleware.c **** //void BMI088_com_init(void)
  13:control-base/devices/src/bmi088middleware.c **** //{
  14:control-base/devices/src/bmi088middleware.c **** 
  15:control-base/devices/src/bmi088middleware.c **** //}
  16:control-base/devices/src/bmi088middleware.c **** 
  17:control-base/devices/src/bmi088middleware.c **** void BMI088_delay_ms(uint16_t ms)
  18:control-base/devices/src/bmi088middleware.c **** {
  30              		.loc 1 18 1 view -0
  31              		.cfi_startproc
  32              		@ args = 0, pretend = 0, frame = 0
  33              		@ frame_needed = 0, uses_anonymous_args = 0
  34              		.loc 1 18 1 is_stmt 0 view .LVU1
  35 0000 08B5     		push	{r3, lr}
  36              	.LCFI0:
  37              		.cfi_def_cfa_offset 8
  38              		.cfi_offset 3, -8
  39              		.cfi_offset 14, -4
  19:control-base/devices/src/bmi088middleware.c ****     osDelay(ms);
ARM GAS  /var/folders/sg/pxk9dyzj7jz_x3889hx3b3dw0000gn/T//ccWLA4u0.s 			page 2


  40              		.loc 1 19 5 is_stmt 1 view .LVU2
  41 0002 FFF7FEFF 		bl	osDelay
  42              	.LVL1:
  20:control-base/devices/src/bmi088middleware.c **** }
  43              		.loc 1 20 1 is_stmt 0 view .LVU3
  44 0006 08BD     		pop	{r3, pc}
  45              		.cfi_endproc
  46              	.LFE139:
  48              		.section	.text.BMI088_delay_us,"ax",%progbits
  49              		.align	1
  50              		.global	BMI088_delay_us
  51              		.syntax unified
  52              		.thumb
  53              		.thumb_func
  55              	BMI088_delay_us:
  56              	.LVL2:
  57              	.LFB140:
  21:control-base/devices/src/bmi088middleware.c **** 
  22:control-base/devices/src/bmi088middleware.c **** void BMI088_delay_us(uint16_t us)
  23:control-base/devices/src/bmi088middleware.c **** {
  58              		.loc 1 23 1 is_stmt 1 view -0
  59              		.cfi_startproc
  60              		@ args = 0, pretend = 0, frame = 0
  61              		@ frame_needed = 0, uses_anonymous_args = 0
  62              		.loc 1 23 1 is_stmt 0 view .LVU5
  63 0000 08B5     		push	{r3, lr}
  64              	.LCFI1:
  65              		.cfi_def_cfa_offset 8
  66              		.cfi_offset 3, -8
  67              		.cfi_offset 14, -4
  24:control-base/devices/src/bmi088middleware.c ****     delay_us(us);
  68              		.loc 1 24 5 is_stmt 1 view .LVU6
  69 0002 FFF7FEFF 		bl	delay_us
  70              	.LVL3:
  25:control-base/devices/src/bmi088middleware.c **** }
  71              		.loc 1 25 1 is_stmt 0 view .LVU7
  72 0006 08BD     		pop	{r3, pc}
  73              		.cfi_endproc
  74              	.LFE140:
  76              		.section	.text.BMI088_ACCEL_NS_L,"ax",%progbits
  77              		.align	1
  78              		.global	BMI088_ACCEL_NS_L
  79              		.syntax unified
  80              		.thumb
  81              		.thumb_func
  83              	BMI088_ACCEL_NS_L:
  84              	.LFB141:
  26:control-base/devices/src/bmi088middleware.c **** 
  27:control-base/devices/src/bmi088middleware.c **** 
  28:control-base/devices/src/bmi088middleware.c **** 
  29:control-base/devices/src/bmi088middleware.c **** 
  30:control-base/devices/src/bmi088middleware.c **** void BMI088_ACCEL_NS_L(void)
  31:control-base/devices/src/bmi088middleware.c **** {
  85              		.loc 1 31 1 is_stmt 1 view -0
  86              		.cfi_startproc
  87              		@ args = 0, pretend = 0, frame = 0
  88              		@ frame_needed = 0, uses_anonymous_args = 0
ARM GAS  /var/folders/sg/pxk9dyzj7jz_x3889hx3b3dw0000gn/T//ccWLA4u0.s 			page 3


  89 0000 08B5     		push	{r3, lr}
  90              	.LCFI2:
  91              		.cfi_def_cfa_offset 8
  92              		.cfi_offset 3, -8
  93              		.cfi_offset 14, -4
  32:control-base/devices/src/bmi088middleware.c ****     HAL_GPIO_WritePin(CS1_ACCEL_GPIO_Port, CS1_ACCEL_Pin, GPIO_PIN_RESET);
  94              		.loc 1 32 5 view .LVU9
  95 0002 0022     		movs	r2, #0
  96 0004 1021     		movs	r1, #16
  97 0006 0248     		ldr	r0, .L7
  98 0008 FFF7FEFF 		bl	HAL_GPIO_WritePin
  99              	.LVL4:
  33:control-base/devices/src/bmi088middleware.c **** }
 100              		.loc 1 33 1 is_stmt 0 view .LVU10
 101 000c 08BD     		pop	{r3, pc}
 102              	.L8:
 103 000e 00BF     		.align	2
 104              	.L7:
 105 0010 00000240 		.word	1073872896
 106              		.cfi_endproc
 107              	.LFE141:
 109              		.section	.text.BMI088_ACCEL_NS_H,"ax",%progbits
 110              		.align	1
 111              		.global	BMI088_ACCEL_NS_H
 112              		.syntax unified
 113              		.thumb
 114              		.thumb_func
 116              	BMI088_ACCEL_NS_H:
 117              	.LFB142:
  34:control-base/devices/src/bmi088middleware.c **** void BMI088_ACCEL_NS_H(void)
  35:control-base/devices/src/bmi088middleware.c **** {
 118              		.loc 1 35 1 is_stmt 1 view -0
 119              		.cfi_startproc
 120              		@ args = 0, pretend = 0, frame = 0
 121              		@ frame_needed = 0, uses_anonymous_args = 0
 122 0000 08B5     		push	{r3, lr}
 123              	.LCFI3:
 124              		.cfi_def_cfa_offset 8
 125              		.cfi_offset 3, -8
 126              		.cfi_offset 14, -4
  36:control-base/devices/src/bmi088middleware.c ****     HAL_GPIO_WritePin(CS1_ACCEL_GPIO_Port, CS1_ACCEL_Pin, GPIO_PIN_SET);
 127              		.loc 1 36 5 view .LVU12
 128 0002 0122     		movs	r2, #1
 129 0004 1021     		movs	r1, #16
 130 0006 0248     		ldr	r0, .L11
 131 0008 FFF7FEFF 		bl	HAL_GPIO_WritePin
 132              	.LVL5:
  37:control-base/devices/src/bmi088middleware.c **** }
 133              		.loc 1 37 1 is_stmt 0 view .LVU13
 134 000c 08BD     		pop	{r3, pc}
 135              	.L12:
 136 000e 00BF     		.align	2
 137              	.L11:
 138 0010 00000240 		.word	1073872896
 139              		.cfi_endproc
 140              	.LFE142:
 142              		.section	.text.BMI088_GYRO_NS_L,"ax",%progbits
ARM GAS  /var/folders/sg/pxk9dyzj7jz_x3889hx3b3dw0000gn/T//ccWLA4u0.s 			page 4


 143              		.align	1
 144              		.global	BMI088_GYRO_NS_L
 145              		.syntax unified
 146              		.thumb
 147              		.thumb_func
 149              	BMI088_GYRO_NS_L:
 150              	.LFB143:
  38:control-base/devices/src/bmi088middleware.c **** 
  39:control-base/devices/src/bmi088middleware.c **** void BMI088_GYRO_NS_L(void)
  40:control-base/devices/src/bmi088middleware.c **** {
 151              		.loc 1 40 1 is_stmt 1 view -0
 152              		.cfi_startproc
 153              		@ args = 0, pretend = 0, frame = 0
 154              		@ frame_needed = 0, uses_anonymous_args = 0
 155 0000 08B5     		push	{r3, lr}
 156              	.LCFI4:
 157              		.cfi_def_cfa_offset 8
 158              		.cfi_offset 3, -8
 159              		.cfi_offset 14, -4
  41:control-base/devices/src/bmi088middleware.c ****     HAL_GPIO_WritePin(CS1_GYRO_GPIO_Port, CS1_GYRO_Pin, GPIO_PIN_RESET);
 160              		.loc 1 41 5 view .LVU15
 161 0002 0022     		movs	r2, #0
 162 0004 0121     		movs	r1, #1
 163 0006 0248     		ldr	r0, .L15
 164 0008 FFF7FEFF 		bl	HAL_GPIO_WritePin
 165              	.LVL6:
  42:control-base/devices/src/bmi088middleware.c **** }
 166              		.loc 1 42 1 is_stmt 0 view .LVU16
 167 000c 08BD     		pop	{r3, pc}
 168              	.L16:
 169 000e 00BF     		.align	2
 170              	.L15:
 171 0010 00040240 		.word	1073873920
 172              		.cfi_endproc
 173              	.LFE143:
 175              		.section	.text.BMI088_GYRO_NS_H,"ax",%progbits
 176              		.align	1
 177              		.global	BMI088_GYRO_NS_H
 178              		.syntax unified
 179              		.thumb
 180              		.thumb_func
 182              	BMI088_GYRO_NS_H:
 183              	.LFB144:
  43:control-base/devices/src/bmi088middleware.c **** void BMI088_GYRO_NS_H(void)
  44:control-base/devices/src/bmi088middleware.c **** {
 184              		.loc 1 44 1 is_stmt 1 view -0
 185              		.cfi_startproc
 186              		@ args = 0, pretend = 0, frame = 0
 187              		@ frame_needed = 0, uses_anonymous_args = 0
 188 0000 08B5     		push	{r3, lr}
 189              	.LCFI5:
 190              		.cfi_def_cfa_offset 8
 191              		.cfi_offset 3, -8
 192              		.cfi_offset 14, -4
  45:control-base/devices/src/bmi088middleware.c ****     HAL_GPIO_WritePin(CS1_GYRO_GPIO_Port, CS1_GYRO_Pin, GPIO_PIN_SET);
 193              		.loc 1 45 5 view .LVU18
 194 0002 0122     		movs	r2, #1
ARM GAS  /var/folders/sg/pxk9dyzj7jz_x3889hx3b3dw0000gn/T//ccWLA4u0.s 			page 5


 195 0004 1146     		mov	r1, r2
 196 0006 0248     		ldr	r0, .L19
 197 0008 FFF7FEFF 		bl	HAL_GPIO_WritePin
 198              	.LVL7:
  46:control-base/devices/src/bmi088middleware.c **** }
 199              		.loc 1 46 1 is_stmt 0 view .LVU19
 200 000c 08BD     		pop	{r3, pc}
 201              	.L20:
 202 000e 00BF     		.align	2
 203              	.L19:
 204 0010 00040240 		.word	1073873920
 205              		.cfi_endproc
 206              	.LFE144:
 208              		.section	.text.BMI088_read_write_byte,"ax",%progbits
 209              		.align	1
 210              		.global	BMI088_read_write_byte
 211              		.syntax unified
 212              		.thumb
 213              		.thumb_func
 215              	BMI088_read_write_byte:
 216              	.LVL8:
 217              	.LFB145:
  47:control-base/devices/src/bmi088middleware.c **** 
  48:control-base/devices/src/bmi088middleware.c **** uint8_t BMI088_read_write_byte(uint8_t txdata)
  49:control-base/devices/src/bmi088middleware.c **** {
 218              		.loc 1 49 1 is_stmt 1 view -0
 219              		.cfi_startproc
 220              		@ args = 0, pretend = 0, frame = 16
 221              		@ frame_needed = 0, uses_anonymous_args = 0
 222              		.loc 1 49 1 is_stmt 0 view .LVU21
 223 0000 00B5     		push	{lr}
 224              	.LCFI6:
 225              		.cfi_def_cfa_offset 4
 226              		.cfi_offset 14, -4
 227 0002 87B0     		sub	sp, sp, #28
 228              	.LCFI7:
 229              		.cfi_def_cfa_offset 32
 230 0004 8DF80F00 		strb	r0, [sp, #15]
  50:control-base/devices/src/bmi088middleware.c ****     uint8_t rx_data;
 231              		.loc 1 50 5 is_stmt 1 view .LVU22
  51:control-base/devices/src/bmi088middleware.c ****     HAL_SPI_TransmitReceive(&hspi1, &txdata, &rx_data, 1, 1000);
 232              		.loc 1 51 5 view .LVU23
 233 0008 4FF47A73 		mov	r3, #1000
 234 000c 0093     		str	r3, [sp]
 235 000e 0123     		movs	r3, #1
 236 0010 0DF11702 		add	r2, sp, #23
 237 0014 0DF10F01 		add	r1, sp, #15
 238 0018 0348     		ldr	r0, .L23
 239              	.LVL9:
 240              		.loc 1 51 5 is_stmt 0 view .LVU24
 241 001a FFF7FEFF 		bl	HAL_SPI_TransmitReceive
 242              	.LVL10:
  52:control-base/devices/src/bmi088middleware.c ****     return rx_data;
 243              		.loc 1 52 5 is_stmt 1 view .LVU25
  53:control-base/devices/src/bmi088middleware.c **** }
 244              		.loc 1 53 1 is_stmt 0 view .LVU26
 245 001e 9DF81700 		ldrb	r0, [sp, #23]	@ zero_extendqisi2
ARM GAS  /var/folders/sg/pxk9dyzj7jz_x3889hx3b3dw0000gn/T//ccWLA4u0.s 			page 6


 246 0022 07B0     		add	sp, sp, #28
 247              	.LCFI8:
 248              		.cfi_def_cfa_offset 4
 249              		@ sp needed
 250 0024 5DF804FB 		ldr	pc, [sp], #4
 251              	.L24:
 252              		.align	2
 253              	.L23:
 254 0028 00000000 		.word	hspi1
 255              		.cfi_endproc
 256              	.LFE145:
 258              		.text
 259              	.Letext0:
 260              		.file 2 "/Applications/ArmGNUToolchain/14.3.rel1/arm-none-eabi/arm-none-eabi/include/machine/_defa
 261              		.file 3 "/Applications/ArmGNUToolchain/14.3.rel1/arm-none-eabi/arm-none-eabi/include/sys/_stdint.h
 262              		.file 4 "control-base/typec-board-base/Drivers/CMSIS/Device/ST/STM32F4xx/Include/stm32f407xx.h"
 263              		.file 5 "control-base/typec-board-base/Drivers/STM32F4xx_HAL_Driver/Inc/stm32f4xx_hal_def.h"
 264              		.file 6 "control-base/typec-board-base/Drivers/STM32F4xx_HAL_Driver/Inc/stm32f4xx_hal_gpio.h"
 265              		.file 7 "control-base/typec-board-base/Drivers/STM32F4xx_HAL_Driver/Inc/stm32f4xx_hal_dma.h"
 266              		.file 8 "control-base/typec-board-base/Drivers/STM32F4xx_HAL_Driver/Inc/stm32f4xx_hal_spi.h"
 267              		.file 9 "control-base/typec-board-base/Middlewares/Third_Party/FreeRTOS/Source/CMSIS_RTOS/cmsis_os
 268              		.file 10 "control-base/bsp/inc/bsp_delay.h"
ARM GAS  /var/folders/sg/pxk9dyzj7jz_x3889hx3b3dw0000gn/T//ccWLA4u0.s 			page 7

