ARM GAS  /var/folders/sg/pxk9dyzj7jz_x3889hx3b3dw0000gn/T//cc7ooIjx.s 			page 1


   1              		.cpu cortex-m4
   2              		.arch armv7e-m
   3              		.fpu fpv4-sp-d16
   4              		.eabi_attribute 27, 1
   5              		.eabi_attribute 28, 1
   6              		.eabi_attribute 20, 1
   7              		.eabi_attribute 21, 1
   8              		.eabi_attribute 23, 3
   9              		.eabi_attribute 24, 1
  10              		.eabi_attribute 25, 1
  11              		.eabi_attribute 26, 1
  12              		.eabi_attribute 30, 1
  13              		.eabi_attribute 34, 1
  14              		.eabi_attribute 18, 4
  15              		.file	"i2c.c"
  16              		.text
  17              	.Ltext0:
  18              		.cfi_sections	.debug_frame
  19              		.file 1 "control-base/typec-board-base/Core/Src/i2c.c"
  20              		.section	.text.MX_I2C3_Init,"ax",%progbits
  21              		.align	1
  22              		.global	MX_I2C3_Init
  23              		.syntax unified
  24              		.thumb
  25              		.thumb_func
  27              	MX_I2C3_Init:
  28              	.LFB134:
   1:control-base/typec-board-base/Core/Src/i2c.c **** /* USER CODE BEGIN Header */
   2:control-base/typec-board-base/Core/Src/i2c.c **** /**
   3:control-base/typec-board-base/Core/Src/i2c.c ****   ******************************************************************************
   4:control-base/typec-board-base/Core/Src/i2c.c ****   * @file    i2c.c
   5:control-base/typec-board-base/Core/Src/i2c.c ****   * @brief   This file provides code for the configuration
   6:control-base/typec-board-base/Core/Src/i2c.c ****   *          of the I2C instances.
   7:control-base/typec-board-base/Core/Src/i2c.c ****   ******************************************************************************
   8:control-base/typec-board-base/Core/Src/i2c.c ****   * @attention
   9:control-base/typec-board-base/Core/Src/i2c.c ****   *
  10:control-base/typec-board-base/Core/Src/i2c.c ****   * Copyright (c) 2023 STMicroelectronics.
  11:control-base/typec-board-base/Core/Src/i2c.c ****   * All rights reserved.
  12:control-base/typec-board-base/Core/Src/i2c.c ****   *
  13:control-base/typec-board-base/Core/Src/i2c.c ****   * This software is licensed under terms that can be found in the LICENSE file
  14:control-base/typec-board-base/Core/Src/i2c.c ****   * in the root directory of this software component.
  15:control-base/typec-board-base/Core/Src/i2c.c ****   * If no LICENSE file comes with this software, it is provided AS-IS.
  16:control-base/typec-board-base/Core/Src/i2c.c ****   *
  17:control-base/typec-board-base/Core/Src/i2c.c ****   ******************************************************************************
  18:control-base/typec-board-base/Core/Src/i2c.c ****   */
  19:control-base/typec-board-base/Core/Src/i2c.c **** /* USER CODE END Header */
  20:control-base/typec-board-base/Core/Src/i2c.c **** /* Includes ------------------------------------------------------------------*/
  21:control-base/typec-board-base/Core/Src/i2c.c **** #include "i2c.h"
  22:control-base/typec-board-base/Core/Src/i2c.c **** 
  23:control-base/typec-board-base/Core/Src/i2c.c **** /* USER CODE BEGIN 0 */
  24:control-base/typec-board-base/Core/Src/i2c.c **** 
  25:control-base/typec-board-base/Core/Src/i2c.c **** /* USER CODE END 0 */
  26:control-base/typec-board-base/Core/Src/i2c.c **** 
  27:control-base/typec-board-base/Core/Src/i2c.c **** I2C_HandleTypeDef hi2c3;
  28:control-base/typec-board-base/Core/Src/i2c.c **** 
  29:control-base/typec-board-base/Core/Src/i2c.c **** /* I2C3 init function */
  30:control-base/typec-board-base/Core/Src/i2c.c **** void MX_I2C3_Init(void)
ARM GAS  /var/folders/sg/pxk9dyzj7jz_x3889hx3b3dw0000gn/T//cc7ooIjx.s 			page 2


  31:control-base/typec-board-base/Core/Src/i2c.c **** {
  29              		.loc 1 31 1 view -0
  30              		.cfi_startproc
  31              		@ args = 0, pretend = 0, frame = 0
  32              		@ frame_needed = 0, uses_anonymous_args = 0
  33 0000 08B5     		push	{r3, lr}
  34              	.LCFI0:
  35              		.cfi_def_cfa_offset 8
  36              		.cfi_offset 3, -8
  37              		.cfi_offset 14, -4
  32:control-base/typec-board-base/Core/Src/i2c.c **** 
  33:control-base/typec-board-base/Core/Src/i2c.c ****   /* USER CODE BEGIN I2C3_Init 0 */
  34:control-base/typec-board-base/Core/Src/i2c.c **** 
  35:control-base/typec-board-base/Core/Src/i2c.c ****   /* USER CODE END I2C3_Init 0 */
  36:control-base/typec-board-base/Core/Src/i2c.c **** 
  37:control-base/typec-board-base/Core/Src/i2c.c ****   /* USER CODE BEGIN I2C3_Init 1 */
  38:control-base/typec-board-base/Core/Src/i2c.c **** 
  39:control-base/typec-board-base/Core/Src/i2c.c ****   /* USER CODE END I2C3_Init 1 */
  40:control-base/typec-board-base/Core/Src/i2c.c ****   hi2c3.Instance = I2C3;
  38              		.loc 1 40 3 view .LVU1
  39              		.loc 1 40 18 is_stmt 0 view .LVU2
  40 0002 0B48     		ldr	r0, .L5
  41 0004 0B4B     		ldr	r3, .L5+4
  42 0006 0360     		str	r3, [r0]
  41:control-base/typec-board-base/Core/Src/i2c.c ****   hi2c3.Init.ClockSpeed = 400000;
  43              		.loc 1 41 3 is_stmt 1 view .LVU3
  44              		.loc 1 41 25 is_stmt 0 view .LVU4
  45 0008 0B4B     		ldr	r3, .L5+8
  46 000a 4360     		str	r3, [r0, #4]
  42:control-base/typec-board-base/Core/Src/i2c.c ****   hi2c3.Init.DutyCycle = I2C_DUTYCYCLE_2;
  47              		.loc 1 42 3 is_stmt 1 view .LVU5
  48              		.loc 1 42 24 is_stmt 0 view .LVU6
  49 000c 0023     		movs	r3, #0
  50 000e 8360     		str	r3, [r0, #8]
  43:control-base/typec-board-base/Core/Src/i2c.c ****   hi2c3.Init.OwnAddress1 = 0;
  51              		.loc 1 43 3 is_stmt 1 view .LVU7
  52              		.loc 1 43 26 is_stmt 0 view .LVU8
  53 0010 C360     		str	r3, [r0, #12]
  44:control-base/typec-board-base/Core/Src/i2c.c ****   hi2c3.Init.AddressingMode = I2C_ADDRESSINGMODE_7BIT;
  54              		.loc 1 44 3 is_stmt 1 view .LVU9
  55              		.loc 1 44 29 is_stmt 0 view .LVU10
  56 0012 4FF48042 		mov	r2, #16384
  57 0016 0261     		str	r2, [r0, #16]
  45:control-base/typec-board-base/Core/Src/i2c.c ****   hi2c3.Init.DualAddressMode = I2C_DUALADDRESS_DISABLE;
  58              		.loc 1 45 3 is_stmt 1 view .LVU11
  59              		.loc 1 45 30 is_stmt 0 view .LVU12
  60 0018 4361     		str	r3, [r0, #20]
  46:control-base/typec-board-base/Core/Src/i2c.c ****   hi2c3.Init.OwnAddress2 = 0;
  61              		.loc 1 46 3 is_stmt 1 view .LVU13
  62              		.loc 1 46 26 is_stmt 0 view .LVU14
  63 001a 8361     		str	r3, [r0, #24]
  47:control-base/typec-board-base/Core/Src/i2c.c ****   hi2c3.Init.GeneralCallMode = I2C_GENERALCALL_DISABLE;
  64              		.loc 1 47 3 is_stmt 1 view .LVU15
  65              		.loc 1 47 30 is_stmt 0 view .LVU16
  66 001c C361     		str	r3, [r0, #28]
  48:control-base/typec-board-base/Core/Src/i2c.c ****   hi2c3.Init.NoStretchMode = I2C_NOSTRETCH_DISABLE;
  67              		.loc 1 48 3 is_stmt 1 view .LVU17
ARM GAS  /var/folders/sg/pxk9dyzj7jz_x3889hx3b3dw0000gn/T//cc7ooIjx.s 			page 3


  68              		.loc 1 48 28 is_stmt 0 view .LVU18
  69 001e 0362     		str	r3, [r0, #32]
  49:control-base/typec-board-base/Core/Src/i2c.c ****   if (HAL_I2C_Init(&hi2c3) != HAL_OK)
  70              		.loc 1 49 3 is_stmt 1 view .LVU19
  71              		.loc 1 49 7 is_stmt 0 view .LVU20
  72 0020 FFF7FEFF 		bl	HAL_I2C_Init
  73              	.LVL0:
  74              		.loc 1 49 6 discriminator 1 view .LVU21
  75 0024 00B9     		cbnz	r0, .L4
  76              	.L1:
  50:control-base/typec-board-base/Core/Src/i2c.c ****   {
  51:control-base/typec-board-base/Core/Src/i2c.c ****     Error_Handler();
  52:control-base/typec-board-base/Core/Src/i2c.c ****   }
  53:control-base/typec-board-base/Core/Src/i2c.c ****   /* USER CODE BEGIN I2C3_Init 2 */
  54:control-base/typec-board-base/Core/Src/i2c.c **** 
  55:control-base/typec-board-base/Core/Src/i2c.c ****   /* USER CODE END I2C3_Init 2 */
  56:control-base/typec-board-base/Core/Src/i2c.c **** 
  57:control-base/typec-board-base/Core/Src/i2c.c **** }
  77              		.loc 1 57 1 view .LVU22
  78 0026 08BD     		pop	{r3, pc}
  79              	.L4:
  51:control-base/typec-board-base/Core/Src/i2c.c ****   }
  80              		.loc 1 51 5 is_stmt 1 view .LVU23
  81 0028 FFF7FEFF 		bl	Error_Handler
  82              	.LVL1:
  83              		.loc 1 57 1 is_stmt 0 view .LVU24
  84 002c FBE7     		b	.L1
  85              	.L6:
  86 002e 00BF     		.align	2
  87              	.L5:
  88 0030 00000000 		.word	hi2c3
  89 0034 005C0040 		.word	1073765376
  90 0038 801A0600 		.word	400000
  91              		.cfi_endproc
  92              	.LFE134:
  94              		.section	.text.HAL_I2C_MspInit,"ax",%progbits
  95              		.align	1
  96              		.global	HAL_I2C_MspInit
  97              		.syntax unified
  98              		.thumb
  99              		.thumb_func
 101              	HAL_I2C_MspInit:
 102              	.LVL2:
 103              	.LFB135:
  58:control-base/typec-board-base/Core/Src/i2c.c **** 
  59:control-base/typec-board-base/Core/Src/i2c.c **** void HAL_I2C_MspInit(I2C_HandleTypeDef* i2cHandle)
  60:control-base/typec-board-base/Core/Src/i2c.c **** {
 104              		.loc 1 60 1 is_stmt 1 view -0
 105              		.cfi_startproc
 106              		@ args = 0, pretend = 0, frame = 32
 107              		@ frame_needed = 0, uses_anonymous_args = 0
 108              		.loc 1 60 1 is_stmt 0 view .LVU26
 109 0000 2DE9F047 		push	{r4, r5, r6, r7, r8, r9, r10, lr}
 110              	.LCFI1:
 111              		.cfi_def_cfa_offset 32
 112              		.cfi_offset 4, -32
 113              		.cfi_offset 5, -28
ARM GAS  /var/folders/sg/pxk9dyzj7jz_x3889hx3b3dw0000gn/T//cc7ooIjx.s 			page 4


 114              		.cfi_offset 6, -24
 115              		.cfi_offset 7, -20
 116              		.cfi_offset 8, -16
 117              		.cfi_offset 9, -12
 118              		.cfi_offset 10, -8
 119              		.cfi_offset 14, -4
 120 0004 88B0     		sub	sp, sp, #32
 121              	.LCFI2:
 122              		.cfi_def_cfa_offset 64
  61:control-base/typec-board-base/Core/Src/i2c.c **** 
  62:control-base/typec-board-base/Core/Src/i2c.c ****   GPIO_InitTypeDef GPIO_InitStruct = {0};
 123              		.loc 1 62 3 is_stmt 1 view .LVU27
 124              		.loc 1 62 20 is_stmt 0 view .LVU28
 125 0006 0023     		movs	r3, #0
 126 0008 0393     		str	r3, [sp, #12]
 127 000a 0493     		str	r3, [sp, #16]
 128 000c 0593     		str	r3, [sp, #20]
 129 000e 0693     		str	r3, [sp, #24]
 130 0010 0793     		str	r3, [sp, #28]
  63:control-base/typec-board-base/Core/Src/i2c.c ****   if(i2cHandle->Instance==I2C3)
 131              		.loc 1 63 3 is_stmt 1 view .LVU29
 132              		.loc 1 63 15 is_stmt 0 view .LVU30
 133 0012 0268     		ldr	r2, [r0]
 134              		.loc 1 63 5 view .LVU31
 135 0014 254B     		ldr	r3, .L11
 136 0016 9A42     		cmp	r2, r3
 137 0018 02D0     		beq	.L10
 138              	.LVL3:
 139              	.L7:
  64:control-base/typec-board-base/Core/Src/i2c.c ****   {
  65:control-base/typec-board-base/Core/Src/i2c.c ****   /* USER CODE BEGIN I2C3_MspInit 0 */
  66:control-base/typec-board-base/Core/Src/i2c.c **** 
  67:control-base/typec-board-base/Core/Src/i2c.c ****   /* USER CODE END I2C3_MspInit 0 */
  68:control-base/typec-board-base/Core/Src/i2c.c **** 
  69:control-base/typec-board-base/Core/Src/i2c.c ****     __HAL_RCC_GPIOC_CLK_ENABLE();
  70:control-base/typec-board-base/Core/Src/i2c.c ****     __HAL_RCC_GPIOA_CLK_ENABLE();
  71:control-base/typec-board-base/Core/Src/i2c.c ****     /**I2C3 GPIO Configuration
  72:control-base/typec-board-base/Core/Src/i2c.c ****     PC9     ------> I2C3_SDA
  73:control-base/typec-board-base/Core/Src/i2c.c ****     PA8     ------> I2C3_SCL
  74:control-base/typec-board-base/Core/Src/i2c.c ****     */
  75:control-base/typec-board-base/Core/Src/i2c.c ****     GPIO_InitStruct.Pin = GPIO_PIN_9;
  76:control-base/typec-board-base/Core/Src/i2c.c ****     GPIO_InitStruct.Mode = GPIO_MODE_AF_OD;
  77:control-base/typec-board-base/Core/Src/i2c.c ****     GPIO_InitStruct.Pull = GPIO_PULLUP;
  78:control-base/typec-board-base/Core/Src/i2c.c ****     GPIO_InitStruct.Speed = GPIO_SPEED_FREQ_VERY_HIGH;
  79:control-base/typec-board-base/Core/Src/i2c.c ****     GPIO_InitStruct.Alternate = GPIO_AF4_I2C3;
  80:control-base/typec-board-base/Core/Src/i2c.c ****     HAL_GPIO_Init(GPIOC, &GPIO_InitStruct);
  81:control-base/typec-board-base/Core/Src/i2c.c **** 
  82:control-base/typec-board-base/Core/Src/i2c.c ****     GPIO_InitStruct.Pin = GPIO_PIN_8;
  83:control-base/typec-board-base/Core/Src/i2c.c ****     GPIO_InitStruct.Mode = GPIO_MODE_AF_OD;
  84:control-base/typec-board-base/Core/Src/i2c.c ****     GPIO_InitStruct.Pull = GPIO_PULLUP;
  85:control-base/typec-board-base/Core/Src/i2c.c ****     GPIO_InitStruct.Speed = GPIO_SPEED_FREQ_VERY_HIGH;
  86:control-base/typec-board-base/Core/Src/i2c.c ****     GPIO_InitStruct.Alternate = GPIO_AF4_I2C3;
  87:control-base/typec-board-base/Core/Src/i2c.c ****     HAL_GPIO_Init(GPIOA, &GPIO_InitStruct);
  88:control-base/typec-board-base/Core/Src/i2c.c **** 
  89:control-base/typec-board-base/Core/Src/i2c.c ****     /* I2C3 clock enable */
  90:control-base/typec-board-base/Core/Src/i2c.c ****     __HAL_RCC_I2C3_CLK_ENABLE();
  91:control-base/typec-board-base/Core/Src/i2c.c ****   /* USER CODE BEGIN I2C3_MspInit 1 */
ARM GAS  /var/folders/sg/pxk9dyzj7jz_x3889hx3b3dw0000gn/T//cc7ooIjx.s 			page 5


  92:control-base/typec-board-base/Core/Src/i2c.c **** 
  93:control-base/typec-board-base/Core/Src/i2c.c ****   /* USER CODE END I2C3_MspInit 1 */
  94:control-base/typec-board-base/Core/Src/i2c.c ****   }
  95:control-base/typec-board-base/Core/Src/i2c.c **** }
 140              		.loc 1 95 1 view .LVU32
 141 001a 08B0     		add	sp, sp, #32
 142              	.LCFI3:
 143              		.cfi_remember_state
 144              		.cfi_def_cfa_offset 32
 145              		@ sp needed
 146 001c BDE8F087 		pop	{r4, r5, r6, r7, r8, r9, r10, pc}
 147              	.LVL4:
 148              	.L10:
 149              	.LCFI4:
 150              		.cfi_restore_state
  69:control-base/typec-board-base/Core/Src/i2c.c ****     __HAL_RCC_GPIOA_CLK_ENABLE();
 151              		.loc 1 69 5 is_stmt 1 view .LVU33
 152              	.LBB2:
  69:control-base/typec-board-base/Core/Src/i2c.c ****     __HAL_RCC_GPIOA_CLK_ENABLE();
 153              		.loc 1 69 5 view .LVU34
 154 0020 0025     		movs	r5, #0
 155 0022 0095     		str	r5, [sp]
  69:control-base/typec-board-base/Core/Src/i2c.c ****     __HAL_RCC_GPIOA_CLK_ENABLE();
 156              		.loc 1 69 5 view .LVU35
 157 0024 224C     		ldr	r4, .L11+4
 158 0026 236B     		ldr	r3, [r4, #48]
 159 0028 43F00403 		orr	r3, r3, #4
 160 002c 2363     		str	r3, [r4, #48]
  69:control-base/typec-board-base/Core/Src/i2c.c ****     __HAL_RCC_GPIOA_CLK_ENABLE();
 161              		.loc 1 69 5 view .LVU36
 162 002e 236B     		ldr	r3, [r4, #48]
 163 0030 03F00403 		and	r3, r3, #4
 164 0034 0093     		str	r3, [sp]
  69:control-base/typec-board-base/Core/Src/i2c.c ****     __HAL_RCC_GPIOA_CLK_ENABLE();
 165              		.loc 1 69 5 view .LVU37
 166 0036 009B     		ldr	r3, [sp]
 167              	.LBE2:
  69:control-base/typec-board-base/Core/Src/i2c.c ****     __HAL_RCC_GPIOA_CLK_ENABLE();
 168              		.loc 1 69 5 view .LVU38
  70:control-base/typec-board-base/Core/Src/i2c.c ****     /**I2C3 GPIO Configuration
 169              		.loc 1 70 5 view .LVU39
 170              	.LBB3:
  70:control-base/typec-board-base/Core/Src/i2c.c ****     /**I2C3 GPIO Configuration
 171              		.loc 1 70 5 view .LVU40
 172 0038 0195     		str	r5, [sp, #4]
  70:control-base/typec-board-base/Core/Src/i2c.c ****     /**I2C3 GPIO Configuration
 173              		.loc 1 70 5 view .LVU41
 174 003a 236B     		ldr	r3, [r4, #48]
 175 003c 43F00103 		orr	r3, r3, #1
 176 0040 2363     		str	r3, [r4, #48]
  70:control-base/typec-board-base/Core/Src/i2c.c ****     /**I2C3 GPIO Configuration
 177              		.loc 1 70 5 view .LVU42
 178 0042 236B     		ldr	r3, [r4, #48]
 179 0044 03F00103 		and	r3, r3, #1
 180 0048 0193     		str	r3, [sp, #4]
  70:control-base/typec-board-base/Core/Src/i2c.c ****     /**I2C3 GPIO Configuration
 181              		.loc 1 70 5 view .LVU43
ARM GAS  /var/folders/sg/pxk9dyzj7jz_x3889hx3b3dw0000gn/T//cc7ooIjx.s 			page 6


 182 004a 019B     		ldr	r3, [sp, #4]
 183              	.LBE3:
  70:control-base/typec-board-base/Core/Src/i2c.c ****     /**I2C3 GPIO Configuration
 184              		.loc 1 70 5 view .LVU44
  75:control-base/typec-board-base/Core/Src/i2c.c ****     GPIO_InitStruct.Mode = GPIO_MODE_AF_OD;
 185              		.loc 1 75 5 view .LVU45
  75:control-base/typec-board-base/Core/Src/i2c.c ****     GPIO_InitStruct.Mode = GPIO_MODE_AF_OD;
 186              		.loc 1 75 25 is_stmt 0 view .LVU46
 187 004c 4FF40073 		mov	r3, #512
 188 0050 0393     		str	r3, [sp, #12]
  76:control-base/typec-board-base/Core/Src/i2c.c ****     GPIO_InitStruct.Pull = GPIO_PULLUP;
 189              		.loc 1 76 5 is_stmt 1 view .LVU47
  76:control-base/typec-board-base/Core/Src/i2c.c ****     GPIO_InitStruct.Pull = GPIO_PULLUP;
 190              		.loc 1 76 26 is_stmt 0 view .LVU48
 191 0052 4FF0120A 		mov	r10, #18
 192 0056 CDF810A0 		str	r10, [sp, #16]
  77:control-base/typec-board-base/Core/Src/i2c.c ****     GPIO_InitStruct.Speed = GPIO_SPEED_FREQ_VERY_HIGH;
 193              		.loc 1 77 5 is_stmt 1 view .LVU49
  77:control-base/typec-board-base/Core/Src/i2c.c ****     GPIO_InitStruct.Speed = GPIO_SPEED_FREQ_VERY_HIGH;
 194              		.loc 1 77 26 is_stmt 0 view .LVU50
 195 005a 4FF00109 		mov	r9, #1
 196 005e CDF81490 		str	r9, [sp, #20]
  78:control-base/typec-board-base/Core/Src/i2c.c ****     GPIO_InitStruct.Alternate = GPIO_AF4_I2C3;
 197              		.loc 1 78 5 is_stmt 1 view .LVU51
  78:control-base/typec-board-base/Core/Src/i2c.c ****     GPIO_InitStruct.Alternate = GPIO_AF4_I2C3;
 198              		.loc 1 78 27 is_stmt 0 view .LVU52
 199 0062 4FF00308 		mov	r8, #3
 200 0066 CDF81880 		str	r8, [sp, #24]
  79:control-base/typec-board-base/Core/Src/i2c.c ****     HAL_GPIO_Init(GPIOC, &GPIO_InitStruct);
 201              		.loc 1 79 5 is_stmt 1 view .LVU53
  79:control-base/typec-board-base/Core/Src/i2c.c ****     HAL_GPIO_Init(GPIOC, &GPIO_InitStruct);
 202              		.loc 1 79 31 is_stmt 0 view .LVU54
 203 006a 0427     		movs	r7, #4
 204 006c 0797     		str	r7, [sp, #28]
  80:control-base/typec-board-base/Core/Src/i2c.c **** 
 205              		.loc 1 80 5 is_stmt 1 view .LVU55
 206 006e 03AE     		add	r6, sp, #12
 207 0070 3146     		mov	r1, r6
 208 0072 1048     		ldr	r0, .L11+8
 209              	.LVL5:
  80:control-base/typec-board-base/Core/Src/i2c.c **** 
 210              		.loc 1 80 5 is_stmt 0 view .LVU56
 211 0074 FFF7FEFF 		bl	HAL_GPIO_Init
 212              	.LVL6:
  82:control-base/typec-board-base/Core/Src/i2c.c ****     GPIO_InitStruct.Mode = GPIO_MODE_AF_OD;
 213              		.loc 1 82 5 is_stmt 1 view .LVU57
  82:control-base/typec-board-base/Core/Src/i2c.c ****     GPIO_InitStruct.Mode = GPIO_MODE_AF_OD;
 214              		.loc 1 82 25 is_stmt 0 view .LVU58
 215 0078 4FF48073 		mov	r3, #256
 216 007c 0393     		str	r3, [sp, #12]
  83:control-base/typec-board-base/Core/Src/i2c.c ****     GPIO_InitStruct.Pull = GPIO_PULLUP;
 217              		.loc 1 83 5 is_stmt 1 view .LVU59
  83:control-base/typec-board-base/Core/Src/i2c.c ****     GPIO_InitStruct.Pull = GPIO_PULLUP;
 218              		.loc 1 83 26 is_stmt 0 view .LVU60
 219 007e CDF810A0 		str	r10, [sp, #16]
  84:control-base/typec-board-base/Core/Src/i2c.c ****     GPIO_InitStruct.Speed = GPIO_SPEED_FREQ_VERY_HIGH;
 220              		.loc 1 84 5 is_stmt 1 view .LVU61
ARM GAS  /var/folders/sg/pxk9dyzj7jz_x3889hx3b3dw0000gn/T//cc7ooIjx.s 			page 7


  84:control-base/typec-board-base/Core/Src/i2c.c ****     GPIO_InitStruct.Speed = GPIO_SPEED_FREQ_VERY_HIGH;
 221              		.loc 1 84 26 is_stmt 0 view .LVU62
 222 0082 CDF81490 		str	r9, [sp, #20]
  85:control-base/typec-board-base/Core/Src/i2c.c ****     GPIO_InitStruct.Alternate = GPIO_AF4_I2C3;
 223              		.loc 1 85 5 is_stmt 1 view .LVU63
  85:control-base/typec-board-base/Core/Src/i2c.c ****     GPIO_InitStruct.Alternate = GPIO_AF4_I2C3;
 224              		.loc 1 85 27 is_stmt 0 view .LVU64
 225 0086 CDF81880 		str	r8, [sp, #24]
  86:control-base/typec-board-base/Core/Src/i2c.c ****     HAL_GPIO_Init(GPIOA, &GPIO_InitStruct);
 226              		.loc 1 86 5 is_stmt 1 view .LVU65
  86:control-base/typec-board-base/Core/Src/i2c.c ****     HAL_GPIO_Init(GPIOA, &GPIO_InitStruct);
 227              		.loc 1 86 31 is_stmt 0 view .LVU66
 228 008a 0797     		str	r7, [sp, #28]
  87:control-base/typec-board-base/Core/Src/i2c.c **** 
 229              		.loc 1 87 5 is_stmt 1 view .LVU67
 230 008c 3146     		mov	r1, r6
 231 008e 0A48     		ldr	r0, .L11+12
 232 0090 FFF7FEFF 		bl	HAL_GPIO_Init
 233              	.LVL7:
  90:control-base/typec-board-base/Core/Src/i2c.c ****   /* USER CODE BEGIN I2C3_MspInit 1 */
 234              		.loc 1 90 5 view .LVU68
 235              	.LBB4:
  90:control-base/typec-board-base/Core/Src/i2c.c ****   /* USER CODE BEGIN I2C3_MspInit 1 */
 236              		.loc 1 90 5 view .LVU69
 237 0094 0295     		str	r5, [sp, #8]
  90:control-base/typec-board-base/Core/Src/i2c.c ****   /* USER CODE BEGIN I2C3_MspInit 1 */
 238              		.loc 1 90 5 view .LVU70
 239 0096 236C     		ldr	r3, [r4, #64]
 240 0098 43F40003 		orr	r3, r3, #8388608
 241 009c 2364     		str	r3, [r4, #64]
  90:control-base/typec-board-base/Core/Src/i2c.c ****   /* USER CODE BEGIN I2C3_MspInit 1 */
 242              		.loc 1 90 5 view .LVU71
 243 009e 236C     		ldr	r3, [r4, #64]
 244 00a0 03F40003 		and	r3, r3, #8388608
 245 00a4 0293     		str	r3, [sp, #8]
  90:control-base/typec-board-base/Core/Src/i2c.c ****   /* USER CODE BEGIN I2C3_MspInit 1 */
 246              		.loc 1 90 5 view .LVU72
 247 00a6 029B     		ldr	r3, [sp, #8]
 248              	.LBE4:
  90:control-base/typec-board-base/Core/Src/i2c.c ****   /* USER CODE BEGIN I2C3_MspInit 1 */
 249              		.loc 1 90 5 view .LVU73
 250              		.loc 1 95 1 is_stmt 0 view .LVU74
 251 00a8 B7E7     		b	.L7
 252              	.L12:
 253 00aa 00BF     		.align	2
 254              	.L11:
 255 00ac 005C0040 		.word	1073765376
 256 00b0 00380240 		.word	1073887232
 257 00b4 00080240 		.word	1073874944
 258 00b8 00000240 		.word	1073872896
 259              		.cfi_endproc
 260              	.LFE135:
 262              		.section	.text.HAL_I2C_MspDeInit,"ax",%progbits
 263              		.align	1
 264              		.global	HAL_I2C_MspDeInit
 265              		.syntax unified
 266              		.thumb
ARM GAS  /var/folders/sg/pxk9dyzj7jz_x3889hx3b3dw0000gn/T//cc7ooIjx.s 			page 8


 267              		.thumb_func
 269              	HAL_I2C_MspDeInit:
 270              	.LVL8:
 271              	.LFB136:
  96:control-base/typec-board-base/Core/Src/i2c.c **** 
  97:control-base/typec-board-base/Core/Src/i2c.c **** void HAL_I2C_MspDeInit(I2C_HandleTypeDef* i2cHandle)
  98:control-base/typec-board-base/Core/Src/i2c.c **** {
 272              		.loc 1 98 1 is_stmt 1 view -0
 273              		.cfi_startproc
 274              		@ args = 0, pretend = 0, frame = 0
 275              		@ frame_needed = 0, uses_anonymous_args = 0
 276              		.loc 1 98 1 is_stmt 0 view .LVU76
 277 0000 08B5     		push	{r3, lr}
 278              	.LCFI5:
 279              		.cfi_def_cfa_offset 8
 280              		.cfi_offset 3, -8
 281              		.cfi_offset 14, -4
  99:control-base/typec-board-base/Core/Src/i2c.c **** 
 100:control-base/typec-board-base/Core/Src/i2c.c ****   if(i2cHandle->Instance==I2C3)
 282              		.loc 1 100 3 is_stmt 1 view .LVU77
 283              		.loc 1 100 15 is_stmt 0 view .LVU78
 284 0002 0268     		ldr	r2, [r0]
 285              		.loc 1 100 5 view .LVU79
 286 0004 094B     		ldr	r3, .L17
 287 0006 9A42     		cmp	r2, r3
 288 0008 00D0     		beq	.L16
 289              	.LVL9:
 290              	.L13:
 101:control-base/typec-board-base/Core/Src/i2c.c ****   {
 102:control-base/typec-board-base/Core/Src/i2c.c ****   /* USER CODE BEGIN I2C3_MspDeInit 0 */
 103:control-base/typec-board-base/Core/Src/i2c.c **** 
 104:control-base/typec-board-base/Core/Src/i2c.c ****   /* USER CODE END I2C3_MspDeInit 0 */
 105:control-base/typec-board-base/Core/Src/i2c.c ****     /* Peripheral clock disable */
 106:control-base/typec-board-base/Core/Src/i2c.c ****     __HAL_RCC_I2C3_CLK_DISABLE();
 107:control-base/typec-board-base/Core/Src/i2c.c **** 
 108:control-base/typec-board-base/Core/Src/i2c.c ****     /**I2C3 GPIO Configuration
 109:control-base/typec-board-base/Core/Src/i2c.c ****     PC9     ------> I2C3_SDA
 110:control-base/typec-board-base/Core/Src/i2c.c ****     PA8     ------> I2C3_SCL
 111:control-base/typec-board-base/Core/Src/i2c.c ****     */
 112:control-base/typec-board-base/Core/Src/i2c.c ****     HAL_GPIO_DeInit(GPIOC, GPIO_PIN_9);
 113:control-base/typec-board-base/Core/Src/i2c.c **** 
 114:control-base/typec-board-base/Core/Src/i2c.c ****     HAL_GPIO_DeInit(GPIOA, GPIO_PIN_8);
 115:control-base/typec-board-base/Core/Src/i2c.c **** 
 116:control-base/typec-board-base/Core/Src/i2c.c ****   /* USER CODE BEGIN I2C3_MspDeInit 1 */
 117:control-base/typec-board-base/Core/Src/i2c.c **** 
 118:control-base/typec-board-base/Core/Src/i2c.c ****   /* USER CODE END I2C3_MspDeInit 1 */
 119:control-base/typec-board-base/Core/Src/i2c.c ****   }
 120:control-base/typec-board-base/Core/Src/i2c.c **** }
 291              		.loc 1 120 1 view .LVU80
 292 000a 08BD     		pop	{r3, pc}
 293              	.LVL10:
 294              	.L16:
 106:control-base/typec-board-base/Core/Src/i2c.c **** 
 295              		.loc 1 106 5 is_stmt 1 view .LVU81
 296 000c 084A     		ldr	r2, .L17+4
 297 000e 136C     		ldr	r3, [r2, #64]
 298 0010 23F40003 		bic	r3, r3, #8388608
ARM GAS  /var/folders/sg/pxk9dyzj7jz_x3889hx3b3dw0000gn/T//cc7ooIjx.s 			page 9


 299 0014 1364     		str	r3, [r2, #64]
 112:control-base/typec-board-base/Core/Src/i2c.c **** 
 300              		.loc 1 112 5 view .LVU82
 301 0016 4FF40071 		mov	r1, #512
 302 001a 0648     		ldr	r0, .L17+8
 303              	.LVL11:
 112:control-base/typec-board-base/Core/Src/i2c.c **** 
 304              		.loc 1 112 5 is_stmt 0 view .LVU83
 305 001c FFF7FEFF 		bl	HAL_GPIO_DeInit
 306              	.LVL12:
 114:control-base/typec-board-base/Core/Src/i2c.c **** 
 307              		.loc 1 114 5 is_stmt 1 view .LVU84
 308 0020 4FF48071 		mov	r1, #256
 309 0024 0448     		ldr	r0, .L17+12
 310 0026 FFF7FEFF 		bl	HAL_GPIO_DeInit
 311              	.LVL13:
 312              		.loc 1 120 1 is_stmt 0 view .LVU85
 313 002a EEE7     		b	.L13
 314              	.L18:
 315              		.align	2
 316              	.L17:
 317 002c 005C0040 		.word	1073765376
 318 0030 00380240 		.word	1073887232
 319 0034 00080240 		.word	1073874944
 320 0038 00000240 		.word	1073872896
 321              		.cfi_endproc
 322              	.LFE136:
 324              		.global	hi2c3
 325              		.section	.bss.hi2c3,"aw",%nobits
 326              		.align	2
 329              	hi2c3:
 330 0000 00000000 		.space	84
 330      00000000 
 330      00000000 
 330      00000000 
 330      00000000 
 331              		.text
 332              	.Letext0:
 333              		.file 2 "/Applications/ArmGNUToolchain/14.3.rel1/arm-none-eabi/arm-none-eabi/include/machine/_defa
 334              		.file 3 "/Applications/ArmGNUToolchain/14.3.rel1/arm-none-eabi/arm-none-eabi/include/sys/_stdint.h
 335              		.file 4 "control-base/typec-board-base/Drivers/CMSIS/Device/ST/STM32F4xx/Include/stm32f407xx.h"
 336              		.file 5 "control-base/typec-board-base/Drivers/STM32F4xx_HAL_Driver/Inc/stm32f4xx_hal_def.h"
 337              		.file 6 "control-base/typec-board-base/Drivers/STM32F4xx_HAL_Driver/Inc/stm32f4xx_hal_gpio.h"
 338              		.file 7 "control-base/typec-board-base/Drivers/STM32F4xx_HAL_Driver/Inc/stm32f4xx_hal_dma.h"
 339              		.file 8 "control-base/typec-board-base/Drivers/STM32F4xx_HAL_Driver/Inc/stm32f4xx_hal_i2c.h"
 340              		.file 9 "control-base/typec-board-base/Core/Inc/i2c.h"
 341              		.file 10 "control-base/typec-board-base/Core/Inc/main.h"
ARM GAS  /var/folders/sg/pxk9dyzj7jz_x3889hx3b3dw0000gn/T//cc7ooIjx.s 			page 10

