ARM GAS  /var/folders/sg/pxk9dyzj7jz_x3889hx3b3dw0000gn/T//ccQYcrNL.s 			page 1


   1              		.cpu cortex-m4
   2              		.arch armv7e-m
   3              		.fpu fpv4-sp-d16
   4              		.eabi_attribute 27, 1
   5              		.eabi_attribute 28, 1
   6              		.eabi_attribute 20, 1
   7              		.eabi_attribute 21, 1
   8              		.eabi_attribute 23, 3
   9              		.eabi_attribute 24, 1
  10              		.eabi_attribute 25, 1
  11              		.eabi_attribute 26, 1
  12              		.eabi_attribute 30, 1
  13              		.eabi_attribute 34, 1
  14              		.eabi_attribute 18, 4
  15              		.file	"referee_system.c"
  16              		.text
  17              	.Ltext0:
  18              		.cfi_sections	.debug_frame
  19              		.file 1 "control-base/devices/src/referee_system.c"
  20              		.section	.text.Referee_System_Timeout_Callback,"ax",%progbits
  21              		.align	1
  22              		.global	Referee_System_Timeout_Callback
  23              		.syntax unified
  24              		.thumb
  25              		.thumb_func
  27              	Referee_System_Timeout_Callback:
  28              	.LFB143:
   1:control-base/devices/src/referee_system.c **** /**
   2:control-base/devices/src/referee_system.c ****  * @file Referee_System.c
   3:control-base/devices/src/referee_system.c ****  * @author Leo Liu
   4:control-base/devices/src/referee_system.c ****  * @brief reading data from the referee system
   5:control-base/devices/src/referee_system.c ****  * @version 2.0
   6:control-base/devices/src/referee_system.c ****  * @date 2024-05-22
   7:control-base/devices/src/referee_system.c ****  *
   8:control-base/devices/src/referee_system.c ****  * @copyright Copyright (c) 2024
   9:control-base/devices/src/referee_system.c ****  *
  10:control-base/devices/src/referee_system.c ****  */
  11:control-base/devices/src/referee_system.c **** #include "referee_system.h"
  12:control-base/devices/src/referee_system.c **** 
  13:control-base/devices/src/referee_system.c **** Referee_System_t Referee_System;
  14:control-base/devices/src/referee_system.c **** Referee_Robot_State_t Referee_Robot_State;
  15:control-base/devices/src/referee_system.c **** UART_Instance_t *g_referee_uart_instance_ptr;
  16:control-base/devices/src/referee_system.c **** Daemon_Instance_t *g_referee_daemon_instance_ptr;
  17:control-base/devices/src/referee_system.c **** 
  18:control-base/devices/src/referee_system.c **** void Referee_Set_Robot_State(void)
  19:control-base/devices/src/referee_system.c **** {
  20:control-base/devices/src/referee_system.c ****     if (Referee_System.Online_Flag)
  21:control-base/devices/src/referee_system.c ****     {
  22:control-base/devices/src/referee_system.c ****         Referee_Robot_State.Game_Type = Referee_System.Game_Status.Type;
  23:control-base/devices/src/referee_system.c ****         Referee_Robot_State.ID = Referee_System.Robot_State.ID;
  24:control-base/devices/src/referee_system.c ****         Referee_Robot_State.Level = Referee_System.Robot_State.Level;
  25:control-base/devices/src/referee_system.c **** 
  26:control-base/devices/src/referee_system.c ****         Referee_Robot_State.Cooling_Rate = Referee_System.Robot_State.Shooter_Cooling_Value;
  27:control-base/devices/src/referee_system.c ****         Referee_Robot_State.Heat_Max = Referee_System.Robot_State.Shooter_Heat_Max;
  28:control-base/devices/src/referee_system.c ****         Referee_Robot_State.Launch_Speed_Max = DEFAULT_STANDARD_LAUNCH_SPEED_MAX;
  29:control-base/devices/src/referee_system.c ****         Referee_Robot_State.Chassis_Power_Max = Referee_System.Robot_State.Chassis_Power_Max;
  30:control-base/devices/src/referee_system.c **** 
ARM GAS  /var/folders/sg/pxk9dyzj7jz_x3889hx3b3dw0000gn/T//ccQYcrNL.s 			page 2


  31:control-base/devices/src/referee_system.c ****         Referee_Robot_State.Chassis_Power = Referee_System.Power_Heat.Chassis_Power;
  32:control-base/devices/src/referee_system.c ****         Referee_Robot_State.Power_Buffer = Referee_System.Power_Heat.Chassis_Power_Buffer;
  33:control-base/devices/src/referee_system.c ****         Referee_Robot_State.Shooter_Heat_1 = Referee_System.Power_Heat.Shooter_1_17mm_Heat;
  34:control-base/devices/src/referee_system.c ****         Referee_Robot_State.Shooter_Heat_2 = Referee_System.Power_Heat.Shooter_2_17mm_Heat;
  35:control-base/devices/src/referee_system.c ****         Referee_Robot_State.Shooting_Frequency = Referee_System.Shooter.Frequency;
  36:control-base/devices/src/referee_system.c ****         Referee_Robot_State.Shooting_Speed = Referee_System.Shooter.Speed;
  37:control-base/devices/src/referee_system.c ****         Referee_Robot_State.Shooter_Power_Output = Referee_System.Robot_State.Shooter_Power_Output;
  38:control-base/devices/src/referee_system.c ****     }
  39:control-base/devices/src/referee_system.c ****     else
  40:control-base/devices/src/referee_system.c ****     {
  41:control-base/devices/src/referee_system.c ****         #ifdef ROBOT_TYPE_STANDARD
  42:control-base/devices/src/referee_system.c ****             Referee_Robot_State.Cooling_Rate = DEFAULT_STANDARD_COOLING_RATE+(Referee_Robot_State.M
  43:control-base/devices/src/referee_system.c ****             Referee_Robot_State.Heat_Max = DEFAULT_STANDARD_HEAT_MAX+(Referee_Robot_State.Manual_Le
  44:control-base/devices/src/referee_system.c ****             Referee_Robot_State.Launch_Speed_Max = DEFAULT_STANDARD_LAUNCH_SPEED_MAX;
  45:control-base/devices/src/referee_system.c ****             Referee_Robot_State.Chassis_Power = (DEFAULT_STANDARD_POWER_MAX-10)+(Referee_Robot_Stat
  46:control-base/devices/src/referee_system.c ****             Referee_Robot_State.Chassis_Power_Max = DEFAULT_STANDARD_POWER_MAX+(Referee_Robot_State
  47:control-base/devices/src/referee_system.c ****         #endif
  48:control-base/devices/src/referee_system.c **** 
  49:control-base/devices/src/referee_system.c ****         #ifdef ROBOT_TYPE_HERO
  50:control-base/devices/src/referee_system.c ****             Referee_Robot_State.Cooling_Rate = DEFAULT_HERO_COOLING_RATE+(Referee_Robot_State.Manua
  51:control-base/devices/src/referee_system.c ****             Referee_Robot_State.Heat_Max = DEFAULT_HERO_HEAT_MAX+(Referee_Robot_State.Manual_Level-
  52:control-base/devices/src/referee_system.c ****             Referee_Robot_State.Launch_Speed_Max = DEFAULT_HERO_LAUNCH_SPEED_MAX;
  53:control-base/devices/src/referee_system.c ****             Referee_Robot_State.Chassis_Power_Max = DEFAULT_HERO_POWER_MAX+(Referee_Robot_State.Man
  54:control-base/devices/src/referee_system.c ****         #endif
  55:control-base/devices/src/referee_system.c **** 
  56:control-base/devices/src/referee_system.c ****         #ifdef ROBOT_TYPE_SENTRY
  57:control-base/devices/src/referee_system.c ****             Referee_Robot_State.Cooling_Rate = DEFAULT_SENTRY_COOLING_RATE;
  58:control-base/devices/src/referee_system.c ****             Referee_Robot_State.Heat_Max = DEFAULT_SENTRY_HEAT_MAX;
  59:control-base/devices/src/referee_system.c ****             Referee_Robot_State.Launch_Speed_Max = DEFAULT_SENTRY_LAUNCH_SPEED_MAX;
  60:control-base/devices/src/referee_system.c ****             Referee_Robot_State.Chassis_Power_Max = DEFAULT_SENTRY_POWER_MAX;
  61:control-base/devices/src/referee_system.c ****         #endif
  62:control-base/devices/src/referee_system.c ****     }
  63:control-base/devices/src/referee_system.c **** }
  64:control-base/devices/src/referee_system.c **** void Referee_System_Timeout_Callback()
  65:control-base/devices/src/referee_system.c **** {
  29              		.loc 1 65 1 view -0
  30              		.cfi_startproc
  31              		@ args = 0, pretend = 0, frame = 0
  32              		@ frame_needed = 0, uses_anonymous_args = 0
  33 0000 08B5     		push	{r3, lr}
  34              	.LCFI0:
  35              		.cfi_def_cfa_offset 8
  36              		.cfi_offset 3, -8
  37              		.cfi_offset 14, -4
  66:control-base/devices/src/referee_system.c **** 	// Attemp to reinitialize UART service
  67:control-base/devices/src/referee_system.c **** 	UART_Service_Init(g_referee_uart_instance_ptr);
  38              		.loc 1 67 2 view .LVU1
  39 0002 044B     		ldr	r3, .L3
  40 0004 1868     		ldr	r0, [r3]
  41 0006 FFF7FEFF 		bl	UART_Service_Init
  42              	.LVL0:
  68:control-base/devices/src/referee_system.c ****     Referee_System.Online_Flag = 0;
  43              		.loc 1 68 5 view .LVU2
  44              		.loc 1 68 32 is_stmt 0 view .LVU3
  45 000a 034B     		ldr	r3, .L3+4
  46 000c 0022     		movs	r2, #0
  47 000e 83F89821 		strb	r2, [r3, #408]
ARM GAS  /var/folders/sg/pxk9dyzj7jz_x3889hx3b3dw0000gn/T//ccQYcrNL.s 			page 3


  69:control-base/devices/src/referee_system.c **** }
  48              		.loc 1 69 1 view .LVU4
  49 0012 08BD     		pop	{r3, pc}
  50              	.L4:
  51              		.align	2
  52              	.L3:
  53 0014 00000000 		.word	g_referee_uart_instance_ptr
  54 0018 00000000 		.word	Referee_System
  55              		.cfi_endproc
  56              	.LFE143:
  58              		.section	.text.Referee_Get_Data,"ax",%progbits
  59              		.align	1
  60              		.global	Referee_Get_Data
  61              		.syntax unified
  62              		.thumb
  63              		.thumb_func
  65              	Referee_Get_Data:
  66              	.LVL1:
  67              	.LFB145:
  70:control-base/devices/src/referee_system.c **** 
  71:control-base/devices/src/referee_system.c **** void Referee_System_Init(UART_HandleTypeDef *huart)
  72:control-base/devices/src/referee_system.c **** {
  73:control-base/devices/src/referee_system.c ****     Referee_System.huart = huart;
  74:control-base/devices/src/referee_system.c ****     Referee_Robot_State.Manual_Level = 1;
  75:control-base/devices/src/referee_system.c **** 
  76:control-base/devices/src/referee_system.c ****     g_referee_uart_instance_ptr = UART_Register(huart, Referee_System.Buffer, REFEREE_BUFFER_LEN, R
  77:control-base/devices/src/referee_system.c **** 	
  78:control-base/devices/src/referee_system.c **** 	// register Daemon instance
  79:control-base/devices/src/referee_system.c **** 	// timeout is defined in the header file
  80:control-base/devices/src/referee_system.c **** 	uint16_t reload_value = REFEREE_TIMEOUT_MS / DAEMON_PERIOD;
  81:control-base/devices/src/referee_system.c **** 	uint16_t initial_counter = reload_value;
  82:control-base/devices/src/referee_system.c **** 	g_referee_daemon_instance_ptr = Daemon_Register(reload_value, initial_counter, Referee_System_Time
  83:control-base/devices/src/referee_system.c **** }
  84:control-base/devices/src/referee_system.c **** 
  85:control-base/devices/src/referee_system.c **** // Get referee system data based on ID
  86:control-base/devices/src/referee_system.c **** void Referee_Get_Data(UART_Instance_t *uart_instance)
  87:control-base/devices/src/referee_system.c **** {
  68              		.loc 1 87 1 is_stmt 1 view -0
  69              		.cfi_startproc
  70              		@ args = 0, pretend = 0, frame = 0
  71              		@ frame_needed = 0, uses_anonymous_args = 0
  72              		.loc 1 87 1 is_stmt 0 view .LVU6
  73 0000 38B5     		push	{r3, r4, r5, lr}
  74              	.LCFI1:
  75              		.cfi_def_cfa_offset 16
  76              		.cfi_offset 3, -16
  77              		.cfi_offset 4, -12
  78              		.cfi_offset 5, -8
  79              		.cfi_offset 14, -4
  88:control-base/devices/src/referee_system.c ****     UNUSED(uart_instance);
  80              		.loc 1 88 5 is_stmt 1 view .LVU7
  89:control-base/devices/src/referee_system.c ****     for (int n = 0; n < REFEREE_BUFFER_LEN;)
  81              		.loc 1 89 5 view .LVU8
  82              	.LBB2:
  83              		.loc 1 89 10 view .LVU9
  84              	.LVL2:
  85              		.loc 1 89 14 is_stmt 0 view .LVU10
ARM GAS  /var/folders/sg/pxk9dyzj7jz_x3889hx3b3dw0000gn/T//ccQYcrNL.s 			page 4


  86 0002 0024     		movs	r4, #0
  87              	.LVL3:
  88              	.L6:
  89              		.loc 1 89 23 is_stmt 1 discriminator 1 view .LVU11
  90 0004 2546     		mov	r5, r4
  91 0006 B4F5887F 		cmp	r4, #272
  92 000a 00F2D181 		bhi	.L51
  90:control-base/devices/src/referee_system.c ****     {
  91:control-base/devices/src/referee_system.c ****         if (Referee_System.Buffer[n] == REFEREE_FRAME_HEADER_START)
  93              		.loc 1 91 9 view .LVU12
  94              		.loc 1 91 34 is_stmt 0 view .LVU13
  95 000e B84B     		ldr	r3, .L56
  96 0010 2344     		add	r3, r3, r4
  97 0012 9B79     		ldrb	r3, [r3, #6]	@ zero_extendqisi2
  98              		.loc 1 91 12 view .LVU14
  99 0014 A52B     		cmp	r3, #165
 100 0016 01D0     		beq	.L52
  92:control-base/devices/src/referee_system.c ****         {
  93:control-base/devices/src/referee_system.c ****             Daemon_Reload(g_referee_daemon_instance_ptr);
  94:control-base/devices/src/referee_system.c ****             Referee_System.Online_Flag = 1;
  95:control-base/devices/src/referee_system.c ****             Referee_System.Info_Update_Frame++;
  96:control-base/devices/src/referee_system.c ****             if(Referee_System.Info_Update_Frame > 100)
  97:control-base/devices/src/referee_system.c ****                 Referee_System.Info_Update_Frame = 0;
  98:control-base/devices/src/referee_system.c **** 
  99:control-base/devices/src/referee_system.c ****             switch (Referee_System.Buffer[n + 5] | Referee_System.Buffer[n + 6] << 8)
 100:control-base/devices/src/referee_system.c ****             {
 101:control-base/devices/src/referee_system.c ****             case REFEREE_GAME_STATUS:
 102:control-base/devices/src/referee_system.c ****                 if (Verify_CRC16_Check_Sum(Referee_System.Buffer + n, REFEREE_GAME_STATUS_LEN))
 103:control-base/devices/src/referee_system.c ****                 {
 104:control-base/devices/src/referee_system.c ****                     memcpy(&Referee_System.Game_Status, &Referee_System.Buffer[n + 7], sizeof(uint8
 105:control-base/devices/src/referee_system.c ****                     n += REFEREE_GAME_STATUS_LEN;
 106:control-base/devices/src/referee_system.c ****                 }
 107:control-base/devices/src/referee_system.c ****                 else
 108:control-base/devices/src/referee_system.c ****                     n++;
 109:control-base/devices/src/referee_system.c ****                 break;
 110:control-base/devices/src/referee_system.c ****             case REFEREE_GAME_RESULT:
 111:control-base/devices/src/referee_system.c ****                 if (Verify_CRC16_Check_Sum(Referee_System.Buffer + n, REFEREE_GAME_RESULT_LEN))
 112:control-base/devices/src/referee_system.c ****                 {
 113:control-base/devices/src/referee_system.c ****                     memcpy(&Referee_System.Game_Result, &Referee_System.Buffer[n + 7], sizeof(uint8
 114:control-base/devices/src/referee_system.c ****                     n += REFEREE_GAME_RESULT_LEN;
 115:control-base/devices/src/referee_system.c ****                 }
 116:control-base/devices/src/referee_system.c ****                 else
 117:control-base/devices/src/referee_system.c ****                     n++;
 118:control-base/devices/src/referee_system.c ****                 break;
 119:control-base/devices/src/referee_system.c ****             case REFEREE_ROBOT_HP:
 120:control-base/devices/src/referee_system.c ****                 if (Verify_CRC16_Check_Sum(Referee_System.Buffer + n, REFEREE_ROBOT_HP_LEN))
 121:control-base/devices/src/referee_system.c ****                 {
 122:control-base/devices/src/referee_system.c ****                     memcpy(&Referee_System.Alive_Robot, &Referee_System.Buffer[n + 7], sizeof(uint8
 123:control-base/devices/src/referee_system.c ****                     n += REFEREE_ROBOT_HP_LEN;
 124:control-base/devices/src/referee_system.c ****                 }
 125:control-base/devices/src/referee_system.c ****                 else
 126:control-base/devices/src/referee_system.c ****                     n++;
 127:control-base/devices/src/referee_system.c ****                 break;
 128:control-base/devices/src/referee_system.c ****             case REFEREE_EVENT_DATA:
 129:control-base/devices/src/referee_system.c ****                 if (Verify_CRC16_Check_Sum(Referee_System.Buffer + n, REFEREE_EVENT_DATA_LEN))
 130:control-base/devices/src/referee_system.c ****                 {
 131:control-base/devices/src/referee_system.c ****                     memcpy(&Referee_System.Event, &Referee_System.Buffer[n + 7], sizeof(uint8_t[REF
ARM GAS  /var/folders/sg/pxk9dyzj7jz_x3889hx3b3dw0000gn/T//ccQYcrNL.s 			page 5


 132:control-base/devices/src/referee_system.c ****                     n += REFEREE_EVENT_DATA_LEN;
 133:control-base/devices/src/referee_system.c ****                 }
 134:control-base/devices/src/referee_system.c ****                 else
 135:control-base/devices/src/referee_system.c ****                     n++;
 136:control-base/devices/src/referee_system.c ****                 break;
 137:control-base/devices/src/referee_system.c **** 			case REFEREE_SUPPLY_STATION:
 138:control-base/devices/src/referee_system.c ****                 if (Verify_CRC16_Check_Sum(Referee_System.Buffer + n, REFEREE_SUPPLY_STATION_LEN))
 139:control-base/devices/src/referee_system.c ****                 {
 140:control-base/devices/src/referee_system.c ****                     memcpy(&Referee_System.Supply_Station, &Referee_System.Buffer[n + 7], sizeof(ui
 141:control-base/devices/src/referee_system.c ****                     n += REFEREE_SUPPLY_STATION_LEN;
 142:control-base/devices/src/referee_system.c ****                 }
 143:control-base/devices/src/referee_system.c ****                 else
 144:control-base/devices/src/referee_system.c ****                     n++;
 145:control-base/devices/src/referee_system.c ****                 break;
 146:control-base/devices/src/referee_system.c ****             case REFEREE_REFEREE_WARNING:
 147:control-base/devices/src/referee_system.c ****                 if (Verify_CRC16_Check_Sum(Referee_System.Buffer + n, REFEREE_REFEREE_WARNING_LEN))
 148:control-base/devices/src/referee_system.c ****                 {
 149:control-base/devices/src/referee_system.c ****                     memcpy(&Referee_System.Warning, &Referee_System.Buffer[n + 7], sizeof(uint8_t[R
 150:control-base/devices/src/referee_system.c ****                     n += REFEREE_REFEREE_WARNING_LEN;
 151:control-base/devices/src/referee_system.c ****                 }
 152:control-base/devices/src/referee_system.c ****                 else
 153:control-base/devices/src/referee_system.c ****                     n++;
 154:control-base/devices/src/referee_system.c ****                 break;
 155:control-base/devices/src/referee_system.c **** 		    case REFEREE_DART_DATA:
 156:control-base/devices/src/referee_system.c ****                 if (Verify_CRC16_Check_Sum(Referee_System.Buffer + n, REFEREE_DART_DATA_LEN))
 157:control-base/devices/src/referee_system.c ****                 {
 158:control-base/devices/src/referee_system.c ****                     memcpy(&Referee_System.Dart_Info, &Referee_System.Buffer[n + 7], sizeof(uint8_t
 159:control-base/devices/src/referee_system.c ****                     n += REFEREE_DART_DATA_LEN;
 160:control-base/devices/src/referee_system.c ****                 }
 161:control-base/devices/src/referee_system.c ****                 else
 162:control-base/devices/src/referee_system.c ****                     n++;
 163:control-base/devices/src/referee_system.c ****                 break;
 164:control-base/devices/src/referee_system.c ****             case REFEREE_ROBOT_STATE:
 165:control-base/devices/src/referee_system.c ****                 if (Verify_CRC16_Check_Sum(Referee_System.Buffer + n, REFEREE_ROBOT_STATE_LEN))
 166:control-base/devices/src/referee_system.c ****                 {
 167:control-base/devices/src/referee_system.c ****                     memcpy(&Referee_System.Robot_State, &Referee_System.Buffer[n + 7], sizeof(uint8
 168:control-base/devices/src/referee_system.c ****                     n += REFEREE_ROBOT_STATE_LEN;
 169:control-base/devices/src/referee_system.c ****                 }
 170:control-base/devices/src/referee_system.c ****                 else
 171:control-base/devices/src/referee_system.c ****                     n++;
 172:control-base/devices/src/referee_system.c ****                 break;
 173:control-base/devices/src/referee_system.c ****             case REFEREE_POWER_HEAT:
 174:control-base/devices/src/referee_system.c ****                 if (Verify_CRC16_Check_Sum(Referee_System.Buffer + n, REFEREE_POWER_HEAT_LEN))
 175:control-base/devices/src/referee_system.c ****                 {
 176:control-base/devices/src/referee_system.c ****                     memcpy(&Referee_System.Power_Heat, &Referee_System.Buffer[n + 7], sizeof(uint8_
 177:control-base/devices/src/referee_system.c ****                     n += REFEREE_POWER_HEAT_LEN;
 178:control-base/devices/src/referee_system.c ****                 }
 179:control-base/devices/src/referee_system.c ****                 else
 180:control-base/devices/src/referee_system.c ****                     n++;
 181:control-base/devices/src/referee_system.c ****                 break;
 182:control-base/devices/src/referee_system.c ****             case REFEREE_ROBOT_POSITION:
 183:control-base/devices/src/referee_system.c ****                 if (Verify_CRC16_Check_Sum(Referee_System.Buffer + n, REFEREE_ROBOT_POSITION_LEN))
 184:control-base/devices/src/referee_system.c ****                 {
 185:control-base/devices/src/referee_system.c ****                     memcpy(&Referee_System.Robot_Pos, &Referee_System.Buffer[n + 7], sizeof(uint8_t
 186:control-base/devices/src/referee_system.c ****                     n += REFEREE_ROBOT_POSITION_LEN;
 187:control-base/devices/src/referee_system.c ****                 }
 188:control-base/devices/src/referee_system.c ****                 else
ARM GAS  /var/folders/sg/pxk9dyzj7jz_x3889hx3b3dw0000gn/T//ccQYcrNL.s 			page 6


 189:control-base/devices/src/referee_system.c ****                     n++;
 190:control-base/devices/src/referee_system.c ****                 break;
 191:control-base/devices/src/referee_system.c ****             case REFEREE_ROBOT_BUFF:
 192:control-base/devices/src/referee_system.c ****                 if (Verify_CRC16_Check_Sum(Referee_System.Buffer + n, REFEREE_ROBOT_BUFF_LEN))
 193:control-base/devices/src/referee_system.c ****                 {
 194:control-base/devices/src/referee_system.c ****                     memcpy(&Referee_System.Robot_Buff, &Referee_System.Buffer[n + 7], sizeof(uint8_
 195:control-base/devices/src/referee_system.c ****                     n += REFEREE_ROBOT_BUFF_LEN;
 196:control-base/devices/src/referee_system.c ****                 }
 197:control-base/devices/src/referee_system.c ****                 else
 198:control-base/devices/src/referee_system.c ****                     n++;
 199:control-base/devices/src/referee_system.c ****                 break;
 200:control-base/devices/src/referee_system.c **** 			case REFEREE_AERIAL_DATA:
 201:control-base/devices/src/referee_system.c ****                 if (Verify_CRC16_Check_Sum(Referee_System.Buffer + n, REFEREE_AERIAL_DATA_LEN))
 202:control-base/devices/src/referee_system.c ****                 {
 203:control-base/devices/src/referee_system.c ****                     memcpy(&Referee_System.Aerial_Data, &Referee_System.Buffer[n + 7], sizeof(uint8
 204:control-base/devices/src/referee_system.c ****                     n += REFEREE_AERIAL_DATA_LEN;
 205:control-base/devices/src/referee_system.c ****                 }
 206:control-base/devices/src/referee_system.c ****                 else
 207:control-base/devices/src/referee_system.c ****                     n++;
 208:control-base/devices/src/referee_system.c ****                 break;
 209:control-base/devices/src/referee_system.c ****             case REFEREE_INJURY_STATE:
 210:control-base/devices/src/referee_system.c ****                 if (Verify_CRC16_Check_Sum(Referee_System.Buffer + n, REFEREE_INJURY_STATE_LEN))
 211:control-base/devices/src/referee_system.c ****                 {
 212:control-base/devices/src/referee_system.c ****                     memcpy(&Referee_System.Injury_State, &Referee_System.Buffer[n + 7], sizeof(uint
 213:control-base/devices/src/referee_system.c ****                     n += REFEREE_INJURY_STATE_LEN;
 214:control-base/devices/src/referee_system.c ****                 }
 215:control-base/devices/src/referee_system.c ****                 else
 216:control-base/devices/src/referee_system.c ****                     n++;
 217:control-base/devices/src/referee_system.c ****                 break;
 218:control-base/devices/src/referee_system.c ****             case REFEREE_SHOOTER_STATE:
 219:control-base/devices/src/referee_system.c ****                 if (Verify_CRC16_Check_Sum(Referee_System.Buffer + n, REFEREE_SHOOTER_STATE_LEN))
 220:control-base/devices/src/referee_system.c ****                 {
 221:control-base/devices/src/referee_system.c ****                     memcpy(&Referee_System.Shooter, &Referee_System.Buffer[n + 7], sizeof(uint8_t[R
 222:control-base/devices/src/referee_system.c ****                     n += REFEREE_SHOOTER_STATE_LEN;
 223:control-base/devices/src/referee_system.c ****                 }
 224:control-base/devices/src/referee_system.c ****                 else
 225:control-base/devices/src/referee_system.c ****                     n++;
 226:control-base/devices/src/referee_system.c ****                 break;
 227:control-base/devices/src/referee_system.c ****             case REFEREE_REMAINING_AMMO:
 228:control-base/devices/src/referee_system.c ****                 if (Verify_CRC16_Check_Sum(Referee_System.Buffer + n, REFEREE_REMAINING_AMMO_LEN))
 229:control-base/devices/src/referee_system.c ****                 {
 230:control-base/devices/src/referee_system.c ****                     memcpy(&Referee_System.Remaining_Ammo, &Referee_System.Buffer[n + 7], sizeof(ui
 231:control-base/devices/src/referee_system.c ****                     n += REFEREE_REMAINING_AMMO_LEN;
 232:control-base/devices/src/referee_system.c ****                 }
 233:control-base/devices/src/referee_system.c ****                 else
 234:control-base/devices/src/referee_system.c ****                     n++;
 235:control-base/devices/src/referee_system.c ****                 break;
 236:control-base/devices/src/referee_system.c ****             case REFEREE_ROBOT_RFID:
 237:control-base/devices/src/referee_system.c ****                 if (Verify_CRC16_Check_Sum(Referee_System.Buffer + n, REFEREE_ROBOT_RFID_LEN))
 238:control-base/devices/src/referee_system.c ****                 {
 239:control-base/devices/src/referee_system.c ****                     memcpy(&Referee_System.RFID, &Referee_System.Buffer[n + 7], sizeof(uint8_t[REFE
 240:control-base/devices/src/referee_system.c ****                     Referee_System.RFID.base_buffer_zone = (Referee_System.RFID.State >> REFEREE_BA
 241:control-base/devices/src/referee_system.c ****                     Referee_System.RFID.resupply_zone = (Referee_System.RFID.State >> REFEREE_RESUP
 242:control-base/devices/src/referee_system.c ****                     Referee_System.RFID.center_zone = (Referee_System.RFID.State >> REFEREE_CENTER_
 243:control-base/devices/src/referee_system.c ****                     n += REFEREE_ROBOT_RFID_LEN;
 244:control-base/devices/src/referee_system.c ****                 }
 245:control-base/devices/src/referee_system.c ****                 else
ARM GAS  /var/folders/sg/pxk9dyzj7jz_x3889hx3b3dw0000gn/T//ccQYcrNL.s 			page 7


 246:control-base/devices/src/referee_system.c ****                     n++;
 247:control-base/devices/src/referee_system.c ****                 break;
 248:control-base/devices/src/referee_system.c ****             default:
 249:control-base/devices/src/referee_system.c ****                 n++;
 250:control-base/devices/src/referee_system.c ****                 break;
 251:control-base/devices/src/referee_system.c ****             }
 252:control-base/devices/src/referee_system.c ****         }
 253:control-base/devices/src/referee_system.c ****         else
 254:control-base/devices/src/referee_system.c ****             n++;
 101              		.loc 1 254 13 is_stmt 1 view .LVU15
 102              		.loc 1 254 14 is_stmt 0 view .LVU16
 103 0018 0134     		adds	r4, r4, #1
 104              	.LVL4:
 105              		.loc 1 254 14 view .LVU17
 106 001a F3E7     		b	.L6
 107              	.LVL5:
 108              	.L52:
  93:control-base/devices/src/referee_system.c ****             Referee_System.Online_Flag = 1;
 109              		.loc 1 93 13 is_stmt 1 view .LVU18
 110 001c B54B     		ldr	r3, .L56+4
 111 001e 1868     		ldr	r0, [r3]
 112 0020 FFF7FEFF 		bl	Daemon_Reload
 113              	.LVL6:
  94:control-base/devices/src/referee_system.c ****             Referee_System.Info_Update_Frame++;
 114              		.loc 1 94 13 view .LVU19
  94:control-base/devices/src/referee_system.c ****             Referee_System.Info_Update_Frame++;
 115              		.loc 1 94 40 is_stmt 0 view .LVU20
 116 0024 B24A     		ldr	r2, .L56
 117 0026 0123     		movs	r3, #1
 118 0028 82F89831 		strb	r3, [r2, #408]
  95:control-base/devices/src/referee_system.c ****             if(Referee_System.Info_Update_Frame > 100)
 119              		.loc 1 95 13 is_stmt 1 view .LVU21
  95:control-base/devices/src/referee_system.c ****             if(Referee_System.Info_Update_Frame > 100)
 120              		.loc 1 95 27 is_stmt 0 view .LVU22
 121 002c 92F89731 		ldrb	r3, [r2, #407]	@ zero_extendqisi2
  95:control-base/devices/src/referee_system.c ****             if(Referee_System.Info_Update_Frame > 100)
 122              		.loc 1 95 45 view .LVU23
 123 0030 0133     		adds	r3, r3, #1
 124 0032 DBB2     		uxtb	r3, r3
 125 0034 82F89731 		strb	r3, [r2, #407]
  96:control-base/devices/src/referee_system.c ****                 Referee_System.Info_Update_Frame = 0;
 126              		.loc 1 96 13 is_stmt 1 view .LVU24
  96:control-base/devices/src/referee_system.c ****                 Referee_System.Info_Update_Frame = 0;
 127              		.loc 1 96 15 is_stmt 0 view .LVU25
 128 0038 642B     		cmp	r3, #100
 129 003a 03D9     		bls	.L8
  97:control-base/devices/src/referee_system.c **** 
 130              		.loc 1 97 17 is_stmt 1 view .LVU26
  97:control-base/devices/src/referee_system.c **** 
 131              		.loc 1 97 50 is_stmt 0 view .LVU27
 132 003c 1346     		mov	r3, r2
 133 003e 0022     		movs	r2, #0
 134 0040 83F89721 		strb	r2, [r3, #407]
 135              	.L8:
  99:control-base/devices/src/referee_system.c ****             {
 136              		.loc 1 99 13 is_stmt 1 view .LVU28
  99:control-base/devices/src/referee_system.c ****             {
ARM GAS  /var/folders/sg/pxk9dyzj7jz_x3889hx3b3dw0000gn/T//ccQYcrNL.s 			page 8


 137              		.loc 1 99 45 is_stmt 0 view .LVU29
 138 0044 631D     		adds	r3, r4, #5
  99:control-base/devices/src/referee_system.c ****             {
 139              		.loc 1 99 42 view .LVU30
 140 0046 AA4A     		ldr	r2, .L56
 141 0048 1344     		add	r3, r3, r2
 142 004a 9B79     		ldrb	r3, [r3, #6]	@ zero_extendqisi2
  99:control-base/devices/src/referee_system.c ****             {
 143              		.loc 1 99 76 view .LVU31
 144 004c A11D     		adds	r1, r4, #6
  99:control-base/devices/src/referee_system.c ****             {
 145              		.loc 1 99 73 view .LVU32
 146 004e 0A44     		add	r2, r2, r1
 147 0050 9279     		ldrb	r2, [r2, #6]	@ zero_extendqisi2
  99:control-base/devices/src/referee_system.c ****             {
 148              		.loc 1 99 50 view .LVU33
 149 0052 43EA0223 		orr	r3, r3, r2, lsl #8
  99:control-base/devices/src/referee_system.c ****             {
 150              		.loc 1 99 13 view .LVU34
 151 0056 40F20922 		movw	r2, #521
 152 005a 9342     		cmp	r3, r2
 153 005c 00F3A681 		bgt	.L9
 154 0060 B3F5007F 		cmp	r3, #512
 155 0064 0FDD     		ble	.L53
 156 0066 A3F20123 		subw	r3, r3, #513
 157 006a 082B     		cmp	r3, #8
 158 006c 00F29E81 		bhi	.L9
 159 0070 DFE813F0 		tbh	[pc, r3, lsl #1]
 160              	.L16:
 161 0074 C300     		.2byte	(.L24-.L16)/2
 162 0076 DF00     		.2byte	(.L23-.L16)/2
 163 0078 FC00     		.2byte	(.L22-.L16)/2
 164 007a 1901     		.2byte	(.L21-.L16)/2
 165 007c 2D01     		.2byte	(.L20-.L16)/2
 166 007e 4401     		.2byte	(.L19-.L16)/2
 167 0080 5401     		.2byte	(.L18-.L16)/2
 168 0082 6B01     		.2byte	(.L17-.L16)/2
 169 0084 7F01     		.2byte	(.L15-.L16)/2
 170              		.p2align 1
 171              	.L53:
 172 0086 B3F5837F 		cmp	r3, #262
 173 008a 80F28F81 		bge	.L9
 174 008e B3F5807F 		cmp	r3, #256
 175 0092 0BDD     		ble	.L54
 176 0094 A3F20113 		subw	r3, r3, #257
 177 0098 042B     		cmp	r3, #4
 178 009a 00F28781 		bhi	.L9
 179 009e DFE813F0 		tbh	[pc, r3, lsl #1]
 180              	.L26:
 181 00a2 6400     		.2byte	(.L29-.L26)/2
 182 00a4 7500     		.2byte	(.L28-.L26)/2
 183 00a6 8501     		.2byte	(.L9-.L26)/2
 184 00a8 8600     		.2byte	(.L27-.L26)/2
 185 00aa 9900     		.2byte	(.L25-.L26)/2
 186              		.p2align 1
 187              	.L54:
 188 00ac 022B     		cmp	r3, #2
ARM GAS  /var/folders/sg/pxk9dyzj7jz_x3889hx3b3dw0000gn/T//ccQYcrNL.s 			page 9


 189 00ae 1FD0     		beq	.L12
 190 00b0 032B     		cmp	r3, #3
 191 00b2 2DD0     		beq	.L13
 192 00b4 012B     		cmp	r3, #1
 193 00b6 40F07981 		bne	.L9
 102:control-base/devices/src/referee_system.c ****                 {
 194              		.loc 1 102 17 is_stmt 1 view .LVU35
 102:control-base/devices/src/referee_system.c ****                 {
 195              		.loc 1 102 21 is_stmt 0 view .LVU36
 196 00ba 1421     		movs	r1, #20
 197 00bc 8E48     		ldr	r0, .L56+8
 198 00be 2844     		add	r0, r0, r5
 199 00c0 FFF7FEFF 		bl	Verify_CRC16_Check_Sum
 200              	.LVL7:
 102:control-base/devices/src/referee_system.c ****                 {
 201              		.loc 1 102 20 discriminator 1 view .LVU37
 202 00c4 90B1     		cbz	r0, .L30
 104:control-base/devices/src/referee_system.c ****                     n += REFEREE_GAME_STATUS_LEN;
 203              		.loc 1 104 21 is_stmt 1 view .LVU38
 104:control-base/devices/src/referee_system.c ****                     n += REFEREE_GAME_STATUS_LEN;
 204              		.loc 1 104 82 is_stmt 0 view .LVU39
 205 00c6 E31D     		adds	r3, r4, #7
 104:control-base/devices/src/referee_system.c ****                     n += REFEREE_GAME_STATUS_LEN;
 206              		.loc 1 104 57 view .LVU40
 207 00c8 894A     		ldr	r2, .L56
 208 00ca 1344     		add	r3, r3, r2
 104:control-base/devices/src/referee_system.c ****                     n += REFEREE_GAME_STATUS_LEN;
 209              		.loc 1 104 21 view .LVU41
 210 00cc D3F80600 		ldr	r0, [r3, #6]	@ unaligned
 211 00d0 D3F80A10 		ldr	r1, [r3, #10]	@ unaligned
 212 00d4 C2F81701 		str	r0, [r2, #279]	@ unaligned
 213 00d8 C2F81B11 		str	r1, [r2, #283]	@ unaligned
 214 00dc D989     		ldrh	r1, [r3, #14]	@ unaligned
 215 00de 1B7C     		ldrb	r3, [r3, #16]	@ zero_extendqisi2
 216 00e0 A2F81F11 		strh	r1, [r2, #287]	@ unaligned
 217 00e4 82F82131 		strb	r3, [r2, #289]
 105:control-base/devices/src/referee_system.c ****                 }
 218              		.loc 1 105 21 is_stmt 1 view .LVU42
 105:control-base/devices/src/referee_system.c ****                 }
 219              		.loc 1 105 23 is_stmt 0 view .LVU43
 220 00e8 1434     		adds	r4, r4, #20
 221              	.LVL8:
 105:control-base/devices/src/referee_system.c ****                 }
 222              		.loc 1 105 23 view .LVU44
 223 00ea 8BE7     		b	.L6
 224              	.L30:
 108:control-base/devices/src/referee_system.c ****                 break;
 225              		.loc 1 108 21 is_stmt 1 view .LVU45
 108:control-base/devices/src/referee_system.c ****                 break;
 226              		.loc 1 108 22 is_stmt 0 view .LVU46
 227 00ec 0134     		adds	r4, r4, #1
 228              	.LVL9:
 108:control-base/devices/src/referee_system.c ****                 break;
 229              		.loc 1 108 22 view .LVU47
 230 00ee 89E7     		b	.L6
 231              	.L12:
 111:control-base/devices/src/referee_system.c ****                 {
ARM GAS  /var/folders/sg/pxk9dyzj7jz_x3889hx3b3dw0000gn/T//ccQYcrNL.s 			page 10


 232              		.loc 1 111 17 is_stmt 1 view .LVU48
 111:control-base/devices/src/referee_system.c ****                 {
 233              		.loc 1 111 21 is_stmt 0 view .LVU49
 234 00f0 0A21     		movs	r1, #10
 235 00f2 8148     		ldr	r0, .L56+8
 236 00f4 2844     		add	r0, r0, r5
 237 00f6 FFF7FEFF 		bl	Verify_CRC16_Check_Sum
 238              	.LVL10:
 111:control-base/devices/src/referee_system.c ****                 {
 239              		.loc 1 111 20 discriminator 1 view .LVU50
 240 00fa 38B1     		cbz	r0, .L32
 113:control-base/devices/src/referee_system.c ****                     n += REFEREE_GAME_RESULT_LEN;
 241              		.loc 1 113 21 is_stmt 1 view .LVU51
 113:control-base/devices/src/referee_system.c ****                     n += REFEREE_GAME_RESULT_LEN;
 242              		.loc 1 113 82 is_stmt 0 view .LVU52
 243 00fc E31D     		adds	r3, r4, #7
 113:control-base/devices/src/referee_system.c ****                     n += REFEREE_GAME_RESULT_LEN;
 244              		.loc 1 113 21 view .LVU53
 245 00fe 7C4A     		ldr	r2, .L56
 246 0100 1344     		add	r3, r3, r2
 247 0102 9B79     		ldrb	r3, [r3, #6]	@ zero_extendqisi2
 248 0104 82F82231 		strb	r3, [r2, #290]
 114:control-base/devices/src/referee_system.c ****                 }
 249              		.loc 1 114 21 is_stmt 1 view .LVU54
 114:control-base/devices/src/referee_system.c ****                 }
 250              		.loc 1 114 23 is_stmt 0 view .LVU55
 251 0108 0A34     		adds	r4, r4, #10
 252              	.LVL11:
 114:control-base/devices/src/referee_system.c ****                 }
 253              		.loc 1 114 23 view .LVU56
 254 010a 7BE7     		b	.L6
 255              	.L32:
 117:control-base/devices/src/referee_system.c ****                 break;
 256              		.loc 1 117 21 is_stmt 1 view .LVU57
 117:control-base/devices/src/referee_system.c ****                 break;
 257              		.loc 1 117 22 is_stmt 0 view .LVU58
 258 010c 0134     		adds	r4, r4, #1
 259              	.LVL12:
 117:control-base/devices/src/referee_system.c ****                 break;
 260              		.loc 1 117 22 view .LVU59
 261 010e 79E7     		b	.L6
 262              	.L13:
 120:control-base/devices/src/referee_system.c ****                 {
 263              		.loc 1 120 17 is_stmt 1 view .LVU60
 120:control-base/devices/src/referee_system.c ****                 {
 264              		.loc 1 120 21 is_stmt 0 view .LVU61
 265 0110 2921     		movs	r1, #41
 266 0112 7948     		ldr	r0, .L56+8
 267 0114 2844     		add	r0, r0, r5
 268 0116 FFF7FEFF 		bl	Verify_CRC16_Check_Sum
 269              	.LVL13:
 120:control-base/devices/src/referee_system.c ****                 {
 270              		.loc 1 120 20 discriminator 1 view .LVU62
 271 011a 20B3     		cbz	r0, .L33
 122:control-base/devices/src/referee_system.c ****                     n += REFEREE_ROBOT_HP_LEN;
 272              		.loc 1 122 21 is_stmt 1 view .LVU63
 122:control-base/devices/src/referee_system.c ****                     n += REFEREE_ROBOT_HP_LEN;
ARM GAS  /var/folders/sg/pxk9dyzj7jz_x3889hx3b3dw0000gn/T//ccQYcrNL.s 			page 11


 273              		.loc 1 122 82 is_stmt 0 view .LVU64
 274 011c E31D     		adds	r3, r4, #7
 122:control-base/devices/src/referee_system.c ****                     n += REFEREE_ROBOT_HP_LEN;
 275              		.loc 1 122 57 view .LVU65
 276 011e 744A     		ldr	r2, .L56
 277 0120 1344     		add	r3, r3, r2
 122:control-base/devices/src/referee_system.c ****                     n += REFEREE_ROBOT_HP_LEN;
 278              		.loc 1 122 21 view .LVU66
 279 0122 D3F806C0 		ldr	ip, [r3, #6]	@ unaligned
 280 0126 D3F80A50 		ldr	r5, [r3, #10]	@ unaligned
 281 012a D3F80E00 		ldr	r0, [r3, #14]	@ unaligned
 282 012e D3F81210 		ldr	r1, [r3, #18]	@ unaligned
 283 0132 C2F823C1 		str	ip, [r2, #291]	@ unaligned
 284 0136 C2F82751 		str	r5, [r2, #295]	@ unaligned
 285 013a C2F82B01 		str	r0, [r2, #299]	@ unaligned
 286 013e C2F82F11 		str	r1, [r2, #303]	@ unaligned
 287 0142 D3F816C0 		ldr	ip, [r3, #22]	@ unaligned
 288 0146 D3F81A50 		ldr	r5, [r3, #26]	@ unaligned
 289 014a D3F81E00 		ldr	r0, [r3, #30]	@ unaligned
 290 014e D3F82210 		ldr	r1, [r3, #34]	@ unaligned
 291 0152 C2F833C1 		str	ip, [r2, #307]	@ unaligned
 292 0156 C2F83751 		str	r5, [r2, #311]	@ unaligned
 293 015a C2F83B01 		str	r0, [r2, #315]	@ unaligned
 294 015e C2F83F11 		str	r1, [r2, #319]	@ unaligned
 123:control-base/devices/src/referee_system.c ****                 }
 295              		.loc 1 123 21 is_stmt 1 view .LVU67
 123:control-base/devices/src/referee_system.c ****                 }
 296              		.loc 1 123 23 is_stmt 0 view .LVU68
 297 0162 2934     		adds	r4, r4, #41
 298              	.LVL14:
 123:control-base/devices/src/referee_system.c ****                 }
 299              		.loc 1 123 23 view .LVU69
 300 0164 4EE7     		b	.L6
 301              	.L33:
 126:control-base/devices/src/referee_system.c ****                 break;
 302              		.loc 1 126 21 is_stmt 1 view .LVU70
 126:control-base/devices/src/referee_system.c ****                 break;
 303              		.loc 1 126 22 is_stmt 0 view .LVU71
 304 0166 0134     		adds	r4, r4, #1
 305              	.LVL15:
 126:control-base/devices/src/referee_system.c ****                 break;
 306              		.loc 1 126 22 view .LVU72
 307 0168 4CE7     		b	.L6
 308              	.L29:
 129:control-base/devices/src/referee_system.c ****                 {
 309              		.loc 1 129 17 is_stmt 1 view .LVU73
 129:control-base/devices/src/referee_system.c ****                 {
 310              		.loc 1 129 21 is_stmt 0 view .LVU74
 311 016a 0D21     		movs	r1, #13
 312 016c 6248     		ldr	r0, .L56+8
 313 016e 2844     		add	r0, r0, r5
 314 0170 FFF7FEFF 		bl	Verify_CRC16_Check_Sum
 315              	.LVL16:
 129:control-base/devices/src/referee_system.c ****                 {
 316              		.loc 1 129 20 discriminator 1 view .LVU75
 317 0174 40B1     		cbz	r0, .L34
 131:control-base/devices/src/referee_system.c ****                     n += REFEREE_EVENT_DATA_LEN;
ARM GAS  /var/folders/sg/pxk9dyzj7jz_x3889hx3b3dw0000gn/T//ccQYcrNL.s 			page 12


 318              		.loc 1 131 21 is_stmt 1 view .LVU76
 131:control-base/devices/src/referee_system.c ****                     n += REFEREE_EVENT_DATA_LEN;
 319              		.loc 1 131 76 is_stmt 0 view .LVU77
 320 0176 E31D     		adds	r3, r4, #7
 131:control-base/devices/src/referee_system.c ****                     n += REFEREE_EVENT_DATA_LEN;
 321              		.loc 1 131 51 view .LVU78
 322 0178 5D4A     		ldr	r2, .L56
 323 017a 1344     		add	r3, r3, r2
 131:control-base/devices/src/referee_system.c ****                     n += REFEREE_EVENT_DATA_LEN;
 324              		.loc 1 131 21 view .LVU79
 325 017c D3F80630 		ldr	r3, [r3, #6]	@ unaligned
 326 0180 C2F84331 		str	r3, [r2, #323]	@ unaligned
 132:control-base/devices/src/referee_system.c ****                 }
 327              		.loc 1 132 21 is_stmt 1 view .LVU80
 132:control-base/devices/src/referee_system.c ****                 }
 328              		.loc 1 132 23 is_stmt 0 view .LVU81
 329 0184 0D34     		adds	r4, r4, #13
 330              	.LVL17:
 132:control-base/devices/src/referee_system.c ****                 }
 331              		.loc 1 132 23 view .LVU82
 332 0186 3DE7     		b	.L6
 333              	.L34:
 135:control-base/devices/src/referee_system.c ****                 break;
 334              		.loc 1 135 21 is_stmt 1 view .LVU83
 135:control-base/devices/src/referee_system.c ****                 break;
 335              		.loc 1 135 22 is_stmt 0 view .LVU84
 336 0188 0134     		adds	r4, r4, #1
 337              	.LVL18:
 135:control-base/devices/src/referee_system.c ****                 break;
 338              		.loc 1 135 22 view .LVU85
 339 018a 3BE7     		b	.L6
 340              	.L28:
 138:control-base/devices/src/referee_system.c ****                 {
 341              		.loc 1 138 17 is_stmt 1 view .LVU86
 138:control-base/devices/src/referee_system.c ****                 {
 342              		.loc 1 138 21 is_stmt 0 view .LVU87
 343 018c 0D21     		movs	r1, #13
 344 018e 5A48     		ldr	r0, .L56+8
 345 0190 2844     		add	r0, r0, r5
 346 0192 FFF7FEFF 		bl	Verify_CRC16_Check_Sum
 347              	.LVL19:
 138:control-base/devices/src/referee_system.c ****                 {
 348              		.loc 1 138 20 discriminator 1 view .LVU88
 349 0196 40B1     		cbz	r0, .L35
 140:control-base/devices/src/referee_system.c ****                     n += REFEREE_SUPPLY_STATION_LEN;
 350              		.loc 1 140 21 is_stmt 1 view .LVU89
 140:control-base/devices/src/referee_system.c ****                     n += REFEREE_SUPPLY_STATION_LEN;
 351              		.loc 1 140 85 is_stmt 0 view .LVU90
 352 0198 E31D     		adds	r3, r4, #7
 140:control-base/devices/src/referee_system.c ****                     n += REFEREE_SUPPLY_STATION_LEN;
 353              		.loc 1 140 60 view .LVU91
 354 019a 554A     		ldr	r2, .L56
 355 019c 1344     		add	r3, r3, r2
 140:control-base/devices/src/referee_system.c ****                     n += REFEREE_SUPPLY_STATION_LEN;
 356              		.loc 1 140 21 view .LVU92
 357 019e D3F80630 		ldr	r3, [r3, #6]	@ unaligned
 358 01a2 C2F84731 		str	r3, [r2, #327]	@ unaligned
ARM GAS  /var/folders/sg/pxk9dyzj7jz_x3889hx3b3dw0000gn/T//ccQYcrNL.s 			page 13


 141:control-base/devices/src/referee_system.c ****                 }
 359              		.loc 1 141 21 is_stmt 1 view .LVU93
 141:control-base/devices/src/referee_system.c ****                 }
 360              		.loc 1 141 23 is_stmt 0 view .LVU94
 361 01a6 0D34     		adds	r4, r4, #13
 362              	.LVL20:
 141:control-base/devices/src/referee_system.c ****                 }
 363              		.loc 1 141 23 view .LVU95
 364 01a8 2CE7     		b	.L6
 365              	.L35:
 144:control-base/devices/src/referee_system.c ****                 break;
 366              		.loc 1 144 21 is_stmt 1 view .LVU96
 144:control-base/devices/src/referee_system.c ****                 break;
 367              		.loc 1 144 22 is_stmt 0 view .LVU97
 368 01aa 0134     		adds	r4, r4, #1
 369              	.LVL21:
 144:control-base/devices/src/referee_system.c ****                 break;
 370              		.loc 1 144 22 view .LVU98
 371 01ac 2AE7     		b	.L6
 372              	.L27:
 147:control-base/devices/src/referee_system.c ****                 {
 373              		.loc 1 147 17 is_stmt 1 view .LVU99
 147:control-base/devices/src/referee_system.c ****                 {
 374              		.loc 1 147 21 is_stmt 0 view .LVU100
 375 01ae 0C21     		movs	r1, #12
 376 01b0 5148     		ldr	r0, .L56+8
 377 01b2 2844     		add	r0, r0, r5
 378 01b4 FFF7FEFF 		bl	Verify_CRC16_Check_Sum
 379              	.LVL22:
 147:control-base/devices/src/referee_system.c ****                 {
 380              		.loc 1 147 20 discriminator 1 view .LVU101
 381 01b8 50B1     		cbz	r0, .L36
 149:control-base/devices/src/referee_system.c ****                     n += REFEREE_REFEREE_WARNING_LEN;
 382              		.loc 1 149 21 is_stmt 1 view .LVU102
 149:control-base/devices/src/referee_system.c ****                     n += REFEREE_REFEREE_WARNING_LEN;
 383              		.loc 1 149 78 is_stmt 0 view .LVU103
 384 01ba E31D     		adds	r3, r4, #7
 149:control-base/devices/src/referee_system.c ****                     n += REFEREE_REFEREE_WARNING_LEN;
 385              		.loc 1 149 53 view .LVU104
 386 01bc 4C4A     		ldr	r2, .L56
 387 01be 1344     		add	r3, r3, r2
 149:control-base/devices/src/referee_system.c ****                     n += REFEREE_REFEREE_WARNING_LEN;
 388              		.loc 1 149 21 view .LVU105
 389 01c0 D988     		ldrh	r1, [r3, #6]	@ unaligned
 390 01c2 1B7A     		ldrb	r3, [r3, #8]	@ zero_extendqisi2
 391 01c4 A2F84B11 		strh	r1, [r2, #331]	@ unaligned
 392 01c8 82F84D31 		strb	r3, [r2, #333]
 150:control-base/devices/src/referee_system.c ****                 }
 393              		.loc 1 150 21 is_stmt 1 view .LVU106
 150:control-base/devices/src/referee_system.c ****                 }
 394              		.loc 1 150 23 is_stmt 0 view .LVU107
 395 01cc 0C34     		adds	r4, r4, #12
 396              	.LVL23:
 150:control-base/devices/src/referee_system.c ****                 }
 397              		.loc 1 150 23 view .LVU108
 398 01ce 19E7     		b	.L6
 399              	.L36:
ARM GAS  /var/folders/sg/pxk9dyzj7jz_x3889hx3b3dw0000gn/T//ccQYcrNL.s 			page 14


 153:control-base/devices/src/referee_system.c ****                 break;
 400              		.loc 1 153 21 is_stmt 1 view .LVU109
 153:control-base/devices/src/referee_system.c ****                 break;
 401              		.loc 1 153 22 is_stmt 0 view .LVU110
 402 01d0 0134     		adds	r4, r4, #1
 403              	.LVL24:
 153:control-base/devices/src/referee_system.c ****                 break;
 404              		.loc 1 153 22 view .LVU111
 405 01d2 17E7     		b	.L6
 406              	.L25:
 156:control-base/devices/src/referee_system.c ****                 {
 407              		.loc 1 156 17 is_stmt 1 view .LVU112
 156:control-base/devices/src/referee_system.c ****                 {
 408              		.loc 1 156 21 is_stmt 0 view .LVU113
 409 01d4 0C21     		movs	r1, #12
 410 01d6 4848     		ldr	r0, .L56+8
 411 01d8 2844     		add	r0, r0, r5
 412 01da FFF7FEFF 		bl	Verify_CRC16_Check_Sum
 413              	.LVL25:
 156:control-base/devices/src/referee_system.c ****                 {
 414              		.loc 1 156 20 discriminator 1 view .LVU114
 415 01de 50B1     		cbz	r0, .L37
 158:control-base/devices/src/referee_system.c ****                     n += REFEREE_DART_DATA_LEN;
 416              		.loc 1 158 21 is_stmt 1 view .LVU115
 158:control-base/devices/src/referee_system.c ****                     n += REFEREE_DART_DATA_LEN;
 417              		.loc 1 158 80 is_stmt 0 view .LVU116
 418 01e0 E31D     		adds	r3, r4, #7
 158:control-base/devices/src/referee_system.c ****                     n += REFEREE_DART_DATA_LEN;
 419              		.loc 1 158 55 view .LVU117
 420 01e2 434A     		ldr	r2, .L56
 421 01e4 1344     		add	r3, r3, r2
 158:control-base/devices/src/referee_system.c ****                     n += REFEREE_DART_DATA_LEN;
 422              		.loc 1 158 21 view .LVU118
 423 01e6 D988     		ldrh	r1, [r3, #6]	@ unaligned
 424 01e8 1B7A     		ldrb	r3, [r3, #8]	@ zero_extendqisi2
 425 01ea A2F84E11 		strh	r1, [r2, #334]	@ unaligned
 426 01ee 82F85031 		strb	r3, [r2, #336]
 159:control-base/devices/src/referee_system.c ****                 }
 427              		.loc 1 159 21 is_stmt 1 view .LVU119
 159:control-base/devices/src/referee_system.c ****                 }
 428              		.loc 1 159 23 is_stmt 0 view .LVU120
 429 01f2 0C34     		adds	r4, r4, #12
 430              	.LVL26:
 159:control-base/devices/src/referee_system.c ****                 }
 431              		.loc 1 159 23 view .LVU121
 432 01f4 06E7     		b	.L6
 433              	.L37:
 162:control-base/devices/src/referee_system.c ****                 break;
 434              		.loc 1 162 21 is_stmt 1 view .LVU122
 162:control-base/devices/src/referee_system.c ****                 break;
 435              		.loc 1 162 22 is_stmt 0 view .LVU123
 436 01f6 0134     		adds	r4, r4, #1
 437              	.LVL27:
 162:control-base/devices/src/referee_system.c ****                 break;
 438              		.loc 1 162 22 view .LVU124
 439 01f8 04E7     		b	.L6
 440              	.L24:
ARM GAS  /var/folders/sg/pxk9dyzj7jz_x3889hx3b3dw0000gn/T//ccQYcrNL.s 			page 15


 165:control-base/devices/src/referee_system.c ****                 {
 441              		.loc 1 165 17 is_stmt 1 view .LVU125
 165:control-base/devices/src/referee_system.c ****                 {
 442              		.loc 1 165 21 is_stmt 0 view .LVU126
 443 01fa 1621     		movs	r1, #22
 444 01fc 3E48     		ldr	r0, .L56+8
 445 01fe 2844     		add	r0, r0, r5
 446 0200 FFF7FEFF 		bl	Verify_CRC16_Check_Sum
 447              	.LVL28:
 165:control-base/devices/src/referee_system.c ****                 {
 448              		.loc 1 165 20 discriminator 1 view .LVU127
 449 0204 98B1     		cbz	r0, .L38
 167:control-base/devices/src/referee_system.c ****                     n += REFEREE_ROBOT_STATE_LEN;
 450              		.loc 1 167 21 is_stmt 1 view .LVU128
 167:control-base/devices/src/referee_system.c ****                     n += REFEREE_ROBOT_STATE_LEN;
 451              		.loc 1 167 82 is_stmt 0 view .LVU129
 452 0206 E31D     		adds	r3, r4, #7
 167:control-base/devices/src/referee_system.c ****                     n += REFEREE_ROBOT_STATE_LEN;
 453              		.loc 1 167 57 view .LVU130
 454 0208 394A     		ldr	r2, .L56
 455 020a 1344     		add	r3, r3, r2
 167:control-base/devices/src/referee_system.c ****                     n += REFEREE_ROBOT_STATE_LEN;
 456              		.loc 1 167 21 view .LVU131
 457 020c D3F80650 		ldr	r5, [r3, #6]	@ unaligned
 458 0210 D3F80A00 		ldr	r0, [r3, #10]	@ unaligned
 459 0214 D3F80E10 		ldr	r1, [r3, #14]	@ unaligned
 460 0218 C2F85151 		str	r5, [r2, #337]	@ unaligned
 461 021c C2F85501 		str	r0, [r2, #341]	@ unaligned
 462 0220 C2F85911 		str	r1, [r2, #345]	@ unaligned
 463 0224 9B7C     		ldrb	r3, [r3, #18]	@ zero_extendqisi2
 464 0226 82F85D31 		strb	r3, [r2, #349]
 168:control-base/devices/src/referee_system.c ****                 }
 465              		.loc 1 168 21 is_stmt 1 view .LVU132
 168:control-base/devices/src/referee_system.c ****                 }
 466              		.loc 1 168 23 is_stmt 0 view .LVU133
 467 022a 1634     		adds	r4, r4, #22
 468              	.LVL29:
 168:control-base/devices/src/referee_system.c ****                 }
 469              		.loc 1 168 23 view .LVU134
 470 022c EAE6     		b	.L6
 471              	.L38:
 171:control-base/devices/src/referee_system.c ****                 break;
 472              		.loc 1 171 21 is_stmt 1 view .LVU135
 171:control-base/devices/src/referee_system.c ****                 break;
 473              		.loc 1 171 22 is_stmt 0 view .LVU136
 474 022e 0134     		adds	r4, r4, #1
 475              	.LVL30:
 171:control-base/devices/src/referee_system.c ****                 break;
 476              		.loc 1 171 22 view .LVU137
 477 0230 E8E6     		b	.L6
 478              	.L23:
 174:control-base/devices/src/referee_system.c ****                 {
 479              		.loc 1 174 17 is_stmt 1 view .LVU138
 174:control-base/devices/src/referee_system.c ****                 {
 480              		.loc 1 174 21 is_stmt 0 view .LVU139
 481 0232 1921     		movs	r1, #25
 482 0234 3048     		ldr	r0, .L56+8
ARM GAS  /var/folders/sg/pxk9dyzj7jz_x3889hx3b3dw0000gn/T//ccQYcrNL.s 			page 16


 483 0236 2844     		add	r0, r0, r5
 484 0238 FFF7FEFF 		bl	Verify_CRC16_Check_Sum
 485              	.LVL31:
 174:control-base/devices/src/referee_system.c ****                 {
 486              		.loc 1 174 20 discriminator 1 view .LVU140
 487 023c A0B1     		cbz	r0, .L39
 176:control-base/devices/src/referee_system.c ****                     n += REFEREE_POWER_HEAT_LEN;
 488              		.loc 1 176 21 is_stmt 1 view .LVU141
 176:control-base/devices/src/referee_system.c ****                     n += REFEREE_POWER_HEAT_LEN;
 489              		.loc 1 176 81 is_stmt 0 view .LVU142
 490 023e E31D     		adds	r3, r4, #7
 176:control-base/devices/src/referee_system.c ****                     n += REFEREE_POWER_HEAT_LEN;
 491              		.loc 1 176 56 view .LVU143
 492 0240 2B4A     		ldr	r2, .L56
 493 0242 1344     		add	r3, r3, r2
 176:control-base/devices/src/referee_system.c ****                     n += REFEREE_POWER_HEAT_LEN;
 494              		.loc 1 176 21 view .LVU144
 495 0244 D3F80650 		ldr	r5, [r3, #6]	@ unaligned
 496 0248 D3F80A00 		ldr	r0, [r3, #10]	@ unaligned
 497 024c D3F80E10 		ldr	r1, [r3, #14]	@ unaligned
 498 0250 D3F81230 		ldr	r3, [r3, #18]	@ unaligned
 499 0254 C2F85E51 		str	r5, [r2, #350]	@ unaligned
 500 0258 C2F86201 		str	r0, [r2, #354]	@ unaligned
 501 025c C2F86611 		str	r1, [r2, #358]	@ unaligned
 502 0260 C2F86A31 		str	r3, [r2, #362]	@ unaligned
 177:control-base/devices/src/referee_system.c ****                 }
 503              		.loc 1 177 21 is_stmt 1 view .LVU145
 177:control-base/devices/src/referee_system.c ****                 }
 504              		.loc 1 177 23 is_stmt 0 view .LVU146
 505 0264 1934     		adds	r4, r4, #25
 506              	.LVL32:
 177:control-base/devices/src/referee_system.c ****                 }
 507              		.loc 1 177 23 view .LVU147
 508 0266 CDE6     		b	.L6
 509              	.L39:
 180:control-base/devices/src/referee_system.c ****                 break;
 510              		.loc 1 180 21 is_stmt 1 view .LVU148
 180:control-base/devices/src/referee_system.c ****                 break;
 511              		.loc 1 180 22 is_stmt 0 view .LVU149
 512 0268 0134     		adds	r4, r4, #1
 513              	.LVL33:
 180:control-base/devices/src/referee_system.c ****                 break;
 514              		.loc 1 180 22 view .LVU150
 515 026a CBE6     		b	.L6
 516              	.L22:
 183:control-base/devices/src/referee_system.c ****                 {
 517              		.loc 1 183 17 is_stmt 1 view .LVU151
 183:control-base/devices/src/referee_system.c ****                 {
 518              		.loc 1 183 21 is_stmt 0 view .LVU152
 519 026c 1921     		movs	r1, #25
 520 026e 2248     		ldr	r0, .L56+8
 521 0270 2844     		add	r0, r0, r5
 522 0272 FFF7FEFF 		bl	Verify_CRC16_Check_Sum
 523              	.LVL34:
 183:control-base/devices/src/referee_system.c ****                 {
 524              		.loc 1 183 20 discriminator 1 view .LVU153
 525 0276 08B9     		cbnz	r0, .L55
ARM GAS  /var/folders/sg/pxk9dyzj7jz_x3889hx3b3dw0000gn/T//ccQYcrNL.s 			page 17


 189:control-base/devices/src/referee_system.c ****                 break;
 526              		.loc 1 189 21 is_stmt 1 view .LVU154
 189:control-base/devices/src/referee_system.c ****                 break;
 527              		.loc 1 189 22 is_stmt 0 view .LVU155
 528 0278 0134     		adds	r4, r4, #1
 529              	.LVL35:
 189:control-base/devices/src/referee_system.c ****                 break;
 530              		.loc 1 189 22 view .LVU156
 531 027a C3E6     		b	.L6
 532              	.L55:
 185:control-base/devices/src/referee_system.c ****                     n += REFEREE_ROBOT_POSITION_LEN;
 533              		.loc 1 185 21 is_stmt 1 view .LVU157
 185:control-base/devices/src/referee_system.c ****                     n += REFEREE_ROBOT_POSITION_LEN;
 534              		.loc 1 185 80 is_stmt 0 view .LVU158
 535 027c E31D     		adds	r3, r4, #7
 185:control-base/devices/src/referee_system.c ****                     n += REFEREE_ROBOT_POSITION_LEN;
 536              		.loc 1 185 55 view .LVU159
 537 027e 1C4A     		ldr	r2, .L56
 538 0280 1344     		add	r3, r3, r2
 185:control-base/devices/src/referee_system.c ****                     n += REFEREE_ROBOT_POSITION_LEN;
 539              		.loc 1 185 21 view .LVU160
 540 0282 D3F80650 		ldr	r5, [r3, #6]	@ unaligned
 541 0286 D3F80A00 		ldr	r0, [r3, #10]	@ unaligned
 542 028a D3F80E10 		ldr	r1, [r3, #14]	@ unaligned
 543 028e D3F81230 		ldr	r3, [r3, #18]	@ unaligned
 544 0292 C2F86E51 		str	r5, [r2, #366]	@ unaligned
 545 0296 C2F87201 		str	r0, [r2, #370]	@ unaligned
 546 029a C2F87611 		str	r1, [r2, #374]	@ unaligned
 547 029e C2F87A31 		str	r3, [r2, #378]	@ unaligned
 186:control-base/devices/src/referee_system.c ****                 }
 548              		.loc 1 186 21 is_stmt 1 view .LVU161
 186:control-base/devices/src/referee_system.c ****                 }
 549              		.loc 1 186 23 is_stmt 0 view .LVU162
 550 02a2 1934     		adds	r4, r4, #25
 551              	.LVL36:
 186:control-base/devices/src/referee_system.c ****                 }
 552              		.loc 1 186 23 view .LVU163
 553 02a4 AEE6     		b	.L6
 554              	.L21:
 192:control-base/devices/src/referee_system.c ****                 {
 555              		.loc 1 192 17 is_stmt 1 view .LVU164
 192:control-base/devices/src/referee_system.c ****                 {
 556              		.loc 1 192 21 is_stmt 0 view .LVU165
 557 02a6 0F21     		movs	r1, #15
 558 02a8 1348     		ldr	r0, .L56+8
 559 02aa 2844     		add	r0, r0, r5
 560 02ac FFF7FEFF 		bl	Verify_CRC16_Check_Sum
 561              	.LVL37:
 192:control-base/devices/src/referee_system.c ****                 {
 562              		.loc 1 192 20 discriminator 1 view .LVU166
 563 02b0 58B1     		cbz	r0, .L41
 194:control-base/devices/src/referee_system.c ****                     n += REFEREE_ROBOT_BUFF_LEN;
 564              		.loc 1 194 21 is_stmt 1 view .LVU167
 194:control-base/devices/src/referee_system.c ****                     n += REFEREE_ROBOT_BUFF_LEN;
 565              		.loc 1 194 81 is_stmt 0 view .LVU168
 566 02b2 E31D     		adds	r3, r4, #7
 194:control-base/devices/src/referee_system.c ****                     n += REFEREE_ROBOT_BUFF_LEN;
ARM GAS  /var/folders/sg/pxk9dyzj7jz_x3889hx3b3dw0000gn/T//ccQYcrNL.s 			page 18


 567              		.loc 1 194 56 view .LVU169
 568 02b4 0E4A     		ldr	r2, .L56
 569 02b6 1344     		add	r3, r3, r2
 194:control-base/devices/src/referee_system.c ****                     n += REFEREE_ROBOT_BUFF_LEN;
 570              		.loc 1 194 21 view .LVU170
 571 02b8 D3F80610 		ldr	r1, [r3, #6]	@ unaligned
 572 02bc C2F87A11 		str	r1, [r2, #378]	@ unaligned
 573 02c0 5B89     		ldrh	r3, [r3, #10]	@ unaligned
 574 02c2 A2F87E31 		strh	r3, [r2, #382]	@ unaligned
 195:control-base/devices/src/referee_system.c ****                 }
 575              		.loc 1 195 21 is_stmt 1 view .LVU171
 195:control-base/devices/src/referee_system.c ****                 }
 576              		.loc 1 195 23 is_stmt 0 view .LVU172
 577 02c6 0F34     		adds	r4, r4, #15
 578              	.LVL38:
 195:control-base/devices/src/referee_system.c ****                 }
 579              		.loc 1 195 23 view .LVU173
 580 02c8 9CE6     		b	.L6
 581              	.L41:
 198:control-base/devices/src/referee_system.c ****                 break;
 582              		.loc 1 198 21 is_stmt 1 view .LVU174
 198:control-base/devices/src/referee_system.c ****                 break;
 583              		.loc 1 198 22 is_stmt 0 view .LVU175
 584 02ca 0134     		adds	r4, r4, #1
 585              	.LVL39:
 198:control-base/devices/src/referee_system.c ****                 break;
 586              		.loc 1 198 22 view .LVU176
 587 02cc 9AE6     		b	.L6
 588              	.L20:
 201:control-base/devices/src/referee_system.c ****                 {
 589              		.loc 1 201 17 is_stmt 1 view .LVU177
 201:control-base/devices/src/referee_system.c ****                 {
 590              		.loc 1 201 21 is_stmt 0 view .LVU178
 591 02ce 0B21     		movs	r1, #11
 592 02d0 0948     		ldr	r0, .L56+8
 593 02d2 2844     		add	r0, r0, r5
 594 02d4 FFF7FEFF 		bl	Verify_CRC16_Check_Sum
 595              	.LVL40:
 201:control-base/devices/src/referee_system.c ****                 {
 596              		.loc 1 201 20 discriminator 1 view .LVU179
 597 02d8 38B1     		cbz	r0, .L42
 203:control-base/devices/src/referee_system.c ****                     n += REFEREE_AERIAL_DATA_LEN;
 598              		.loc 1 203 21 is_stmt 1 view .LVU180
 203:control-base/devices/src/referee_system.c ****                     n += REFEREE_AERIAL_DATA_LEN;
 599              		.loc 1 203 82 is_stmt 0 view .LVU181
 600 02da E31D     		adds	r3, r4, #7
 203:control-base/devices/src/referee_system.c ****                     n += REFEREE_AERIAL_DATA_LEN;
 601              		.loc 1 203 57 view .LVU182
 602 02dc 044A     		ldr	r2, .L56
 603 02de 1344     		add	r3, r3, r2
 203:control-base/devices/src/referee_system.c ****                     n += REFEREE_AERIAL_DATA_LEN;
 604              		.loc 1 203 21 view .LVU183
 605 02e0 DB88     		ldrh	r3, [r3, #6]	@ unaligned
 606 02e2 A2F88031 		strh	r3, [r2, #384]	@ movhi
 204:control-base/devices/src/referee_system.c ****                 }
 607              		.loc 1 204 21 is_stmt 1 view .LVU184
 204:control-base/devices/src/referee_system.c ****                 }
ARM GAS  /var/folders/sg/pxk9dyzj7jz_x3889hx3b3dw0000gn/T//ccQYcrNL.s 			page 19


 608              		.loc 1 204 23 is_stmt 0 view .LVU185
 609 02e6 0B34     		adds	r4, r4, #11
 610              	.LVL41:
 204:control-base/devices/src/referee_system.c ****                 }
 611              		.loc 1 204 23 view .LVU186
 612 02e8 8CE6     		b	.L6
 613              	.L42:
 207:control-base/devices/src/referee_system.c ****                 break;
 614              		.loc 1 207 21 is_stmt 1 view .LVU187
 207:control-base/devices/src/referee_system.c ****                 break;
 615              		.loc 1 207 22 is_stmt 0 view .LVU188
 616 02ea 0134     		adds	r4, r4, #1
 617              	.LVL42:
 207:control-base/devices/src/referee_system.c ****                 break;
 618              		.loc 1 207 22 view .LVU189
 619 02ec 8AE6     		b	.L6
 620              	.L57:
 621 02ee 00BF     		.align	2
 622              	.L56:
 623 02f0 00000000 		.word	Referee_System
 624 02f4 00000000 		.word	g_referee_daemon_instance_ptr
 625 02f8 06000000 		.word	Referee_System+6
 626              	.L19:
 210:control-base/devices/src/referee_system.c ****                 {
 627              		.loc 1 210 17 is_stmt 1 view .LVU190
 210:control-base/devices/src/referee_system.c ****                 {
 628              		.loc 1 210 21 is_stmt 0 view .LVU191
 629 02fc 0A21     		movs	r1, #10
 630 02fe 2D48     		ldr	r0, .L58
 631 0300 2844     		add	r0, r0, r5
 632 0302 FFF7FEFF 		bl	Verify_CRC16_Check_Sum
 633              	.LVL43:
 210:control-base/devices/src/referee_system.c ****                 {
 634              		.loc 1 210 20 discriminator 1 view .LVU192
 635 0306 38B1     		cbz	r0, .L43
 212:control-base/devices/src/referee_system.c ****                     n += REFEREE_INJURY_STATE_LEN;
 636              		.loc 1 212 21 is_stmt 1 view .LVU193
 212:control-base/devices/src/referee_system.c ****                     n += REFEREE_INJURY_STATE_LEN;
 637              		.loc 1 212 83 is_stmt 0 view .LVU194
 638 0308 E31D     		adds	r3, r4, #7
 212:control-base/devices/src/referee_system.c ****                     n += REFEREE_INJURY_STATE_LEN;
 639              		.loc 1 212 21 view .LVU195
 640 030a 2B4A     		ldr	r2, .L58+4
 641 030c 1344     		add	r3, r3, r2
 642 030e 9B79     		ldrb	r3, [r3, #6]	@ zero_extendqisi2
 643 0310 82F88231 		strb	r3, [r2, #386]
 213:control-base/devices/src/referee_system.c ****                 }
 644              		.loc 1 213 21 is_stmt 1 view .LVU196
 213:control-base/devices/src/referee_system.c ****                 }
 645              		.loc 1 213 23 is_stmt 0 view .LVU197
 646 0314 0A34     		adds	r4, r4, #10
 647              	.LVL44:
 213:control-base/devices/src/referee_system.c ****                 }
 648              		.loc 1 213 23 view .LVU198
 649 0316 75E6     		b	.L6
 650              	.L43:
 216:control-base/devices/src/referee_system.c ****                 break;
ARM GAS  /var/folders/sg/pxk9dyzj7jz_x3889hx3b3dw0000gn/T//ccQYcrNL.s 			page 20


 651              		.loc 1 216 21 is_stmt 1 view .LVU199
 216:control-base/devices/src/referee_system.c ****                 break;
 652              		.loc 1 216 22 is_stmt 0 view .LVU200
 653 0318 0134     		adds	r4, r4, #1
 654              	.LVL45:
 216:control-base/devices/src/referee_system.c ****                 break;
 655              		.loc 1 216 22 view .LVU201
 656 031a 73E6     		b	.L6
 657              	.L18:
 219:control-base/devices/src/referee_system.c ****                 {
 658              		.loc 1 219 17 is_stmt 1 view .LVU202
 219:control-base/devices/src/referee_system.c ****                 {
 659              		.loc 1 219 21 is_stmt 0 view .LVU203
 660 031c 1021     		movs	r1, #16
 661 031e 2548     		ldr	r0, .L58
 662 0320 2844     		add	r0, r0, r5
 663 0322 FFF7FEFF 		bl	Verify_CRC16_Check_Sum
 664              	.LVL46:
 219:control-base/devices/src/referee_system.c ****                 {
 665              		.loc 1 219 20 discriminator 1 view .LVU204
 666 0326 70B1     		cbz	r0, .L44
 221:control-base/devices/src/referee_system.c ****                     n += REFEREE_SHOOTER_STATE_LEN;
 667              		.loc 1 221 21 is_stmt 1 view .LVU205
 221:control-base/devices/src/referee_system.c ****                     n += REFEREE_SHOOTER_STATE_LEN;
 668              		.loc 1 221 78 is_stmt 0 view .LVU206
 669 0328 E31D     		adds	r3, r4, #7
 221:control-base/devices/src/referee_system.c ****                     n += REFEREE_SHOOTER_STATE_LEN;
 670              		.loc 1 221 53 view .LVU207
 671 032a 234A     		ldr	r2, .L58+4
 672 032c 1344     		add	r3, r3, r2
 221:control-base/devices/src/referee_system.c ****                     n += REFEREE_SHOOTER_STATE_LEN;
 673              		.loc 1 221 21 view .LVU208
 674 032e D3F80610 		ldr	r1, [r3, #6]	@ unaligned
 675 0332 C2F88311 		str	r1, [r2, #387]	@ unaligned
 676 0336 5989     		ldrh	r1, [r3, #10]	@ unaligned
 677 0338 1B7B     		ldrb	r3, [r3, #12]	@ zero_extendqisi2
 678 033a A2F88711 		strh	r1, [r2, #391]	@ unaligned
 679 033e 82F88931 		strb	r3, [r2, #393]
 222:control-base/devices/src/referee_system.c ****                 }
 680              		.loc 1 222 21 is_stmt 1 view .LVU209
 222:control-base/devices/src/referee_system.c ****                 }
 681              		.loc 1 222 23 is_stmt 0 view .LVU210
 682 0342 1034     		adds	r4, r4, #16
 683              	.LVL47:
 222:control-base/devices/src/referee_system.c ****                 }
 684              		.loc 1 222 23 view .LVU211
 685 0344 5EE6     		b	.L6
 686              	.L44:
 225:control-base/devices/src/referee_system.c ****                 break;
 687              		.loc 1 225 21 is_stmt 1 view .LVU212
 225:control-base/devices/src/referee_system.c ****                 break;
 688              		.loc 1 225 22 is_stmt 0 view .LVU213
 689 0346 0134     		adds	r4, r4, #1
 690              	.LVL48:
 225:control-base/devices/src/referee_system.c ****                 break;
 691              		.loc 1 225 22 view .LVU214
 692 0348 5CE6     		b	.L6
ARM GAS  /var/folders/sg/pxk9dyzj7jz_x3889hx3b3dw0000gn/T//ccQYcrNL.s 			page 21


 693              	.L17:
 228:control-base/devices/src/referee_system.c ****                 {
 694              		.loc 1 228 17 is_stmt 1 view .LVU215
 228:control-base/devices/src/referee_system.c ****                 {
 695              		.loc 1 228 21 is_stmt 0 view .LVU216
 696 034a 0F21     		movs	r1, #15
 697 034c 1948     		ldr	r0, .L58
 698 034e 2844     		add	r0, r0, r5
 699 0350 FFF7FEFF 		bl	Verify_CRC16_Check_Sum
 700              	.LVL49:
 228:control-base/devices/src/referee_system.c ****                 {
 701              		.loc 1 228 20 discriminator 1 view .LVU217
 702 0354 58B1     		cbz	r0, .L45
 230:control-base/devices/src/referee_system.c ****                     n += REFEREE_REMAINING_AMMO_LEN;
 703              		.loc 1 230 21 is_stmt 1 view .LVU218
 230:control-base/devices/src/referee_system.c ****                     n += REFEREE_REMAINING_AMMO_LEN;
 704              		.loc 1 230 85 is_stmt 0 view .LVU219
 705 0356 E31D     		adds	r3, r4, #7
 230:control-base/devices/src/referee_system.c ****                     n += REFEREE_REMAINING_AMMO_LEN;
 706              		.loc 1 230 60 view .LVU220
 707 0358 174A     		ldr	r2, .L58+4
 708 035a 1344     		add	r3, r3, r2
 230:control-base/devices/src/referee_system.c ****                     n += REFEREE_REMAINING_AMMO_LEN;
 709              		.loc 1 230 21 view .LVU221
 710 035c D3F80610 		ldr	r1, [r3, #6]	@ unaligned
 711 0360 C2F88A11 		str	r1, [r2, #394]	@ unaligned
 712 0364 5B89     		ldrh	r3, [r3, #10]	@ unaligned
 713 0366 A2F88E31 		strh	r3, [r2, #398]	@ unaligned
 231:control-base/devices/src/referee_system.c ****                 }
 714              		.loc 1 231 21 is_stmt 1 view .LVU222
 231:control-base/devices/src/referee_system.c ****                 }
 715              		.loc 1 231 23 is_stmt 0 view .LVU223
 716 036a 0F34     		adds	r4, r4, #15
 717              	.LVL50:
 231:control-base/devices/src/referee_system.c ****                 }
 718              		.loc 1 231 23 view .LVU224
 719 036c 4AE6     		b	.L6
 720              	.L45:
 234:control-base/devices/src/referee_system.c ****                 break;
 721              		.loc 1 234 21 is_stmt 1 view .LVU225
 234:control-base/devices/src/referee_system.c ****                 break;
 722              		.loc 1 234 22 is_stmt 0 view .LVU226
 723 036e 0134     		adds	r4, r4, #1
 724              	.LVL51:
 234:control-base/devices/src/referee_system.c ****                 break;
 725              		.loc 1 234 22 view .LVU227
 726 0370 48E6     		b	.L6
 727              	.L15:
 237:control-base/devices/src/referee_system.c ****                 {
 728              		.loc 1 237 17 is_stmt 1 view .LVU228
 237:control-base/devices/src/referee_system.c ****                 {
 729              		.loc 1 237 21 is_stmt 0 view .LVU229
 730 0372 0D21     		movs	r1, #13
 731 0374 0F48     		ldr	r0, .L58
 732 0376 2844     		add	r0, r0, r5
 733 0378 FFF7FEFF 		bl	Verify_CRC16_Check_Sum
 734              	.LVL52:
ARM GAS  /var/folders/sg/pxk9dyzj7jz_x3889hx3b3dw0000gn/T//ccQYcrNL.s 			page 22


 237:control-base/devices/src/referee_system.c ****                 {
 735              		.loc 1 237 20 discriminator 1 view .LVU230
 736 037c A0B1     		cbz	r0, .L46
 239:control-base/devices/src/referee_system.c ****                     Referee_System.RFID.base_buffer_zone = (Referee_System.RFID.State >> REFEREE_BA
 737              		.loc 1 239 21 is_stmt 1 view .LVU231
 239:control-base/devices/src/referee_system.c ****                     Referee_System.RFID.base_buffer_zone = (Referee_System.RFID.State >> REFEREE_BA
 738              		.loc 1 239 75 is_stmt 0 view .LVU232
 739 037e E31D     		adds	r3, r4, #7
 239:control-base/devices/src/referee_system.c ****                     Referee_System.RFID.base_buffer_zone = (Referee_System.RFID.State >> REFEREE_BA
 740              		.loc 1 239 50 view .LVU233
 741 0380 0D4A     		ldr	r2, .L58+4
 742 0382 1344     		add	r3, r3, r2
 239:control-base/devices/src/referee_system.c ****                     Referee_System.RFID.base_buffer_zone = (Referee_System.RFID.State >> REFEREE_BA
 743              		.loc 1 239 21 view .LVU234
 744 0384 D3F80630 		ldr	r3, [r3, #6]	@ unaligned
 745 0388 C2F89031 		str	r3, [r2, #400]
 240:control-base/devices/src/referee_system.c ****                     Referee_System.RFID.resupply_zone = (Referee_System.RFID.State >> REFEREE_RESUP
 746              		.loc 1 240 21 is_stmt 1 view .LVU235
 240:control-base/devices/src/referee_system.c ****                     Referee_System.RFID.resupply_zone = (Referee_System.RFID.State >> REFEREE_RESUP
 747              		.loc 1 240 116 is_stmt 0 view .LVU236
 748 038c 03F00101 		and	r1, r3, #1
 240:control-base/devices/src/referee_system.c ****                     Referee_System.RFID.resupply_zone = (Referee_System.RFID.State >> REFEREE_RESUP
 749              		.loc 1 240 58 view .LVU237
 750 0390 82F89411 		strb	r1, [r2, #404]
 241:control-base/devices/src/referee_system.c ****                     Referee_System.RFID.center_zone = (Referee_System.RFID.State >> REFEREE_CENTER_
 751              		.loc 1 241 21 is_stmt 1 view .LVU238
 241:control-base/devices/src/referee_system.c ****                     Referee_System.RFID.center_zone = (Referee_System.RFID.State >> REFEREE_CENTER_
 752              		.loc 1 241 110 is_stmt 0 view .LVU239
 753 0394 C3F3C041 		ubfx	r1, r3, #19, #1
 241:control-base/devices/src/referee_system.c ****                     Referee_System.RFID.center_zone = (Referee_System.RFID.State >> REFEREE_CENTER_
 754              		.loc 1 241 55 view .LVU240
 755 0398 82F89511 		strb	r1, [r2, #405]
 242:control-base/devices/src/referee_system.c ****                     n += REFEREE_ROBOT_RFID_LEN;
 756              		.loc 1 242 21 is_stmt 1 view .LVU241
 242:control-base/devices/src/referee_system.c ****                     n += REFEREE_ROBOT_RFID_LEN;
 757              		.loc 1 242 106 is_stmt 0 view .LVU242
 758 039c C3F3C053 		ubfx	r3, r3, #23, #1
 242:control-base/devices/src/referee_system.c ****                     n += REFEREE_ROBOT_RFID_LEN;
 759              		.loc 1 242 53 view .LVU243
 760 03a0 82F89631 		strb	r3, [r2, #406]
 243:control-base/devices/src/referee_system.c ****                 }
 761              		.loc 1 243 21 is_stmt 1 view .LVU244
 243:control-base/devices/src/referee_system.c ****                 }
 762              		.loc 1 243 23 is_stmt 0 view .LVU245
 763 03a4 0D34     		adds	r4, r4, #13
 764              	.LVL53:
 243:control-base/devices/src/referee_system.c ****                 }
 765              		.loc 1 243 23 view .LVU246
 766 03a6 2DE6     		b	.L6
 767              	.L46:
 246:control-base/devices/src/referee_system.c ****                 break;
 768              		.loc 1 246 21 is_stmt 1 view .LVU247
 246:control-base/devices/src/referee_system.c ****                 break;
 769              		.loc 1 246 22 is_stmt 0 view .LVU248
 770 03a8 0134     		adds	r4, r4, #1
 771              	.LVL54:
 246:control-base/devices/src/referee_system.c ****                 break;
ARM GAS  /var/folders/sg/pxk9dyzj7jz_x3889hx3b3dw0000gn/T//ccQYcrNL.s 			page 23


 772              		.loc 1 246 22 view .LVU249
 773 03aa 2BE6     		b	.L6
 774              	.L9:
 249:control-base/devices/src/referee_system.c ****                 break;
 775              		.loc 1 249 17 is_stmt 1 view .LVU250
 249:control-base/devices/src/referee_system.c ****                 break;
 776              		.loc 1 249 18 is_stmt 0 view .LVU251
 777 03ac 0134     		adds	r4, r4, #1
 778              	.LVL55:
 250:control-base/devices/src/referee_system.c ****             }
 779              		.loc 1 250 17 is_stmt 1 view .LVU252
 780 03ae 29E6     		b	.L6
 781              	.L51:
 250:control-base/devices/src/referee_system.c ****             }
 782              		.loc 1 250 17 is_stmt 0 view .LVU253
 783              	.LBE2:
 255:control-base/devices/src/referee_system.c ****     }
 256:control-base/devices/src/referee_system.c **** }...
 784              		.loc 1 256 1 view .LVU254
 785 03b0 38BD     		pop	{r3, r4, r5, pc}
 786              	.LVL56:
 787              	.L59:
 788              		.loc 1 256 1 view .LVU255
 789 03b2 00BF     		.align	2
 790              	.L58:
 791 03b4 06000000 		.word	Referee_System+6
 792 03b8 00000000 		.word	Referee_System
 793              		.cfi_endproc
 794              	.LFE145:
 796              		.section	.text.Referee_Set_Robot_State,"ax",%progbits
 797              		.align	1
 798              		.global	Referee_Set_Robot_State
 799              		.syntax unified
 800              		.thumb
 801              		.thumb_func
 803              	Referee_Set_Robot_State:
 804              	.LFB142:
  19:control-base/devices/src/referee_system.c **** {
 805              		.loc 1 19 1 is_stmt 1 view -0
 806              		.cfi_startproc
 807              		@ args = 0, pretend = 0, frame = 0
 808              		@ frame_needed = 0, uses_anonymous_args = 0
 809              		@ link register save eliminated.
  20:control-base/devices/src/referee_system.c ****     if (Referee_System.Online_Flag)
 810              		.loc 1 20 5 view .LVU257
  20:control-base/devices/src/referee_system.c ****     if (Referee_System.Online_Flag)
 811              		.loc 1 20 23 is_stmt 0 view .LVU258
 812 0000 354B     		ldr	r3, .L63
 813 0002 93F89831 		ldrb	r3, [r3, #408]	@ zero_extendqisi2
  20:control-base/devices/src/referee_system.c ****     if (Referee_System.Online_Flag)
 814              		.loc 1 20 8 view .LVU259
 815 0006 002B     		cmp	r3, #0
 816 0008 35D0     		beq	.L61
  22:control-base/devices/src/referee_system.c ****         Referee_Robot_State.Game_Type = Referee_System.Game_Status.Type;
 817              		.loc 1 22 9 is_stmt 1 view .LVU260
  22:control-base/devices/src/referee_system.c ****         Referee_Robot_State.Game_Type = Referee_System.Game_Status.Type;
 818              		.loc 1 22 67 is_stmt 0 view .LVU261
ARM GAS  /var/folders/sg/pxk9dyzj7jz_x3889hx3b3dw0000gn/T//ccQYcrNL.s 			page 24


 819 000a 334A     		ldr	r2, .L63
 820 000c 92F81711 		ldrb	r1, [r2, #279]	@ zero_extendqisi2
 821 0010 C1F30301 		ubfx	r1, r1, #0, #4
  22:control-base/devices/src/referee_system.c ****         Referee_Robot_State.Game_Type = Referee_System.Game_Status.Type;
 822              		.loc 1 22 39 view .LVU262
 823 0014 314B     		ldr	r3, .L63+4
 824 0016 1970     		strb	r1, [r3]
  23:control-base/devices/src/referee_system.c ****         Referee_Robot_State.ID = Referee_System.Robot_State.ID;
 825              		.loc 1 23 9 is_stmt 1 view .LVU263
  23:control-base/devices/src/referee_system.c ****         Referee_Robot_State.ID = Referee_System.Robot_State.ID;
 826              		.loc 1 23 60 is_stmt 0 view .LVU264
 827 0018 92F85111 		ldrb	r1, [r2, #337]	@ zero_extendqisi2
  23:control-base/devices/src/referee_system.c ****         Referee_Robot_State.ID = Referee_System.Robot_State.ID;
 828              		.loc 1 23 32 view .LVU265
 829 001c 5970     		strb	r1, [r3, #1]
  24:control-base/devices/src/referee_system.c ****         Referee_Robot_State.Level = Referee_System.Robot_State.Level;
 830              		.loc 1 24 9 is_stmt 1 view .LVU266
  24:control-base/devices/src/referee_system.c ****         Referee_Robot_State.Level = Referee_System.Robot_State.Level;
 831              		.loc 1 24 63 is_stmt 0 view .LVU267
 832 001e 92F85211 		ldrb	r1, [r2, #338]	@ zero_extendqisi2
  24:control-base/devices/src/referee_system.c ****         Referee_Robot_State.Level = Referee_System.Robot_State.Level;
 833              		.loc 1 24 35 view .LVU268
 834 0022 9970     		strb	r1, [r3, #2]
  26:control-base/devices/src/referee_system.c ****         Referee_Robot_State.Cooling_Rate = Referee_System.Robot_State.Shooter_Cooling_Value;
 835              		.loc 1 26 9 is_stmt 1 view .LVU269
  26:control-base/devices/src/referee_system.c ****         Referee_Robot_State.Cooling_Rate = Referee_System.Robot_State.Shooter_Cooling_Value;
 836              		.loc 1 26 70 is_stmt 0 view .LVU270
 837 0024 B2F85711 		ldrh	r1, [r2, #343]	@ unaligned
  26:control-base/devices/src/referee_system.c ****         Referee_Robot_State.Cooling_Rate = Referee_System.Robot_State.Shooter_Cooling_Value;
 838              		.loc 1 26 42 view .LVU271
 839 0028 9980     		strh	r1, [r3, #4]	@ movhi
  27:control-base/devices/src/referee_system.c ****         Referee_Robot_State.Heat_Max = Referee_System.Robot_State.Shooter_Heat_Max;
 840              		.loc 1 27 9 is_stmt 1 view .LVU272
  27:control-base/devices/src/referee_system.c ****         Referee_Robot_State.Heat_Max = Referee_System.Robot_State.Shooter_Heat_Max;
 841              		.loc 1 27 66 is_stmt 0 view .LVU273
 842 002a B2F85911 		ldrh	r1, [r2, #345]	@ unaligned
  27:control-base/devices/src/referee_system.c ****         Referee_Robot_State.Heat_Max = Referee_System.Robot_State.Shooter_Heat_Max;
 843              		.loc 1 27 38 view .LVU274
 844 002e D980     		strh	r1, [r3, #6]	@ movhi
  28:control-base/devices/src/referee_system.c ****         Referee_Robot_State.Launch_Speed_Max = DEFAULT_STANDARD_LAUNCH_SPEED_MAX;
 845              		.loc 1 28 9 is_stmt 1 view .LVU275
  28:control-base/devices/src/referee_system.c ****         Referee_Robot_State.Launch_Speed_Max = DEFAULT_STANDARD_LAUNCH_SPEED_MAX;
 846              		.loc 1 28 46 is_stmt 0 view .LVU276
 847 0030 1E21     		movs	r1, #30
 848 0032 1981     		strh	r1, [r3, #8]	@ movhi
  29:control-base/devices/src/referee_system.c ****         Referee_Robot_State.Chassis_Power_Max = Referee_System.Robot_State.Chassis_Power_Max;
 849              		.loc 1 29 9 is_stmt 1 view .LVU277
  29:control-base/devices/src/referee_system.c ****         Referee_Robot_State.Chassis_Power_Max = Referee_System.Robot_State.Chassis_Power_Max;
 850              		.loc 1 29 75 is_stmt 0 view .LVU278
 851 0034 B2F85B11 		ldrh	r1, [r2, #347]	@ unaligned
  29:control-base/devices/src/referee_system.c ****         Referee_Robot_State.Chassis_Power_Max = Referee_System.Robot_State.Chassis_Power_Max;
 852              		.loc 1 29 47 view .LVU279
 853 0038 5981     		strh	r1, [r3, #10]	@ movhi
  31:control-base/devices/src/referee_system.c ****         Referee_Robot_State.Chassis_Power = Referee_System.Power_Heat.Chassis_Power;
 854              		.loc 1 31 9 is_stmt 1 view .LVU280
  31:control-base/devices/src/referee_system.c ****         Referee_Robot_State.Chassis_Power = Referee_System.Power_Heat.Chassis_Power;
 855              		.loc 1 31 70 is_stmt 0 view .LVU281
ARM GAS  /var/folders/sg/pxk9dyzj7jz_x3889hx3b3dw0000gn/T//ccQYcrNL.s 			page 25


 856 003a D2F86211 		ldr	r1, [r2, #354]	@ unaligned
  31:control-base/devices/src/referee_system.c ****         Referee_Robot_State.Chassis_Power = Referee_System.Power_Heat.Chassis_Power;
 857              		.loc 1 31 43 view .LVU282
 858 003e D960     		str	r1, [r3, #12]	@ float
  32:control-base/devices/src/referee_system.c ****         Referee_Robot_State.Power_Buffer = Referee_System.Power_Heat.Chassis_Power_Buffer;
 859              		.loc 1 32 9 is_stmt 1 view .LVU283
  32:control-base/devices/src/referee_system.c ****         Referee_Robot_State.Power_Buffer = Referee_System.Power_Heat.Chassis_Power_Buffer;
 860              		.loc 1 32 69 is_stmt 0 view .LVU284
 861 0040 B2F86611 		ldrh	r1, [r2, #358]
 862 0044 07EE901A 		vmov	s15, r1	@ int
  32:control-base/devices/src/referee_system.c ****         Referee_Robot_State.Power_Buffer = Referee_System.Power_Heat.Chassis_Power_Buffer;
 863              		.loc 1 32 42 view .LVU285
 864 0048 F8EE677A 		vcvt.f32.u32	s15, s15
 865 004c C3ED047A 		vstr.32	s15, [r3, #16]
  33:control-base/devices/src/referee_system.c ****         Referee_Robot_State.Shooter_Heat_1 = Referee_System.Power_Heat.Shooter_1_17mm_Heat;
 866              		.loc 1 33 9 is_stmt 1 view .LVU286
  33:control-base/devices/src/referee_system.c ****         Referee_Robot_State.Shooter_Heat_1 = Referee_System.Power_Heat.Shooter_1_17mm_Heat;
 867              		.loc 1 33 71 is_stmt 0 view .LVU287
 868 0050 B2F86811 		ldrh	r1, [r2, #360]
  33:control-base/devices/src/referee_system.c ****         Referee_Robot_State.Shooter_Heat_1 = Referee_System.Power_Heat.Shooter_1_17mm_Heat;
 869              		.loc 1 33 44 view .LVU288
 870 0054 9982     		strh	r1, [r3, #20]	@ movhi
  34:control-base/devices/src/referee_system.c ****         Referee_Robot_State.Shooter_Heat_2 = Referee_System.Power_Heat.Shooter_2_17mm_Heat;
 871              		.loc 1 34 9 is_stmt 1 view .LVU289
  34:control-base/devices/src/referee_system.c ****         Referee_Robot_State.Shooter_Heat_2 = Referee_System.Power_Heat.Shooter_2_17mm_Heat;
 872              		.loc 1 34 71 is_stmt 0 view .LVU290
 873 0056 B2F86A11 		ldrh	r1, [r2, #362]
  34:control-base/devices/src/referee_system.c ****         Referee_Robot_State.Shooter_Heat_2 = Referee_System.Power_Heat.Shooter_2_17mm_Heat;
 874              		.loc 1 34 44 view .LVU291
 875 005a D982     		strh	r1, [r3, #22]	@ movhi
  35:control-base/devices/src/referee_system.c ****         Referee_Robot_State.Shooting_Frequency = Referee_System.Shooter.Frequency;
 876              		.loc 1 35 9 is_stmt 1 view .LVU292
  35:control-base/devices/src/referee_system.c ****         Referee_Robot_State.Shooting_Frequency = Referee_System.Shooter.Frequency;
 877              		.loc 1 35 72 is_stmt 0 view .LVU293
 878 005c 92F88511 		ldrb	r1, [r2, #389]	@ zero_extendqisi2
  35:control-base/devices/src/referee_system.c ****         Referee_Robot_State.Shooting_Frequency = Referee_System.Shooter.Frequency;
 879              		.loc 1 35 48 view .LVU294
 880 0060 1976     		strb	r1, [r3, #24]
  36:control-base/devices/src/referee_system.c ****         Referee_Robot_State.Shooting_Speed = Referee_System.Shooter.Speed;
 881              		.loc 1 36 9 is_stmt 1 view .LVU295
  36:control-base/devices/src/referee_system.c ****         Referee_Robot_State.Shooting_Speed = Referee_System.Shooter.Speed;
 882              		.loc 1 36 68 is_stmt 0 view .LVU296
 883 0062 D2F88611 		ldr	r1, [r2, #390]	@ unaligned
  36:control-base/devices/src/referee_system.c ****         Referee_Robot_State.Shooting_Speed = Referee_System.Shooter.Speed;
 884              		.loc 1 36 44 view .LVU297
 885 0066 D961     		str	r1, [r3, #28]	@ float
  37:control-base/devices/src/referee_system.c ****         Referee_Robot_State.Shooter_Power_Output = Referee_System.Robot_State.Shooter_Power_Output;
 886              		.loc 1 37 9 is_stmt 1 view .LVU298
  37:control-base/devices/src/referee_system.c ****         Referee_Robot_State.Shooter_Power_Output = Referee_System.Robot_State.Shooter_Power_Output;
 887              		.loc 1 37 78 is_stmt 0 view .LVU299
 888 0068 92F85D21 		ldrb	r2, [r2, #349]	@ zero_extendqisi2
 889 006c C2F38002 		ubfx	r2, r2, #2, #1
  37:control-base/devices/src/referee_system.c ****         Referee_Robot_State.Shooter_Power_Output = Referee_System.Robot_State.Shooter_Power_Output;
 890              		.loc 1 37 50 view .LVU300
 891 0070 83F82020 		strb	r2, [r3, #32]
 892 0074 7047     		bx	lr
 893              	.L61:
ARM GAS  /var/folders/sg/pxk9dyzj7jz_x3889hx3b3dw0000gn/T//ccQYcrNL.s 			page 26


  42:control-base/devices/src/referee_system.c ****             Referee_Robot_State.Cooling_Rate = DEFAULT_STANDARD_COOLING_RATE+(Referee_Robot_State.M
 894              		.loc 1 42 13 is_stmt 1 view .LVU301
  42:control-base/devices/src/referee_system.c ****             Referee_Robot_State.Cooling_Rate = DEFAULT_STANDARD_COOLING_RATE+(Referee_Robot_State.M
 895              		.loc 1 42 98 is_stmt 0 view .LVU302
 896 0076 1949     		ldr	r1, .L63+4
 897 0078 CB78     		ldrb	r3, [r1, #3]	@ zero_extendqisi2
  42:control-base/devices/src/referee_system.c ****             Referee_Robot_State.Cooling_Rate = DEFAULT_STANDARD_COOLING_RATE+(Referee_Robot_State.M
 898              		.loc 1 42 111 view .LVU303
 899 007a 013B     		subs	r3, r3, #1
  42:control-base/devices/src/referee_system.c ****             Referee_Robot_State.Cooling_Rate = DEFAULT_STANDARD_COOLING_RATE+(Referee_Robot_State.M
 900              		.loc 1 42 77 view .LVU304
 901 007c 9AB2     		uxth	r2, r3
 902 007e 02EB8202 		add	r2, r2, r2, lsl #2
 903 0082 02F10A00 		add	r0, r2, #10
  42:control-base/devices/src/referee_system.c ****             Referee_Robot_State.Cooling_Rate = DEFAULT_STANDARD_COOLING_RATE+(Referee_Robot_State.M
 904              		.loc 1 42 46 view .LVU305
 905 0086 8880     		strh	r0, [r1, #4]	@ movhi
  43:control-base/devices/src/referee_system.c ****             Referee_Robot_State.Heat_Max = DEFAULT_STANDARD_HEAT_MAX+(Referee_Robot_State.Manual_Le
 906              		.loc 1 43 13 is_stmt 1 view .LVU306
  43:control-base/devices/src/referee_system.c ****             Referee_Robot_State.Heat_Max = DEFAULT_STANDARD_HEAT_MAX+(Referee_Robot_State.Manual_Le
 907              		.loc 1 43 69 is_stmt 0 view .LVU307
 908 0088 02EB8202 		add	r2, r2, r2, lsl #2
 909 008c 5000     		lsls	r0, r2, #1
 910 008e C830     		adds	r0, r0, #200
  43:control-base/devices/src/referee_system.c ****             Referee_Robot_State.Heat_Max = DEFAULT_STANDARD_HEAT_MAX+(Referee_Robot_State.Manual_Le
 911              		.loc 1 43 42 view .LVU308
 912 0090 C880     		strh	r0, [r1, #6]	@ movhi
  44:control-base/devices/src/referee_system.c ****             Referee_Robot_State.Launch_Speed_Max = DEFAULT_STANDARD_LAUNCH_SPEED_MAX;
 913              		.loc 1 44 13 is_stmt 1 view .LVU309
  44:control-base/devices/src/referee_system.c ****             Referee_Robot_State.Launch_Speed_Max = DEFAULT_STANDARD_LAUNCH_SPEED_MAX;
 914              		.loc 1 44 50 is_stmt 0 view .LVU310
 915 0092 1E22     		movs	r2, #30
 916 0094 0A81     		strh	r2, [r1, #8]	@ movhi
  45:control-base/devices/src/referee_system.c ****             Referee_Robot_State.Chassis_Power = (DEFAULT_STANDARD_POWER_MAX-10)+(Referee_Robot_Stat
 917              		.loc 1 45 13 is_stmt 1 view .LVU311
  45:control-base/devices/src/referee_system.c ****             Referee_Robot_State.Chassis_Power = (DEFAULT_STANDARD_POWER_MAX-10)+(Referee_Robot_Stat
 918              		.loc 1 45 117 is_stmt 0 view .LVU312
 919 0096 03EB8303 		add	r3, r3, r3, lsl #2
  45:control-base/devices/src/referee_system.c ****             Referee_Robot_State.Chassis_Power = (DEFAULT_STANDARD_POWER_MAX-10)+(Referee_Robot_Stat
 920              		.loc 1 45 80 view .LVU313
 921 009a 03F12302 		add	r2, r3, #35
 922 009e 07EE902A 		vmov	s15, r2	@ int
  45:control-base/devices/src/referee_system.c ****             Referee_Robot_State.Chassis_Power = (DEFAULT_STANDARD_POWER_MAX-10)+(Referee_Robot_Stat
 923              		.loc 1 45 47 view .LVU314
 924 00a2 F8EEE77A 		vcvt.f32.s32	s15, s15
 925 00a6 C1ED037A 		vstr.32	s15, [r1, #12]
  46:control-base/devices/src/referee_system.c ****             Referee_Robot_State.Chassis_Power_Max = DEFAULT_STANDARD_POWER_MAX+(Referee_Robot_State
 926              		.loc 1 46 13 is_stmt 1 view .LVU315
  46:control-base/devices/src/referee_system.c ****             Referee_Robot_State.Chassis_Power_Max = DEFAULT_STANDARD_POWER_MAX+(Referee_Robot_State
 927              		.loc 1 46 79 is_stmt 0 view .LVU316
 928 00aa 2D33     		adds	r3, r3, #45
  46:control-base/devices/src/referee_system.c ****             Referee_Robot_State.Chassis_Power_Max = DEFAULT_STANDARD_POWER_MAX+(Referee_Robot_State
 929              		.loc 1 46 129 view .LVU317
 930 00ac 0C4A     		ldr	r2, .L63+8
 931 00ae D27A     		ldrb	r2, [r2, #11]	@ zero_extendqisi2
 932 00b0 07EE102A 		vmov	s14, r2	@ int
  46:control-base/devices/src/referee_system.c ****             Referee_Robot_State.Chassis_Power_Max = DEFAULT_STANDARD_POWER_MAX+(Referee_Robot_State
ARM GAS  /var/folders/sg/pxk9dyzj7jz_x3889hx3b3dw0000gn/T//ccQYcrNL.s 			page 27


 933              		.loc 1 46 151 view .LVU318
 934 00b4 B8EEC77A 		vcvt.f32.s32	s14, s14
 935 00b8 F3EE047A 		vmov.f32	s15, #2.0e+1
 936 00bc 27EE277A 		vmul.f32	s14, s14, s15
  46:control-base/devices/src/referee_system.c ****             Referee_Robot_State.Chassis_Power_Max = DEFAULT_STANDARD_POWER_MAX+(Referee_Robot_State
 937              		.loc 1 46 118 view .LVU319
 938 00c0 07EE903A 		vmov	s15, r3	@ int
 939 00c4 F8EEE77A 		vcvt.f32.s32	s15, s15
 940 00c8 77EE877A 		vadd.f32	s15, s15, s14
  46:control-base/devices/src/referee_system.c ****             Referee_Robot_State.Chassis_Power_Max = DEFAULT_STANDARD_POWER_MAX+(Referee_Robot_State
 941              		.loc 1 46 51 view .LVU320
 942 00cc FCEEE77A 		vcvt.u32.f32	s15, s15
 943 00d0 17EE903A 		vmov	r3, s15	@ int
 944 00d4 4B81     		strh	r3, [r1, #10]	@ movhi
  63:control-base/devices/src/referee_system.c **** }
 945              		.loc 1 63 1 view .LVU321
 946 00d6 7047     		bx	lr
 947              	.L64:
 948              		.align	2
 949              	.L63:
 950 00d8 00000000 		.word	Referee_System
 951 00dc 00000000 		.word	Referee_Robot_State
 952 00e0 00000000 		.word	g_supercap
 953              		.cfi_endproc
 954              	.LFE142:
 956              		.section	.text.Referee_System_Init,"ax",%progbits
 957              		.align	1
 958              		.global	Referee_System_Init
 959              		.syntax unified
 960              		.thumb
 961              		.thumb_func
 963              	Referee_System_Init:
 964              	.LVL57:
 965              	.LFB144:
  72:control-base/devices/src/referee_system.c **** {
 966              		.loc 1 72 1 is_stmt 1 view -0
 967              		.cfi_startproc
 968              		@ args = 0, pretend = 0, frame = 0
 969              		@ frame_needed = 0, uses_anonymous_args = 0
  72:control-base/devices/src/referee_system.c **** {
 970              		.loc 1 72 1 is_stmt 0 view .LVU323
 971 0000 08B5     		push	{r3, lr}
 972              	.LCFI2:
 973              		.cfi_def_cfa_offset 8
 974              		.cfi_offset 3, -8
 975              		.cfi_offset 14, -4
  73:control-base/devices/src/referee_system.c ****     Referee_System.huart = huart;
 976              		.loc 1 73 5 is_stmt 1 view .LVU324
  73:control-base/devices/src/referee_system.c ****     Referee_System.huart = huart;
 977              		.loc 1 73 26 is_stmt 0 view .LVU325
 978 0002 0A49     		ldr	r1, .L67
 979 0004 41F8060B 		str	r0, [r1], #6
  74:control-base/devices/src/referee_system.c ****     Referee_Robot_State.Manual_Level = 1;
 980              		.loc 1 74 5 is_stmt 1 view .LVU326
  74:control-base/devices/src/referee_system.c ****     Referee_Robot_State.Manual_Level = 1;
 981              		.loc 1 74 38 is_stmt 0 view .LVU327
 982 0008 094B     		ldr	r3, .L67+4
ARM GAS  /var/folders/sg/pxk9dyzj7jz_x3889hx3b3dw0000gn/T//ccQYcrNL.s 			page 28


 983 000a 0122     		movs	r2, #1
 984 000c DA70     		strb	r2, [r3, #3]
  76:control-base/devices/src/referee_system.c ****     g_referee_uart_instance_ptr = UART_Register(huart, Referee_System.Buffer, REFEREE_BUFFER_LEN, R
 985              		.loc 1 76 5 is_stmt 1 view .LVU328
  76:control-base/devices/src/referee_system.c ****     g_referee_uart_instance_ptr = UART_Register(huart, Referee_System.Buffer, REFEREE_BUFFER_LEN, R
 986              		.loc 1 76 35 is_stmt 0 view .LVU329
 987 000e 094B     		ldr	r3, .L67+8
 988 0010 40F21112 		movw	r2, #273
 989 0014 FFF7FEFF 		bl	UART_Register
 990              	.LVL58:
  76:control-base/devices/src/referee_system.c ****     g_referee_uart_instance_ptr = UART_Register(huart, Referee_System.Buffer, REFEREE_BUFFER_LEN, R
 991              		.loc 1 76 33 discriminator 1 view .LVU330
 992 0018 074B     		ldr	r3, .L67+12
 993 001a 1860     		str	r0, [r3]
  80:control-base/devices/src/referee_system.c **** 	uint16_t reload_value = REFEREE_TIMEOUT_MS / DAEMON_PERIOD;
 994              		.loc 1 80 2 is_stmt 1 view .LVU331
 995              	.LVL59:
  81:control-base/devices/src/referee_system.c **** 	uint16_t initial_counter = reload_value;
 996              		.loc 1 81 2 view .LVU332
  82:control-base/devices/src/referee_system.c **** 	g_referee_daemon_instance_ptr = Daemon_Register(reload_value, initial_counter, Referee_System_Time
 997              		.loc 1 82 2 view .LVU333
  82:control-base/devices/src/referee_system.c **** 	g_referee_daemon_instance_ptr = Daemon_Register(reload_value, initial_counter, Referee_System_Time
 998              		.loc 1 82 34 is_stmt 0 view .LVU334
 999 001c 074A     		ldr	r2, .L67+16
 1000 001e 3221     		movs	r1, #50
 1001 0020 0846     		mov	r0, r1
 1002 0022 FFF7FEFF 		bl	Daemon_Register
 1003              	.LVL60:
  82:control-base/devices/src/referee_system.c **** 	g_referee_daemon_instance_ptr = Daemon_Register(reload_value, initial_counter, Referee_System_Time
 1004              		.loc 1 82 32 discriminator 1 view .LVU335
 1005 0026 064B     		ldr	r3, .L67+20
 1006 0028 1860     		str	r0, [r3]
  83:control-base/devices/src/referee_system.c **** }
 1007              		.loc 1 83 1 view .LVU336
 1008 002a 08BD     		pop	{r3, pc}
 1009              	.L68:
 1010              		.align	2
 1011              	.L67:
 1012 002c 00000000 		.word	Referee_System
 1013 0030 00000000 		.word	Referee_Robot_State
 1014 0034 00000000 		.word	Referee_Get_Data
 1015 0038 00000000 		.word	g_referee_uart_instance_ptr
 1016 003c 00000000 		.word	Referee_System_Timeout_Callback
 1017 0040 00000000 		.word	g_referee_daemon_instance_ptr
 1018              		.cfi_endproc
 1019              	.LFE144:
 1021              		.global	g_referee_daemon_instance_ptr
 1022              		.section	.bss.g_referee_daemon_instance_ptr,"aw",%nobits
 1023              		.align	2
 1026              	g_referee_daemon_instance_ptr:
 1027 0000 00000000 		.space	4
 1028              		.global	g_referee_uart_instance_ptr
 1029              		.section	.bss.g_referee_uart_instance_ptr,"aw",%nobits
 1030              		.align	2
 1033              	g_referee_uart_instance_ptr:
 1034 0000 00000000 		.space	4
 1035              		.global	Referee_Robot_State
ARM GAS  /var/folders/sg/pxk9dyzj7jz_x3889hx3b3dw0000gn/T//ccQYcrNL.s 			page 29


 1036              		.section	.bss.Referee_Robot_State,"aw",%nobits
 1037              		.align	2
 1040              	Referee_Robot_State:
 1041 0000 00000000 		.space	36
 1041      00000000 
 1041      00000000 
 1041      00000000 
 1041      00000000 
 1042              		.global	Referee_System
 1043              		.section	.bss.Referee_System,"aw",%nobits
 1044              		.align	2
 1047              	Referee_System:
 1048 0000 00000000 		.space	412
 1048      00000000 
 1048      00000000 
 1048      00000000 
 1048      00000000 
 1049              		.text
 1050              	.Letext0:
 1051              		.file 2 "/Applications/ArmGNUToolchain/14.3.rel1/arm-none-eabi/arm-none-eabi/include/machine/_defa
 1052              		.file 3 "/Applications/ArmGNUToolchain/14.3.rel1/arm-none-eabi/arm-none-eabi/include/sys/_stdint.h
 1053              		.file 4 "control-base/typec-board-base/Drivers/CMSIS/Device/ST/STM32F4xx/Include/stm32f407xx.h"
 1054              		.file 5 "control-base/typec-board-base/Drivers/STM32F4xx_HAL_Driver/Inc/stm32f4xx_hal_def.h"
 1055              		.file 6 "control-base/typec-board-base/Drivers/STM32F4xx_HAL_Driver/Inc/stm32f4xx_hal_dma.h"
 1056              		.file 7 "control-base/typec-board-base/Drivers/STM32F4xx_HAL_Driver/Inc/stm32f4xx_hal_uart.h"
 1057              		.file 8 "control-base/bsp/inc/bsp_uart.h"
 1058              		.file 9 "control-base/bsp/inc/bsp_daemon.h"
 1059              		.file 10 "control-base/devices/inc/supercap.h"
 1060              		.file 11 "control-base/devices/inc/referee_system.h"
 1061              		.file 12 "/Applications/ArmGNUToolchain/14.3.rel1/arm-none-eabi/arm-none-eabi/include/string.h"
 1062              		.file 13 "control-base/bsp/inc/bsp_crc.h"
ARM GAS  /var/folders/sg/pxk9dyzj7jz_x3889hx3b3dw0000gn/T//ccQYcrNL.s 			page 30

