ARM GAS  /var/folders/sg/pxk9dyzj7jz_x3889hx3b3dw0000gn/T//ccmldKxi.s 			page 1


   1              		.cpu cortex-m4
   2              		.arch armv7e-m
   3              		.fpu fpv4-sp-d16
   4              		.eabi_attribute 27, 1
   5              		.eabi_attribute 28, 1
   6              		.eabi_attribute 20, 1
   7              		.eabi_attribute 21, 1
   8              		.eabi_attribute 23, 3
   9              		.eabi_attribute 24, 1
  10              		.eabi_attribute 25, 1
  11              		.eabi_attribute 26, 1
  12              		.eabi_attribute 30, 1
  13              		.eabi_attribute 34, 1
  14              		.eabi_attribute 18, 4
  15              		.file	"supercap.c"
  16              		.text
  17              	.Ltext0:
  18              		.cfi_sections	.debug_frame
  19              		.file 1 "control-base/devices/src/supercap.c"
  20              		.section	.text.Supercap_Timeout_Callback,"ax",%progbits
  21              		.align	1
  22              		.global	Supercap_Timeout_Callback
  23              		.syntax unified
  24              		.thumb
  25              		.thumb_func
  27              	Supercap_Timeout_Callback:
  28              	.LFB142:
   1:control-base/devices/src/supercap.c **** #include "supercap.h"
   2:control-base/devices/src/supercap.c **** #include "bsp_uart.h"
   3:control-base/devices/src/supercap.c **** #include "bsp_daemon.h"
   4:control-base/devices/src/supercap.c **** #include "string.h"
   5:control-base/devices/src/supercap.c **** #include "stdlib.h"
   6:control-base/devices/src/supercap.c **** #include "bsp_serial.h"
   7:control-base/devices/src/supercap.c **** #include "c_board_comm.h"
   8:control-base/devices/src/supercap.c **** 
   9:control-base/devices/src/supercap.c **** #define SUPERCAP_TIMEOUT_MS (3000)
  10:control-base/devices/src/supercap.c **** Supercap_t g_supercap;
  11:control-base/devices/src/supercap.c **** Daemon_Instance_t *g_supercap_daemon_ptr;
  12:control-base/devices/src/supercap.c **** // CAN_Instance_t *supercap_can_instance;
  13:control-base/devices/src/supercap.c **** UART_Instance_t *supercap_uart_instance_ptr;
  14:control-base/devices/src/supercap.c **** extern Jetson_Orin_Data_t g_orin_data;
  15:control-base/devices/src/supercap.c **** extern Board_Comm_Package_t g_board_comm_package; 
  16:control-base/devices/src/supercap.c **** 
  17:control-base/devices/src/supercap.c **** char* middle_cpy;
  18:control-base/devices/src/supercap.c **** char uart_buffer[SUPERCAP_RX_BUFFER_SIZE];
  19:control-base/devices/src/supercap.c **** uint8_t uart_byte;
  20:control-base/devices/src/supercap.c **** uint8_t uart_index = 0;
  21:control-base/devices/src/supercap.c **** uint8_t supercap_uart_instance_initialized;
  22:control-base/devices/src/supercap.c **** // Parsed values
  23:control-base/devices/src/supercap.c **** //float Vi = 0, Vo = 0, Pi = 0, Io = 0, Ps = 0, Ii = 0;
  24:control-base/devices/src/supercap.c **** 
  25:control-base/devices/src/supercap.c **** struct rx_data
  26:control-base/devices/src/supercap.c **** {
  27:control-base/devices/src/supercap.c ****     uint16_t max_discharge;
  28:control-base/devices/src/supercap.c ****     uint16_t base_power;
  29:control-base/devices/src/supercap.c ****     int16_t cap_energy_percent;
  30:control-base/devices/src/supercap.c ****     uint16_t cap_state;
ARM GAS  /var/folders/sg/pxk9dyzj7jz_x3889hx3b3dw0000gn/T//ccmldKxi.s 			page 2


  31:control-base/devices/src/supercap.c **** } g_supercap_data;
  32:control-base/devices/src/supercap.c **** 
  33:control-base/devices/src/supercap.c **** 
  34:control-base/devices/src/supercap.c **** // Function to extract float after a key like "Vi:"
  35:control-base/devices/src/supercap.c **** // float extract_value(const char *src, const char *key) {
  36:control-base/devices/src/supercap.c **** //     const char *start = strstr(src, key);
  37:control-base/devices/src/supercap.c **** //     if (!start) return 0.0f;
  38:control-base/devices/src/supercap.c **** //     start += strlen(key);  // move pointer after "Vi:"
  39:control-base/devices/src/supercap.c **** //     return atof(start);    // convert to float
  40:control-base/devices/src/supercap.c **** // }
  41:control-base/devices/src/supercap.c **** 
  42:control-base/devices/src/supercap.c **** void Supercap_Timeout_Callback(void){
  29              		.loc 1 42 37 view -0
  30              		.cfi_startproc
  31              		@ args = 0, pretend = 0, frame = 0
  32              		@ frame_needed = 0, uses_anonymous_args = 0
  33 0000 08B5     		push	{r3, lr}
  34              	.LCFI0:
  35              		.cfi_def_cfa_offset 8
  36              		.cfi_offset 3, -8
  37              		.cfi_offset 14, -4
  43:control-base/devices/src/supercap.c ****     UART_Service_Init(supercap_uart_instance_ptr);
  38              		.loc 1 43 5 view .LVU1
  39 0002 024B     		ldr	r3, .L3
  40 0004 1868     		ldr	r0, [r3]
  41 0006 FFF7FEFF 		bl	UART_Service_Init
  42              	.LVL0:
  44:control-base/devices/src/supercap.c **** }
  43              		.loc 1 44 1 is_stmt 0 view .LVU2
  44 000a 08BD     		pop	{r3, pc}
  45              	.L4:
  46              		.align	2
  47              	.L3:
  48 000c 00000000 		.word	supercap_uart_instance_ptr
  49              		.cfi_endproc
  50              	.LFE142:
  52              		.section	.rodata.Supercap_Decode_Callback.str1.4,"aMS",%progbits,1
  53              		.align	2
  54              	.LC0:
  55 0000 56693A25 		.ascii	"Vi:%f Vo:%f Pi:%f Ii:%f Io:%f Ps:%f\000"
  55      6620566F 
  55      3A256620 
  55      50693A25 
  55      66204969 
  56              		.section	.text.Supercap_Decode_Callback,"ax",%progbits
  57              		.align	1
  58              		.global	Supercap_Decode_Callback
  59              		.syntax unified
  60              		.thumb
  61              		.thumb_func
  63              	Supercap_Decode_Callback:
  64              	.LVL1:
  65              	.LFB143:
  45:control-base/devices/src/supercap.c **** 
  46:control-base/devices/src/supercap.c **** void Supercap_Decode_Callback(UART_Instance_t *uart_instance) {
  66              		.loc 1 46 63 is_stmt 1 view -0
  67              		.cfi_startproc
ARM GAS  /var/folders/sg/pxk9dyzj7jz_x3889hx3b3dw0000gn/T//ccmldKxi.s 			page 3


  68              		@ args = 0, pretend = 0, frame = 0
  69              		@ frame_needed = 0, uses_anonymous_args = 0
  47:control-base/devices/src/supercap.c ****     // static float Vi, Vo, Pi, Io, Ps, Ii;
  48:control-base/devices/src/supercap.c ****     
  49:control-base/devices/src/supercap.c ****     // uart_instance->rx_buffer[0];
  50:control-base/devices/src/supercap.c ****     if (uart_instance->rx_buffer[0] != '\n') {
  70              		.loc 1 50 5 view .LVU4
  71              		.loc 1 50 22 is_stmt 0 view .LVU5
  72 0000 4368     		ldr	r3, [r0, #4]
  73              		.loc 1 50 33 view .LVU6
  74 0002 1978     		ldrb	r1, [r3]	@ zero_extendqisi2
  75              		.loc 1 50 8 view .LVU7
  76 0004 0A29     		cmp	r1, #10
  77 0006 07D0     		beq	.L6
  51:control-base/devices/src/supercap.c ****         
  52:control-base/devices/src/supercap.c ****         g_supercap.buffer_for_construction[g_supercap.receive_counter] = uart_instance->rx_buffer[0
  78              		.loc 1 52 9 is_stmt 1 view .LVU8
  79              		.loc 1 52 54 is_stmt 0 view .LVU9
  80 0008 154A     		ldr	r2, .L11
  81 000a 137A     		ldrb	r3, [r2, #8]	@ zero_extendqisi2
  82              		.loc 1 52 72 view .LVU10
  83 000c D018     		adds	r0, r2, r3
  84              	.LVL2:
  85              		.loc 1 52 72 view .LVU11
  86 000e 80F82810 		strb	r1, [r0, #40]
  53:control-base/devices/src/supercap.c ****         g_supercap.receive_counter++; // R
  87              		.loc 1 53 9 is_stmt 1 view .LVU12
  88              		.loc 1 53 35 is_stmt 0 view .LVU13
  89 0012 0133     		adds	r3, r3, #1
  90 0014 1372     		strb	r3, [r2, #8]
  91 0016 7047     		bx	lr
  92              	.LVL3:
  93              	.L6:
  46:control-base/devices/src/supercap.c ****     // static float Vi, Vo, Pi, Io, Ps, Ii;
  94              		.loc 1 46 63 view .LVU14
  95 0018 10B5     		push	{r4, lr}
  96              	.LCFI1:
  97              		.cfi_def_cfa_offset 8
  98              		.cfi_offset 4, -8
  99              		.cfi_offset 14, -4
 100 001a 84B0     		sub	sp, sp, #16
 101              	.LCFI2:
 102              		.cfi_def_cfa_offset 24
  54:control-base/devices/src/supercap.c ****     }
  55:control-base/devices/src/supercap.c ****     else // if the end of frame is reached
  56:control-base/devices/src/supercap.c ****     {
  57:control-base/devices/src/supercap.c ****         g_supercap.buffer_for_construction[g_supercap.receive_counter] = '\0'; 
 103              		.loc 1 57 9 is_stmt 1 view .LVU15
 104              		.loc 1 57 54 is_stmt 0 view .LVU16
 105 001c 104C     		ldr	r4, .L11
 106 001e 237A     		ldrb	r3, [r4, #8]	@ zero_extendqisi2
 107              		.loc 1 57 72 view .LVU17
 108 0020 2344     		add	r3, r3, r4
 109 0022 0022     		movs	r2, #0
 110 0024 83F82820 		strb	r2, [r3, #40]
  58:control-base/devices/src/supercap.c ****         g_supercap.receive_counter = 0; // reset counter if \n is received
 111              		.loc 1 58 9 is_stmt 1 view .LVU18
ARM GAS  /var/folders/sg/pxk9dyzj7jz_x3889hx3b3dw0000gn/T//ccmldKxi.s 			page 4


 112              		.loc 1 58 36 is_stmt 0 view .LVU19
 113 0028 2272     		strb	r2, [r4, #8]
  59:control-base/devices/src/supercap.c ****         Daemon_Reload(g_supercap_daemon_ptr);
 114              		.loc 1 59 9 is_stmt 1 view .LVU20
 115 002a 0E4B     		ldr	r3, .L11+4
 116 002c 1868     		ldr	r0, [r3]
 117              	.LVL4:
 118              		.loc 1 59 9 is_stmt 0 view .LVU21
 119 002e FFF7FEFF 		bl	Daemon_Reload
 120              	.LVL5:
  60:control-base/devices/src/supercap.c **** 
  61:control-base/devices/src/supercap.c ****         // Supercap decode logic
  62:control-base/devices/src/supercap.c ****         // g_supercap.Vi = extract_value((const char*)g_supercap.buffer_for_construction, "Vi:");
  63:control-base/devices/src/supercap.c ****         // g_supercap.Vo = extract_value((const char*)g_supercap.buffer_for_construction, "Vo:");
  64:control-base/devices/src/supercap.c ****         // g_supercap.Pi = extract_value((const char*)g_supercap.buffer_for_construction, "Pi:");
  65:control-base/devices/src/supercap.c ****         // g_supercap.Ii = extract_value((const char*)g_supercap.buffer_for_construction, "Ii:");
  66:control-base/devices/src/supercap.c ****         // g_supercap.Io = extract_value((const char*)g_supercap.buffer_for_construction, "Io:");
  67:control-base/devices/src/supercap.c ****         // g_supercap.Ps = extract_value((const char*)g_supercap.buffer_for_construction, "Ps:");
  68:control-base/devices/src/supercap.c ****        sscanf((char *)g_supercap.buffer_for_construction, "Vi:%f Vo:%f Pi:%f Ii:%f Io:%f Ps:%f",
 121              		.loc 1 68 8 is_stmt 1 view .LVU22
 122 0032 04F11C03 		add	r3, r4, #28
 123 0036 0393     		str	r3, [sp, #12]
 124 0038 04F12003 		add	r3, r4, #32
 125 003c 0293     		str	r3, [sp, #8]
 126 003e 04F11803 		add	r3, r4, #24
 127 0042 0193     		str	r3, [sp, #4]
 128 0044 04F11403 		add	r3, r4, #20
 129 0048 0093     		str	r3, [sp]
 130 004a 04F11003 		add	r3, r4, #16
 131 004e 04F10C02 		add	r2, r4, #12
 132 0052 0549     		ldr	r1, .L11+8
 133 0054 04F12800 		add	r0, r4, #40
 134 0058 FFF7FEFF 		bl	sscanf
 135              	.LVL6:
  69:control-base/devices/src/supercap.c ****               &g_supercap.Vi, &g_supercap.Vo, &g_supercap.Pi, &g_supercap.Ii, &g_supercap.Io, &g_su
  70:control-base/devices/src/supercap.c ****     }
  71:control-base/devices/src/supercap.c **** }
 136              		.loc 1 71 1 is_stmt 0 view .LVU23
 137 005c 04B0     		add	sp, sp, #16
 138              	.LCFI3:
 139              		.cfi_def_cfa_offset 8
 140              		@ sp needed
 141 005e 10BD     		pop	{r4, pc}
 142              	.L12:
 143              		.align	2
 144              	.L11:
 145 0060 00000000 		.word	g_supercap
 146 0064 00000000 		.word	g_supercap_daemon_ptr
 147 0068 00000000 		.word	.LC0
 148              		.cfi_endproc
 149              	.LFE143:
 151              		.section	.text.Supercap_Init,"ax",%progbits
 152              		.align	1
 153              		.global	Supercap_Init
 154              		.syntax unified
 155              		.thumb
 156              		.thumb_func
ARM GAS  /var/folders/sg/pxk9dyzj7jz_x3889hx3b3dw0000gn/T//ccmldKxi.s 			page 5


 158              	Supercap_Init:
 159              	.LVL7:
 160              	.LFB144:
  72:control-base/devices/src/supercap.c **** 
  73:control-base/devices/src/supercap.c **** void Supercap_Init(UART_HandleTypeDef *huartx)
  74:control-base/devices/src/supercap.c **** {
 161              		.loc 1 74 1 is_stmt 1 view -0
 162              		.cfi_startproc
 163              		@ args = 0, pretend = 0, frame = 0
 164              		@ frame_needed = 0, uses_anonymous_args = 0
 165              		.loc 1 74 1 is_stmt 0 view .LVU25
 166 0000 08B5     		push	{r3, lr}
 167              	.LCFI4:
 168              		.cfi_def_cfa_offset 8
 169              		.cfi_offset 3, -8
 170              		.cfi_offset 14, -4
  75:control-base/devices/src/supercap.c ****     // Initialize supercap
  76:control-base/devices/src/supercap.c ****     // g_supercap->can_bus = 1; // can 2
  77:control-base/devices/src/supercap.c ****     // g_supercap->tx_id = 0x2C8;
  78:control-base/devices/src/supercap.c ****     // g_supercap->rx_id = 0x2C7;
  79:control-base/devices/src/supercap.c **** 
  80:control-base/devices/src/supercap.c ****     //supercap_uart_instance_ptr = UART_Register(huartx, g_supercap.rx_buffer, SUPERCAP_RX_BUFFER_S
  81:control-base/devices/src/supercap.c ****     supercap_uart_instance_ptr = UART_Register(huartx, g_supercap.rx_buffer, SUPERCAP_RX_BUFFER_SIZ
 171              		.loc 1 81 5 is_stmt 1 view .LVU26
 172              		.loc 1 81 34 is_stmt 0 view .LVU27
 173 0002 094B     		ldr	r3, .L15
 174 0004 0122     		movs	r2, #1
 175 0006 0949     		ldr	r1, .L15+4
 176 0008 FFF7FEFF 		bl	UART_Register
 177              	.LVL8:
 178              		.loc 1 81 32 discriminator 1 view .LVU28
 179 000c 084B     		ldr	r3, .L15+8
 180 000e 1860     		str	r0, [r3]
  82:control-base/devices/src/supercap.c ****     uint16_t reload_value = SUPERCAP_TIMEOUT_MS / DAEMON_PERIOD;
 181              		.loc 1 82 5 is_stmt 1 view .LVU29
 182              	.LVL9:
  83:control-base/devices/src/supercap.c ****     uint16_t intial_counter = reload_value;
 183              		.loc 1 83 5 view .LVU30
  84:control-base/devices/src/supercap.c ****     g_supercap_daemon_ptr = Daemon_Register(reload_value, intial_counter, Supercap_Timeout_Callback
 184              		.loc 1 84 5 view .LVU31
 185              		.loc 1 84 29 is_stmt 0 view .LVU32
 186 0010 084A     		ldr	r2, .L15+12
 187 0012 4FF49671 		mov	r1, #300
 188 0016 0846     		mov	r0, r1
 189 0018 FFF7FEFF 		bl	Daemon_Register
 190              	.LVL10:
 191              		.loc 1 84 27 discriminator 1 view .LVU33
 192 001c 064B     		ldr	r3, .L15+16
 193 001e 1860     		str	r0, [r3]
  85:control-base/devices/src/supercap.c ****     supercap_uart_instance_initialized = 1; //turn on supercap uart 
 194              		.loc 1 85 5 is_stmt 1 view .LVU34
 195              		.loc 1 85 40 is_stmt 0 view .LVU35
 196 0020 064B     		ldr	r3, .L15+20
 197 0022 0122     		movs	r2, #1
 198 0024 1A70     		strb	r2, [r3]
  86:control-base/devices/src/supercap.c **** }
 199              		.loc 1 86 1 view .LVU36
ARM GAS  /var/folders/sg/pxk9dyzj7jz_x3889hx3b3dw0000gn/T//ccmldKxi.s 			page 6


 200 0026 08BD     		pop	{r3, pc}
 201              	.L16:
 202              		.align	2
 203              	.L15:
 204 0028 00000000 		.word	Supercap_Decode_Callback
 205 002c 24000000 		.word	g_supercap+36
 206 0030 00000000 		.word	supercap_uart_instance_ptr
 207 0034 00000000 		.word	Supercap_Timeout_Callback
 208 0038 00000000 		.word	g_supercap_daemon_ptr
 209 003c 00000000 		.word	supercap_uart_instance_initialized
 210              		.cfi_endproc
 211              	.LFE144:
 213              		.section	.rodata.Supercap_Send.str1.4,"aMS",%progbits,1
 214              		.align	2
 215              	.LC1:
 216 0000 50564F4E 		.ascii	"PVONP\015\012\000"
 216      500D0A00 
 217              		.align	2
 218              	.LC2:
 219 0008 50253033 		.ascii	"P%03dP\015\012\000"
 219      64500D0A 
 219      00
 220 0011 000000   		.align	2
 221              	.LC3:
 222 0014 50564F46 		.ascii	"PVOFP\015\012\000"
 222      500D0A00 
 223              		.section	.text.Supercap_Send,"ax",%progbits
 224              		.align	1
 225              		.global	Supercap_Send
 226              		.syntax unified
 227              		.thumb
 228              		.thumb_func
 230              	Supercap_Send:
 231              	.LFB145:
  87:control-base/devices/src/supercap.c **** 
  88:control-base/devices/src/supercap.c **** 
  89:control-base/devices/src/supercap.c **** // fomrate PXXXP -  sending XXX as power
  90:control-base/devices/src/supercap.c **** // PVONP - Turn on supercap
  91:control-base/devices/src/supercap.c **** // PVOFFP - Turn off supercap
  92:control-base/devices/src/supercap.c **** void Supercap_Send(void)
  93:control-base/devices/src/supercap.c **** {
 232              		.loc 1 93 1 is_stmt 1 view -0
 233              		.cfi_startproc
 234              		@ args = 0, pretend = 0, frame = 0
 235              		@ frame_needed = 0, uses_anonymous_args = 0
  94:control-base/devices/src/supercap.c ****     if (!supercap_uart_instance_initialized) {
 236              		.loc 1 94 5 view .LVU38
 237              		.loc 1 94 9 is_stmt 0 view .LVU39
 238 0000 124B     		ldr	r3, .L24
 239 0002 1B78     		ldrb	r3, [r3]	@ zero_extendqisi2
 240              		.loc 1 94 8 view .LVU40
 241 0004 0BB3     		cbz	r3, .L21
  93:control-base/devices/src/supercap.c ****     if (!supercap_uart_instance_initialized) {
 242              		.loc 1 93 1 view .LVU41
 243 0006 10B5     		push	{r4, lr}
 244              	.LCFI5:
 245              		.cfi_def_cfa_offset 8
ARM GAS  /var/folders/sg/pxk9dyzj7jz_x3889hx3b3dw0000gn/T//ccmldKxi.s 			page 7


 246              		.cfi_offset 4, -8
 247              		.cfi_offset 14, -4
  95:control-base/devices/src/supercap.c ****         return;
  96:control-base/devices/src/supercap.c ****     }
  97:control-base/devices/src/supercap.c **** 
  98:control-base/devices/src/supercap.c ****     
  99:control-base/devices/src/supercap.c ****     // Send supercap data
 100:control-base/devices/src/supercap.c ****     // uint16_t *supercap_tx = (uint16_t *) supercap_can_instance->tx_buffer;
 101:control-base/devices/src/supercap.c ****     // supercap_tx[0] = 0x003C;
 102:control-base/devices/src/supercap.c ****     // supercap_tx[1] = 0x003C;
 103:control-base/devices/src/supercap.c ****     // supercap_tx[2] = 0x2012;
 104:control-base/devices/src/supercap.c ****     // supercap_tx[3] = 0x0112;
 105:control-base/devices/src/supercap.c ****     // ! do not write more than 8 bytes to the buffer
 106:control-base/devices/src/supercap.c **** 
 107:control-base/devices/src/supercap.c **** 	// UART_Transmit(supercap_uart_instance_ptr, g_supercap.tx_buffer, sizeof(g_orin_data.tx_buffer), 
 108:control-base/devices/src/supercap.c ****     // uint8_t max_power = 60;
 109:control-base/devices/src/supercap.c ****     // UART_Transmit(supercap_uart_instance_ptr->uart_handle, "P%03dP\r\n", g_board_comm_package.Ch
 110:control-base/devices/src/supercap.c ****     if(g_board_comm_package.chassis_powered_on)
 248              		.loc 1 110 5 is_stmt 1 view .LVU42
 249              		.loc 1 110 28 is_stmt 0 view .LVU43
 250 0008 114B     		ldr	r3, .L24+4
 251 000a 9B7A     		ldrb	r3, [r3, #10]	@ zero_extendqisi2
 252              		.loc 1 110 7 view .LVU44
 253 000c 9BB1     		cbz	r3, .L19
 111:control-base/devices/src/supercap.c ****     {
 112:control-base/devices/src/supercap.c ****         HAL_Delay(100); // wait for the uart to be ready
 254              		.loc 1 112 9 is_stmt 1 view .LVU45
 255 000e 6420     		movs	r0, #100
 256 0010 FFF7FEFF 		bl	HAL_Delay
 257              	.LVL11:
 113:control-base/devices/src/supercap.c ****         DEBUG_PRINTF(supercap_uart_instance_ptr->uart_handle, "PVONP\r\n");
 258              		.loc 1 113 9 view .LVU46
 259 0014 0F4C     		ldr	r4, .L24+8
 260 0016 2368     		ldr	r3, [r4]
 261 0018 0F49     		ldr	r1, .L24+12
 262 001a 1868     		ldr	r0, [r3]
 263 001c FFF7FEFF 		bl	debug_printf
 264              	.LVL12:
 114:control-base/devices/src/supercap.c ****         HAL_Delay(100);
 265              		.loc 1 114 9 view .LVU47
 266 0020 6420     		movs	r0, #100
 267 0022 FFF7FEFF 		bl	HAL_Delay
 268              	.LVL13:
 115:control-base/devices/src/supercap.c ****         DEBUG_PRINTF(supercap_uart_instance_ptr->uart_handle, "P%03dP\r\n", g_board_comm_package.po
 269              		.loc 1 115 9 view .LVU48
 270 0026 2368     		ldr	r3, [r4]
 271 0028 094A     		ldr	r2, .L24+4
 272 002a 1289     		ldrh	r2, [r2, #8]
 273 002c 0B49     		ldr	r1, .L24+16
 274 002e 1868     		ldr	r0, [r3]
 275 0030 FFF7FEFF 		bl	debug_printf
 276              	.LVL14:
 277              	.L17:
 116:control-base/devices/src/supercap.c ****     }
 117:control-base/devices/src/supercap.c ****     else
 118:control-base/devices/src/supercap.c ****     {
 119:control-base/devices/src/supercap.c ****         HAL_Delay(100); // wait for the uart to be ready
ARM GAS  /var/folders/sg/pxk9dyzj7jz_x3889hx3b3dw0000gn/T//ccmldKxi.s 			page 8


 120:control-base/devices/src/supercap.c ****         DEBUG_PRINTF(supercap_uart_instance_ptr->uart_handle, "PVOFP\r\n");
 121:control-base/devices/src/supercap.c ****     }
 122:control-base/devices/src/supercap.c ****     
 123:control-base/devices/src/supercap.c **** 
 124:control-base/devices/src/supercap.c **** }...
 278              		.loc 1 124 1 is_stmt 0 view .LVU49
 279 0034 10BD     		pop	{r4, pc}
 280              	.L19:
 119:control-base/devices/src/supercap.c ****         HAL_Delay(100); // wait for the uart to be ready
 281              		.loc 1 119 9 is_stmt 1 view .LVU50
 282 0036 6420     		movs	r0, #100
 283 0038 FFF7FEFF 		bl	HAL_Delay
 284              	.LVL15:
 120:control-base/devices/src/supercap.c ****         DEBUG_PRINTF(supercap_uart_instance_ptr->uart_handle, "PVOFP\r\n");
 285              		.loc 1 120 9 view .LVU51
 286 003c 054B     		ldr	r3, .L24+8
 287 003e 1B68     		ldr	r3, [r3]
 288 0040 0749     		ldr	r1, .L24+20
 289 0042 1868     		ldr	r0, [r3]
 290 0044 FFF7FEFF 		bl	debug_printf
 291              	.LVL16:
 292 0048 F4E7     		b	.L17
 293              	.L21:
 294              	.LCFI6:
 295              		.cfi_def_cfa_offset 0
 296              		.cfi_restore 4
 297              		.cfi_restore 14
 298 004a 7047     		bx	lr
 299              	.L25:
 300              		.align	2
 301              	.L24:
 302 004c 00000000 		.word	supercap_uart_instance_initialized
 303 0050 00000000 		.word	g_board_comm_package
 304 0054 00000000 		.word	supercap_uart_instance_ptr
 305 0058 00000000 		.word	.LC1
 306 005c 08000000 		.word	.LC2
 307 0060 14000000 		.word	.LC3
 308              		.cfi_endproc
 309              	.LFE145:
 311              		.global	g_supercap_data
 312              		.section	.bss.g_supercap_data,"aw",%nobits
 313              		.align	2
 316              	g_supercap_data:
 317 0000 00000000 		.space	8
 317      00000000 
 318              		.global	supercap_uart_instance_initialized
 319              		.section	.bss.supercap_uart_instance_initialized,"aw",%nobits
 322              	supercap_uart_instance_initialized:
 323 0000 00       		.space	1
 324              		.global	uart_index
 325              		.section	.bss.uart_index,"aw",%nobits
 328              	uart_index:
 329 0000 00       		.space	1
 330              		.global	uart_byte
 331              		.section	.bss.uart_byte,"aw",%nobits
 334              	uart_byte:
 335 0000 00       		.space	1
ARM GAS  /var/folders/sg/pxk9dyzj7jz_x3889hx3b3dw0000gn/T//ccmldKxi.s 			page 9


 336              		.global	uart_buffer
 337              		.section	.bss.uart_buffer,"aw",%nobits
 338              		.align	2
 341              	uart_buffer:
 342 0000 00       		.space	1
 343              		.global	middle_cpy
 344              		.section	.bss.middle_cpy,"aw",%nobits
 345              		.align	2
 348              	middle_cpy:
 349 0000 00000000 		.space	4
 350              		.global	supercap_uart_instance_ptr
 351              		.section	.bss.supercap_uart_instance_ptr,"aw",%nobits
 352              		.align	2
 355              	supercap_uart_instance_ptr:
 356 0000 00000000 		.space	4
 357              		.global	g_supercap_daemon_ptr
 358              		.section	.bss.g_supercap_daemon_ptr,"aw",%nobits
 359              		.align	2
 362              	g_supercap_daemon_ptr:
 363 0000 00000000 		.space	4
 364              		.global	g_supercap
 365              		.section	.bss.g_supercap,"aw",%nobits
 366              		.align	2
 369              	g_supercap:
 370 0000 00000000 		.space	168
 370      00000000 
 370      00000000 
 370      00000000 
 370      00000000 
 371              		.text
 372              	.Letext0:
 373              		.file 2 "/Applications/ArmGNUToolchain/14.3.rel1/arm-none-eabi/arm-none-eabi/include/machine/_defa
 374              		.file 3 "/Applications/ArmGNUToolchain/14.3.rel1/arm-none-eabi/arm-none-eabi/include/sys/_stdint.h
 375              		.file 4 "control-base/typec-board-base/Drivers/CMSIS/Device/ST/STM32F4xx/Include/stm32f407xx.h"
 376              		.file 5 "control-base/typec-board-base/Drivers/STM32F4xx_HAL_Driver/Inc/stm32f4xx_hal_def.h"
 377              		.file 6 "control-base/typec-board-base/Drivers/STM32F4xx_HAL_Driver/Inc/stm32f4xx_hal_dma.h"
 378              		.file 7 "control-base/typec-board-base/Drivers/STM32F4xx_HAL_Driver/Inc/stm32f4xx_hal_uart.h"
 379              		.file 8 "control-base/bsp/inc/bsp_uart.h"
 380              		.file 9 "control-base/bsp/inc/bsp_daemon.h"
 381              		.file 10 "control-base/devices/inc/supercap.h"
 382              		.file 11 "Sentry/inc/c_board_comm.h"
 383              		.file 12 "control-base/bsp/inc/bsp_serial.h"
 384              		.file 13 "control-base/typec-board-base/Drivers/STM32F4xx_HAL_Driver/Inc/stm32f4xx_hal.h"
 385              		.file 14 "/Applications/ArmGNUToolchain/14.3.rel1/arm-none-eabi/arm-none-eabi/include/stdio.h"
ARM GAS  /var/folders/sg/pxk9dyzj7jz_x3889hx3b3dw0000gn/T//ccmldKxi.s 			page 10

