ARM GAS  /var/folders/sg/pxk9dyzj7jz_x3889hx3b3dw0000gn/T//ccLxPCKZ.s 			page 1


   1              		.cpu cortex-m4
   2              		.arch armv7e-m
   3              		.fpu fpv4-sp-d16
   4              		.eabi_attribute 27, 1
   5              		.eabi_attribute 28, 1
   6              		.eabi_attribute 20, 1
   7              		.eabi_attribute 21, 1
   8              		.eabi_attribute 23, 3
   9              		.eabi_attribute 24, 1
  10              		.eabi_attribute 25, 1
  11              		.eabi_attribute 26, 1
  12              		.eabi_attribute 30, 1
  13              		.eabi_attribute 34, 1
  14              		.eabi_attribute 18, 4
  15              		.file	"bmi088driver.c"
  16              		.text
  17              	.Ltext0:
  18              		.cfi_sections	.debug_frame
  19              		.file 1 "control-base/devices/src/bmi088driver.c"
  20              		.section	.text.BMI088_write_single_reg,"ax",%progbits
  21              		.align	1
  22              		.syntax unified
  23              		.thumb
  24              		.thumb_func
  26              	BMI088_write_single_reg:
  27              	.LVL0:
  28              	.LFB149:
   1:control-base/devices/src/bmi088driver.c **** #include "bmi088driver.h"
   2:control-base/devices/src/bmi088driver.c **** #include "bmi088reg.h"
   3:control-base/devices/src/bmi088driver.c **** #include "bmi088middleware.h"
   4:control-base/devices/src/bmi088driver.c **** 
   5:control-base/devices/src/bmi088driver.c **** 
   6:control-base/devices/src/bmi088driver.c **** float BMI088_ACCEL_SEN = BMI088_ACCEL_3G_SEN;
   7:control-base/devices/src/bmi088driver.c **** float BMI088_GYRO_SEN = BMI088_GYRO_2000_SEN;
   8:control-base/devices/src/bmi088driver.c **** 
   9:control-base/devices/src/bmi088driver.c **** 
  10:control-base/devices/src/bmi088driver.c **** #if defined(BMI088_USE_SPI)
  11:control-base/devices/src/bmi088driver.c **** 
  12:control-base/devices/src/bmi088driver.c **** #define BMI088_accel_write_single_reg(reg, data) \
  13:control-base/devices/src/bmi088driver.c ****     {                                            \
  14:control-base/devices/src/bmi088driver.c ****         BMI088_ACCEL_NS_L();                     \
  15:control-base/devices/src/bmi088driver.c ****         BMI088_write_single_reg((reg), (data));  \
  16:control-base/devices/src/bmi088driver.c ****         BMI088_ACCEL_NS_H();                     \
  17:control-base/devices/src/bmi088driver.c ****     }
  18:control-base/devices/src/bmi088driver.c **** #define BMI088_accel_read_single_reg(reg, data) \
  19:control-base/devices/src/bmi088driver.c ****     {                                           \
  20:control-base/devices/src/bmi088driver.c ****         BMI088_ACCEL_NS_L();                    \
  21:control-base/devices/src/bmi088driver.c ****         BMI088_read_write_byte((reg) | 0x80);   \
  22:control-base/devices/src/bmi088driver.c ****         BMI088_read_write_byte(0x55);           \
  23:control-base/devices/src/bmi088driver.c ****         (data) = BMI088_read_write_byte(0x55);  \
  24:control-base/devices/src/bmi088driver.c ****         BMI088_ACCEL_NS_H();                    \
  25:control-base/devices/src/bmi088driver.c ****     }
  26:control-base/devices/src/bmi088driver.c **** //#define BMI088_accel_write_muli_reg( reg,  data, len) { BMI088_ACCEL_NS_L(); BMI088_write_muli_re
  27:control-base/devices/src/bmi088driver.c **** #define BMI088_accel_read_muli_reg(reg, data, len) \
  28:control-base/devices/src/bmi088driver.c ****     {                                              \
  29:control-base/devices/src/bmi088driver.c ****         BMI088_ACCEL_NS_L();                       \
  30:control-base/devices/src/bmi088driver.c ****         BMI088_read_write_byte((reg) | 0x80);      \
ARM GAS  /var/folders/sg/pxk9dyzj7jz_x3889hx3b3dw0000gn/T//ccLxPCKZ.s 			page 2


  31:control-base/devices/src/bmi088driver.c ****         BMI088_read_muli_reg(reg, data, len);      \
  32:control-base/devices/src/bmi088driver.c ****         BMI088_ACCEL_NS_H();                       \
  33:control-base/devices/src/bmi088driver.c ****     }
  34:control-base/devices/src/bmi088driver.c **** 
  35:control-base/devices/src/bmi088driver.c **** #define BMI088_gyro_write_single_reg(reg, data) \
  36:control-base/devices/src/bmi088driver.c ****     {                                           \
  37:control-base/devices/src/bmi088driver.c ****         BMI088_GYRO_NS_L();                     \
  38:control-base/devices/src/bmi088driver.c ****         BMI088_write_single_reg((reg), (data)); \
  39:control-base/devices/src/bmi088driver.c ****         BMI088_GYRO_NS_H();                     \
  40:control-base/devices/src/bmi088driver.c ****     }
  41:control-base/devices/src/bmi088driver.c **** #define BMI088_gyro_read_single_reg(reg, data)  \
  42:control-base/devices/src/bmi088driver.c ****     {                                           \
  43:control-base/devices/src/bmi088driver.c ****         BMI088_GYRO_NS_L();                     \
  44:control-base/devices/src/bmi088driver.c ****         BMI088_read_single_reg((reg), &(data)); \
  45:control-base/devices/src/bmi088driver.c ****         BMI088_GYRO_NS_H();                     \
  46:control-base/devices/src/bmi088driver.c ****     }
  47:control-base/devices/src/bmi088driver.c **** //#define BMI088_gyro_write_muli_reg( reg,  data, len) { BMI088_GYRO_NS_L(); BMI088_write_muli_reg(
  48:control-base/devices/src/bmi088driver.c **** #define BMI088_gyro_read_muli_reg(reg, data, len)   \
  49:control-base/devices/src/bmi088driver.c ****     {                                               \
  50:control-base/devices/src/bmi088driver.c ****         BMI088_GYRO_NS_L();                         \
  51:control-base/devices/src/bmi088driver.c ****         BMI088_read_muli_reg((reg), (data), (len)); \
  52:control-base/devices/src/bmi088driver.c ****         BMI088_GYRO_NS_H();                         \
  53:control-base/devices/src/bmi088driver.c ****     }
  54:control-base/devices/src/bmi088driver.c **** 
  55:control-base/devices/src/bmi088driver.c **** static void BMI088_write_single_reg(uint8_t reg, uint8_t data);
  56:control-base/devices/src/bmi088driver.c **** static void BMI088_read_single_reg(uint8_t reg, uint8_t *return_data);
  57:control-base/devices/src/bmi088driver.c **** //static void BMI088_write_muli_reg(uint8_t reg, uint8_t* buf, uint8_t len );
  58:control-base/devices/src/bmi088driver.c **** static void BMI088_read_muli_reg(uint8_t reg, uint8_t *buf, uint8_t len);
  59:control-base/devices/src/bmi088driver.c **** 
  60:control-base/devices/src/bmi088driver.c **** #elif defined(BMI088_USE_IIC)
  61:control-base/devices/src/bmi088driver.c **** 
  62:control-base/devices/src/bmi088driver.c **** 
  63:control-base/devices/src/bmi088driver.c **** #endif
  64:control-base/devices/src/bmi088driver.c **** 
  65:control-base/devices/src/bmi088driver.c **** static uint8_t write_BMI088_accel_reg_data_error[BMI088_WRITE_ACCEL_REG_NUM][3] =
  66:control-base/devices/src/bmi088driver.c ****     {
  67:control-base/devices/src/bmi088driver.c ****         {BMI088_ACC_PWR_CTRL, BMI088_ACC_ENABLE_ACC_ON, BMI088_ACC_PWR_CTRL_ERROR},
  68:control-base/devices/src/bmi088driver.c ****         {BMI088_ACC_PWR_CONF, BMI088_ACC_PWR_ACTIVE_MODE, BMI088_ACC_PWR_CONF_ERROR},
  69:control-base/devices/src/bmi088driver.c ****         {BMI088_ACC_CONF,  BMI088_ACC_NORMAL| BMI088_ACC_800_HZ | BMI088_ACC_CONF_MUST_Set, BMI088_
  70:control-base/devices/src/bmi088driver.c ****         {BMI088_ACC_RANGE, BMI088_ACC_RANGE_3G, BMI088_ACC_RANGE_ERROR},
  71:control-base/devices/src/bmi088driver.c ****         {BMI088_INT1_IO_CTRL, BMI088_ACC_INT1_IO_ENABLE | BMI088_ACC_INT1_GPIO_PP | BMI088_ACC_INT1
  72:control-base/devices/src/bmi088driver.c ****         {BMI088_INT_MAP_DATA, BMI088_ACC_INT1_DRDY_INTERRUPT, BMI088_INT_MAP_DATA_ERROR}
  73:control-base/devices/src/bmi088driver.c **** 
  74:control-base/devices/src/bmi088driver.c **** };
  75:control-base/devices/src/bmi088driver.c **** 
  76:control-base/devices/src/bmi088driver.c **** static uint8_t write_BMI088_gyro_reg_data_error[BMI088_WRITE_GYRO_REG_NUM][3] =
  77:control-base/devices/src/bmi088driver.c ****     {
  78:control-base/devices/src/bmi088driver.c ****         {BMI088_GYRO_RANGE, BMI088_GYRO_2000, BMI088_GYRO_RANGE_ERROR},
  79:control-base/devices/src/bmi088driver.c ****         {BMI088_GYRO_BANDWIDTH, BMI088_GYRO_1000_116_HZ | BMI088_GYRO_BANDWIDTH_MUST_Set, BMI088_GY
  80:control-base/devices/src/bmi088driver.c ****         {BMI088_GYRO_LPM1, BMI088_GYRO_NORMAL_MODE, BMI088_GYRO_LPM1_ERROR},
  81:control-base/devices/src/bmi088driver.c ****         {BMI088_GYRO_CTRL, BMI088_DRDY_ON, BMI088_GYRO_CTRL_ERROR},
  82:control-base/devices/src/bmi088driver.c ****         {BMI088_GYRO_INT3_INT4_IO_CONF, BMI088_GYRO_INT3_GPIO_PP | BMI088_GYRO_INT3_GPIO_LOW, BMI08
  83:control-base/devices/src/bmi088driver.c ****         {BMI088_GYRO_INT3_INT4_IO_MAP, BMI088_GYRO_DRDY_IO_INT3, BMI088_GYRO_INT3_INT4_IO_MAP_ERROR
  84:control-base/devices/src/bmi088driver.c **** 
  85:control-base/devices/src/bmi088driver.c **** };
  86:control-base/devices/src/bmi088driver.c **** 
  87:control-base/devices/src/bmi088driver.c **** uint8_t BMI088_init(void)
ARM GAS  /var/folders/sg/pxk9dyzj7jz_x3889hx3b3dw0000gn/T//ccLxPCKZ.s 			page 3


  88:control-base/devices/src/bmi088driver.c **** {
  89:control-base/devices/src/bmi088driver.c ****     uint8_t error = BMI088_NO_ERROR;
  90:control-base/devices/src/bmi088driver.c **** 
  91:control-base/devices/src/bmi088driver.c ****     // self test pass and init
  92:control-base/devices/src/bmi088driver.c ****     if (bmi088_accel_self_test() != BMI088_NO_ERROR)
  93:control-base/devices/src/bmi088driver.c ****     {
  94:control-base/devices/src/bmi088driver.c ****         error |= BMI088_SELF_TEST_ACCEL_ERROR;
  95:control-base/devices/src/bmi088driver.c ****     }
  96:control-base/devices/src/bmi088driver.c ****     else
  97:control-base/devices/src/bmi088driver.c ****     {
  98:control-base/devices/src/bmi088driver.c ****         error |= bmi088_accel_init();
  99:control-base/devices/src/bmi088driver.c ****     }
 100:control-base/devices/src/bmi088driver.c ****     bmi088_accel_init();
 101:control-base/devices/src/bmi088driver.c ****     if (bmi088_gyro_self_test() != BMI088_NO_ERROR)
 102:control-base/devices/src/bmi088driver.c ****     {
 103:control-base/devices/src/bmi088driver.c ****         error |= BMI088_SELF_TEST_GYRO_ERROR;
 104:control-base/devices/src/bmi088driver.c ****     }
 105:control-base/devices/src/bmi088driver.c ****     else
 106:control-base/devices/src/bmi088driver.c ****     {
 107:control-base/devices/src/bmi088driver.c ****         error |= bmi088_gyro_init();
 108:control-base/devices/src/bmi088driver.c ****     }
 109:control-base/devices/src/bmi088driver.c **** 
 110:control-base/devices/src/bmi088driver.c ****     return error;
 111:control-base/devices/src/bmi088driver.c **** }
 112:control-base/devices/src/bmi088driver.c **** 
 113:control-base/devices/src/bmi088driver.c **** uint8_t bmi088_accel_init(void)
 114:control-base/devices/src/bmi088driver.c **** {
 115:control-base/devices/src/bmi088driver.c ****     volatile uint8_t res = 0;
 116:control-base/devices/src/bmi088driver.c ****     uint8_t write_reg_num = 0;
 117:control-base/devices/src/bmi088driver.c **** 
 118:control-base/devices/src/bmi088driver.c ****     //set accel sonsor config and check
 119:control-base/devices/src/bmi088driver.c ****     for (write_reg_num = 0; write_reg_num < BMI088_WRITE_ACCEL_REG_NUM; write_reg_num++)
 120:control-base/devices/src/bmi088driver.c ****     {
 121:control-base/devices/src/bmi088driver.c **** 
 122:control-base/devices/src/bmi088driver.c ****         BMI088_accel_write_single_reg(write_BMI088_accel_reg_data_error[write_reg_num][0], write_BM
 123:control-base/devices/src/bmi088driver.c ****         BMI088_delay_us(BMI088_COM_WAIT_SENSOR_TIME);
 124:control-base/devices/src/bmi088driver.c **** 
 125:control-base/devices/src/bmi088driver.c ****         BMI088_accel_read_single_reg(write_BMI088_accel_reg_data_error[write_reg_num][0], res);
 126:control-base/devices/src/bmi088driver.c ****         BMI088_delay_us(BMI088_COM_WAIT_SENSOR_TIME);
 127:control-base/devices/src/bmi088driver.c **** 
 128:control-base/devices/src/bmi088driver.c ****         if (res != write_BMI088_accel_reg_data_error[write_reg_num][1])
 129:control-base/devices/src/bmi088driver.c ****         {
 130:control-base/devices/src/bmi088driver.c ****             return write_BMI088_accel_reg_data_error[write_reg_num][2];
 131:control-base/devices/src/bmi088driver.c ****         }
 132:control-base/devices/src/bmi088driver.c ****     }
 133:control-base/devices/src/bmi088driver.c ****     return BMI088_NO_ERROR;
 134:control-base/devices/src/bmi088driver.c **** }
 135:control-base/devices/src/bmi088driver.c **** 
 136:control-base/devices/src/bmi088driver.c **** uint8_t bmi088_gyro_init(void)
 137:control-base/devices/src/bmi088driver.c **** {
 138:control-base/devices/src/bmi088driver.c ****     uint8_t write_reg_num = 0;
 139:control-base/devices/src/bmi088driver.c ****     uint8_t res = 0;
 140:control-base/devices/src/bmi088driver.c **** 
 141:control-base/devices/src/bmi088driver.c ****     //check commiunication
 142:control-base/devices/src/bmi088driver.c ****     BMI088_gyro_read_single_reg(BMI088_GYRO_CHIP_ID, res);
 143:control-base/devices/src/bmi088driver.c ****     BMI088_delay_us(BMI088_COM_WAIT_SENSOR_TIME);
 144:control-base/devices/src/bmi088driver.c ****     BMI088_gyro_read_single_reg(BMI088_GYRO_CHIP_ID, res);
ARM GAS  /var/folders/sg/pxk9dyzj7jz_x3889hx3b3dw0000gn/T//ccLxPCKZ.s 			page 4


 145:control-base/devices/src/bmi088driver.c ****     BMI088_delay_us(BMI088_COM_WAIT_SENSOR_TIME);
 146:control-base/devices/src/bmi088driver.c **** 
 147:control-base/devices/src/bmi088driver.c ****     //reset the gyro sensor
 148:control-base/devices/src/bmi088driver.c ****     BMI088_gyro_write_single_reg(BMI088_GYRO_SOFTRESET, BMI088_GYRO_SOFTRESET_VALUE);
 149:control-base/devices/src/bmi088driver.c ****     BMI088_delay_ms(BMI088_LONG_DELAY_TIME);
 150:control-base/devices/src/bmi088driver.c ****     //check commiunication is normal after reset
 151:control-base/devices/src/bmi088driver.c ****     BMI088_gyro_read_single_reg(BMI088_GYRO_CHIP_ID, res);
 152:control-base/devices/src/bmi088driver.c ****     BMI088_delay_us(BMI088_COM_WAIT_SENSOR_TIME);
 153:control-base/devices/src/bmi088driver.c ****     BMI088_gyro_read_single_reg(BMI088_GYRO_CHIP_ID, res);
 154:control-base/devices/src/bmi088driver.c ****     BMI088_delay_us(BMI088_COM_WAIT_SENSOR_TIME);
 155:control-base/devices/src/bmi088driver.c **** 
 156:control-base/devices/src/bmi088driver.c ****     // check the "who am I"
 157:control-base/devices/src/bmi088driver.c ****     if (res != BMI088_GYRO_CHIP_ID_VALUE)
 158:control-base/devices/src/bmi088driver.c ****     {
 159:control-base/devices/src/bmi088driver.c ****         return BMI088_NO_SENSOR;
 160:control-base/devices/src/bmi088driver.c ****     }
 161:control-base/devices/src/bmi088driver.c **** 
 162:control-base/devices/src/bmi088driver.c ****     //set gyro sonsor config and check
 163:control-base/devices/src/bmi088driver.c ****     for (write_reg_num = 0; write_reg_num < BMI088_WRITE_GYRO_REG_NUM; write_reg_num++)
 164:control-base/devices/src/bmi088driver.c ****     {
 165:control-base/devices/src/bmi088driver.c **** 
 166:control-base/devices/src/bmi088driver.c ****         BMI088_gyro_write_single_reg(write_BMI088_gyro_reg_data_error[write_reg_num][0], write_BMI0
 167:control-base/devices/src/bmi088driver.c ****         BMI088_delay_us(BMI088_COM_WAIT_SENSOR_TIME);
 168:control-base/devices/src/bmi088driver.c **** 
 169:control-base/devices/src/bmi088driver.c ****         BMI088_gyro_read_single_reg(write_BMI088_gyro_reg_data_error[write_reg_num][0], res);
 170:control-base/devices/src/bmi088driver.c ****         BMI088_delay_us(BMI088_COM_WAIT_SENSOR_TIME);
 171:control-base/devices/src/bmi088driver.c **** 
 172:control-base/devices/src/bmi088driver.c ****         if (res != write_BMI088_gyro_reg_data_error[write_reg_num][1])
 173:control-base/devices/src/bmi088driver.c ****         {
 174:control-base/devices/src/bmi088driver.c ****             return write_BMI088_gyro_reg_data_error[write_reg_num][2];
 175:control-base/devices/src/bmi088driver.c ****         }
 176:control-base/devices/src/bmi088driver.c ****     }
 177:control-base/devices/src/bmi088driver.c **** 
 178:control-base/devices/src/bmi088driver.c ****     return BMI088_NO_ERROR;
 179:control-base/devices/src/bmi088driver.c **** }
 180:control-base/devices/src/bmi088driver.c **** 
 181:control-base/devices/src/bmi088driver.c **** uint8_t bmi088_accel_self_test(void)
 182:control-base/devices/src/bmi088driver.c **** {
 183:control-base/devices/src/bmi088driver.c **** 
 184:control-base/devices/src/bmi088driver.c ****     int16_t self_test_accel[2][3];
 185:control-base/devices/src/bmi088driver.c **** 
 186:control-base/devices/src/bmi088driver.c ****     uint8_t buf[6] = {0, 0, 0, 0, 0, 0};
 187:control-base/devices/src/bmi088driver.c ****     volatile uint8_t res = 0;
 188:control-base/devices/src/bmi088driver.c **** 
 189:control-base/devices/src/bmi088driver.c ****     uint8_t write_reg_num = 0;
 190:control-base/devices/src/bmi088driver.c **** 
 191:control-base/devices/src/bmi088driver.c ****     static const uint8_t write_BMI088_ACCEL_self_test_Reg_Data_Error[6][3] =
 192:control-base/devices/src/bmi088driver.c ****         {
 193:control-base/devices/src/bmi088driver.c ****             {BMI088_ACC_CONF, BMI088_ACC_NORMAL | BMI088_ACC_1600_HZ | BMI088_ACC_CONF_MUST_Set, BM
 194:control-base/devices/src/bmi088driver.c ****             {BMI088_ACC_PWR_CTRL, BMI088_ACC_ENABLE_ACC_ON, BMI088_ACC_PWR_CTRL_ERROR},
 195:control-base/devices/src/bmi088driver.c ****             {BMI088_ACC_RANGE, BMI088_ACC_RANGE_24G, BMI088_ACC_RANGE_ERROR},
 196:control-base/devices/src/bmi088driver.c ****             {BMI088_ACC_PWR_CONF, BMI088_ACC_PWR_ACTIVE_MODE, BMI088_ACC_PWR_CONF_ERROR},
 197:control-base/devices/src/bmi088driver.c ****             {BMI088_ACC_SELF_TEST, BMI088_ACC_SELF_TEST_POSITIVE_SIGNAL, BMI088_ACC_PWR_CONF_ERROR}
 198:control-base/devices/src/bmi088driver.c ****             {BMI088_ACC_SELF_TEST, BMI088_ACC_SELF_TEST_NEGATIVE_SIGNAL, BMI088_ACC_PWR_CONF_ERROR}
 199:control-base/devices/src/bmi088driver.c **** 
 200:control-base/devices/src/bmi088driver.c ****         };
 201:control-base/devices/src/bmi088driver.c **** 
ARM GAS  /var/folders/sg/pxk9dyzj7jz_x3889hx3b3dw0000gn/T//ccLxPCKZ.s 			page 5


 202:control-base/devices/src/bmi088driver.c ****     //check commiunication is normal
 203:control-base/devices/src/bmi088driver.c ****     BMI088_accel_read_single_reg(BMI088_ACC_CHIP_ID, res);
 204:control-base/devices/src/bmi088driver.c ****     BMI088_delay_us(BMI088_COM_WAIT_SENSOR_TIME);
 205:control-base/devices/src/bmi088driver.c ****     BMI088_accel_read_single_reg(BMI088_ACC_CHIP_ID, res);
 206:control-base/devices/src/bmi088driver.c ****     BMI088_delay_us(BMI088_COM_WAIT_SENSOR_TIME);
 207:control-base/devices/src/bmi088driver.c **** 
 208:control-base/devices/src/bmi088driver.c ****     // reset  bmi088 accel sensor and wait for > 50ms
 209:control-base/devices/src/bmi088driver.c ****     BMI088_accel_write_single_reg(BMI088_ACC_SOFTRESET, BMI088_ACC_SOFTRESET_VALUE);
 210:control-base/devices/src/bmi088driver.c ****     BMI088_delay_ms(BMI088_LONG_DELAY_TIME);
 211:control-base/devices/src/bmi088driver.c **** 
 212:control-base/devices/src/bmi088driver.c ****     //check commiunication is normal
 213:control-base/devices/src/bmi088driver.c ****     BMI088_accel_read_single_reg(BMI088_ACC_CHIP_ID, res);
 214:control-base/devices/src/bmi088driver.c ****     BMI088_delay_us(BMI088_COM_WAIT_SENSOR_TIME);
 215:control-base/devices/src/bmi088driver.c ****     BMI088_accel_read_single_reg(BMI088_ACC_CHIP_ID, res);
 216:control-base/devices/src/bmi088driver.c ****     BMI088_delay_us(BMI088_COM_WAIT_SENSOR_TIME);
 217:control-base/devices/src/bmi088driver.c **** 
 218:control-base/devices/src/bmi088driver.c ****     if (res != BMI088_ACC_CHIP_ID_VALUE)
 219:control-base/devices/src/bmi088driver.c ****     {
 220:control-base/devices/src/bmi088driver.c ****         return BMI088_NO_SENSOR;
 221:control-base/devices/src/bmi088driver.c ****     }
 222:control-base/devices/src/bmi088driver.c **** 
 223:control-base/devices/src/bmi088driver.c ****     // set the accel register
 224:control-base/devices/src/bmi088driver.c ****     for (write_reg_num = 0; write_reg_num < 4; write_reg_num++)
 225:control-base/devices/src/bmi088driver.c ****     {
 226:control-base/devices/src/bmi088driver.c **** 
 227:control-base/devices/src/bmi088driver.c ****         BMI088_accel_write_single_reg(write_BMI088_ACCEL_self_test_Reg_Data_Error[write_reg_num][0]
 228:control-base/devices/src/bmi088driver.c ****         BMI088_delay_ms(BMI088_COM_WAIT_SENSOR_TIME);
 229:control-base/devices/src/bmi088driver.c **** 
 230:control-base/devices/src/bmi088driver.c ****         BMI088_accel_read_single_reg(write_BMI088_ACCEL_self_test_Reg_Data_Error[write_reg_num][0],
 231:control-base/devices/src/bmi088driver.c ****         BMI088_delay_ms(BMI088_COM_WAIT_SENSOR_TIME);
 232:control-base/devices/src/bmi088driver.c **** 
 233:control-base/devices/src/bmi088driver.c ****         if (res != write_BMI088_ACCEL_self_test_Reg_Data_Error[write_reg_num][1])
 234:control-base/devices/src/bmi088driver.c ****         {   
 235:control-base/devices/src/bmi088driver.c ****             return write_BMI088_ACCEL_self_test_Reg_Data_Error[write_reg_num][2];
 236:control-base/devices/src/bmi088driver.c ****         }
 237:control-base/devices/src/bmi088driver.c ****         // accel conf and accel range  . the two register set need wait for > 50ms
 238:control-base/devices/src/bmi088driver.c ****         BMI088_delay_ms(BMI088_LONG_DELAY_TIME);
 239:control-base/devices/src/bmi088driver.c ****     }
 240:control-base/devices/src/bmi088driver.c **** 
 241:control-base/devices/src/bmi088driver.c ****     // self test include postive and negative
 242:control-base/devices/src/bmi088driver.c ****     for (write_reg_num = 0; write_reg_num < 2; write_reg_num++)
 243:control-base/devices/src/bmi088driver.c ****     {
 244:control-base/devices/src/bmi088driver.c **** 
 245:control-base/devices/src/bmi088driver.c ****         BMI088_accel_write_single_reg(write_BMI088_ACCEL_self_test_Reg_Data_Error[write_reg_num + 4
 246:control-base/devices/src/bmi088driver.c ****         BMI088_delay_ms(BMI088_COM_WAIT_SENSOR_TIME);
 247:control-base/devices/src/bmi088driver.c **** 
 248:control-base/devices/src/bmi088driver.c ****         BMI088_accel_read_single_reg(write_BMI088_ACCEL_self_test_Reg_Data_Error[write_reg_num + 4]
 249:control-base/devices/src/bmi088driver.c ****         BMI088_delay_ms(BMI088_COM_WAIT_SENSOR_TIME);
 250:control-base/devices/src/bmi088driver.c **** 
 251:control-base/devices/src/bmi088driver.c ****         if (res != write_BMI088_ACCEL_self_test_Reg_Data_Error[write_reg_num + 4][1])
 252:control-base/devices/src/bmi088driver.c ****         {
 253:control-base/devices/src/bmi088driver.c ****             return write_BMI088_ACCEL_self_test_Reg_Data_Error[write_reg_num + 4][2];
 254:control-base/devices/src/bmi088driver.c ****         }
 255:control-base/devices/src/bmi088driver.c ****         // accel conf and accel range  . the two register set need wait for > 50ms
 256:control-base/devices/src/bmi088driver.c ****         BMI088_delay_ms(BMI088_LONG_DELAY_TIME);
 257:control-base/devices/src/bmi088driver.c **** 
 258:control-base/devices/src/bmi088driver.c ****         // read response accel
ARM GAS  /var/folders/sg/pxk9dyzj7jz_x3889hx3b3dw0000gn/T//ccLxPCKZ.s 			page 6


 259:control-base/devices/src/bmi088driver.c ****         BMI088_accel_read_muli_reg(BMI088_ACCEL_XOUT_L, buf, 6);
 260:control-base/devices/src/bmi088driver.c **** 
 261:control-base/devices/src/bmi088driver.c ****         self_test_accel[write_reg_num][0] = (int16_t)((buf[1]) << 8) | buf[0];
 262:control-base/devices/src/bmi088driver.c ****         self_test_accel[write_reg_num][1] = (int16_t)((buf[3]) << 8) | buf[2];
 263:control-base/devices/src/bmi088driver.c ****         self_test_accel[write_reg_num][2] = (int16_t)((buf[5]) << 8) | buf[4];
 264:control-base/devices/src/bmi088driver.c ****     }
 265:control-base/devices/src/bmi088driver.c **** 
 266:control-base/devices/src/bmi088driver.c ****     //set self test off
 267:control-base/devices/src/bmi088driver.c ****     BMI088_accel_write_single_reg(BMI088_ACC_SELF_TEST, BMI088_ACC_SELF_TEST_OFF);
 268:control-base/devices/src/bmi088driver.c ****     BMI088_delay_us(BMI088_COM_WAIT_SENSOR_TIME);
 269:control-base/devices/src/bmi088driver.c ****     BMI088_accel_read_single_reg(BMI088_ACC_SELF_TEST, res);
 270:control-base/devices/src/bmi088driver.c ****     BMI088_delay_us(BMI088_COM_WAIT_SENSOR_TIME);
 271:control-base/devices/src/bmi088driver.c **** 
 272:control-base/devices/src/bmi088driver.c ****     if (res != (BMI088_ACC_SELF_TEST_OFF))
 273:control-base/devices/src/bmi088driver.c ****     {
 274:control-base/devices/src/bmi088driver.c ****         return BMI088_ACC_SELF_TEST_ERROR;
 275:control-base/devices/src/bmi088driver.c ****     }
 276:control-base/devices/src/bmi088driver.c **** 
 277:control-base/devices/src/bmi088driver.c ****     //reset the accel sensor
 278:control-base/devices/src/bmi088driver.c ****     //BMI088_accel_write_single_reg(BMI088_ACC_SOFTRESET, BMI088_ACC_SOFTRESET_VALUE);
 279:control-base/devices/src/bmi088driver.c ****     //BMI088_delay_ms(BMI088_LONG_DELAY_TIME);
 280:control-base/devices/src/bmi088driver.c **** 
 281:control-base/devices/src/bmi088driver.c ****     if ((self_test_accel[0][0] - self_test_accel[1][0] < 1365) || (self_test_accel[0][1] - self_tes
 282:control-base/devices/src/bmi088driver.c ****     {
 283:control-base/devices/src/bmi088driver.c ****         //return BMI088_SELF_TEST_ACCEL_ERROR;
 284:control-base/devices/src/bmi088driver.c ****     }
 285:control-base/devices/src/bmi088driver.c **** 
 286:control-base/devices/src/bmi088driver.c ****     BMI088_accel_read_single_reg(BMI088_ACC_CHIP_ID, res);
 287:control-base/devices/src/bmi088driver.c ****     BMI088_delay_us(BMI088_COM_WAIT_SENSOR_TIME);
 288:control-base/devices/src/bmi088driver.c ****     BMI088_accel_read_single_reg(BMI088_ACC_CHIP_ID, res);
 289:control-base/devices/src/bmi088driver.c ****     BMI088_delay_us(BMI088_COM_WAIT_SENSOR_TIME);
 290:control-base/devices/src/bmi088driver.c **** 
 291:control-base/devices/src/bmi088driver.c ****     return BMI088_NO_ERROR;
 292:control-base/devices/src/bmi088driver.c **** }
 293:control-base/devices/src/bmi088driver.c **** uint8_t bmi088_gyro_self_test(void)
 294:control-base/devices/src/bmi088driver.c **** {
 295:control-base/devices/src/bmi088driver.c ****     uint8_t res = 0;
 296:control-base/devices/src/bmi088driver.c ****     uint8_t retry = 0;
 297:control-base/devices/src/bmi088driver.c ****     //check commiunication is normal
 298:control-base/devices/src/bmi088driver.c ****     BMI088_gyro_read_single_reg(BMI088_GYRO_CHIP_ID, res);
 299:control-base/devices/src/bmi088driver.c ****     BMI088_delay_us(BMI088_COM_WAIT_SENSOR_TIME);
 300:control-base/devices/src/bmi088driver.c ****     BMI088_gyro_read_single_reg(BMI088_GYRO_CHIP_ID, res);
 301:control-base/devices/src/bmi088driver.c ****     BMI088_delay_us(BMI088_COM_WAIT_SENSOR_TIME);
 302:control-base/devices/src/bmi088driver.c ****     //reset the gyro sensor
 303:control-base/devices/src/bmi088driver.c ****     BMI088_gyro_write_single_reg(BMI088_GYRO_SOFTRESET, BMI088_GYRO_SOFTRESET_VALUE);
 304:control-base/devices/src/bmi088driver.c ****     BMI088_delay_ms(BMI088_LONG_DELAY_TIME);
 305:control-base/devices/src/bmi088driver.c ****     //check commiunication is normal after reset
 306:control-base/devices/src/bmi088driver.c ****     BMI088_gyro_read_single_reg(BMI088_GYRO_CHIP_ID, res);
 307:control-base/devices/src/bmi088driver.c ****     BMI088_delay_us(BMI088_COM_WAIT_SENSOR_TIME);
 308:control-base/devices/src/bmi088driver.c ****     BMI088_gyro_read_single_reg(BMI088_GYRO_CHIP_ID, res);
 309:control-base/devices/src/bmi088driver.c ****     BMI088_delay_us(BMI088_COM_WAIT_SENSOR_TIME);
 310:control-base/devices/src/bmi088driver.c **** 
 311:control-base/devices/src/bmi088driver.c ****     BMI088_gyro_write_single_reg(BMI088_GYRO_SELF_TEST, BMI088_GYRO_TRIG_BIST);
 312:control-base/devices/src/bmi088driver.c ****     BMI088_delay_ms(BMI088_LONG_DELAY_TIME);
 313:control-base/devices/src/bmi088driver.c **** 
 314:control-base/devices/src/bmi088driver.c ****     do
 315:control-base/devices/src/bmi088driver.c ****     {
ARM GAS  /var/folders/sg/pxk9dyzj7jz_x3889hx3b3dw0000gn/T//ccLxPCKZ.s 			page 7


 316:control-base/devices/src/bmi088driver.c **** 
 317:control-base/devices/src/bmi088driver.c ****         BMI088_gyro_read_single_reg(BMI088_GYRO_SELF_TEST, res);
 318:control-base/devices/src/bmi088driver.c ****         BMI088_delay_us(BMI088_COM_WAIT_SENSOR_TIME);
 319:control-base/devices/src/bmi088driver.c ****         retry++;
 320:control-base/devices/src/bmi088driver.c ****     } while (!(res & BMI088_GYRO_BIST_RDY) && retry < 10);
 321:control-base/devices/src/bmi088driver.c **** 
 322:control-base/devices/src/bmi088driver.c ****     if (retry == 10)
 323:control-base/devices/src/bmi088driver.c ****     {
 324:control-base/devices/src/bmi088driver.c ****         return BMI088_SELF_TEST_GYRO_ERROR;
 325:control-base/devices/src/bmi088driver.c ****     }
 326:control-base/devices/src/bmi088driver.c **** 
 327:control-base/devices/src/bmi088driver.c ****     if (res & BMI088_GYRO_BIST_FAIL)
 328:control-base/devices/src/bmi088driver.c ****     {
 329:control-base/devices/src/bmi088driver.c ****         return BMI088_SELF_TEST_GYRO_ERROR;
 330:control-base/devices/src/bmi088driver.c ****     }
 331:control-base/devices/src/bmi088driver.c **** 
 332:control-base/devices/src/bmi088driver.c ****     return BMI088_NO_ERROR;
 333:control-base/devices/src/bmi088driver.c **** }
 334:control-base/devices/src/bmi088driver.c **** 
 335:control-base/devices/src/bmi088driver.c **** uint8_t BMI088_read_gyro_who_am_i(void)
 336:control-base/devices/src/bmi088driver.c **** {
 337:control-base/devices/src/bmi088driver.c ****     uint8_t buf;
 338:control-base/devices/src/bmi088driver.c ****     BMI088_gyro_read_single_reg(BMI088_GYRO_CHIP_ID, buf);
 339:control-base/devices/src/bmi088driver.c ****     return buf;
 340:control-base/devices/src/bmi088driver.c **** }
 341:control-base/devices/src/bmi088driver.c **** 
 342:control-base/devices/src/bmi088driver.c **** 
 343:control-base/devices/src/bmi088driver.c **** uint8_t BMI088_read_accel_who_am_i(void)
 344:control-base/devices/src/bmi088driver.c **** {
 345:control-base/devices/src/bmi088driver.c ****     uint8_t buf;
 346:control-base/devices/src/bmi088driver.c ****     BMI088_accel_read_single_reg(BMI088_ACC_CHIP_ID, buf);
 347:control-base/devices/src/bmi088driver.c ****     return buf;
 348:control-base/devices/src/bmi088driver.c **** }
 349:control-base/devices/src/bmi088driver.c **** 
 350:control-base/devices/src/bmi088driver.c **** void BMI088_temperature_read_over(uint8_t *rx_buf, float *temperate)
 351:control-base/devices/src/bmi088driver.c **** {
 352:control-base/devices/src/bmi088driver.c ****     int16_t bmi088_raw_temp;
 353:control-base/devices/src/bmi088driver.c ****     bmi088_raw_temp = (int16_t)((rx_buf[0] << 3) | (rx_buf[1] >> 5));
 354:control-base/devices/src/bmi088driver.c **** 
 355:control-base/devices/src/bmi088driver.c ****     if (bmi088_raw_temp > 1023)
 356:control-base/devices/src/bmi088driver.c ****     {
 357:control-base/devices/src/bmi088driver.c ****         bmi088_raw_temp -= 2048;
 358:control-base/devices/src/bmi088driver.c ****     }
 359:control-base/devices/src/bmi088driver.c ****     *temperate = bmi088_raw_temp * BMI088_TEMP_FACTOR + BMI088_TEMP_OFFSET;
 360:control-base/devices/src/bmi088driver.c **** 
 361:control-base/devices/src/bmi088driver.c **** }
 362:control-base/devices/src/bmi088driver.c **** 
 363:control-base/devices/src/bmi088driver.c **** void BMI088_accel_read_over(uint8_t *rx_buf, float accel[3], float *time)
 364:control-base/devices/src/bmi088driver.c **** {
 365:control-base/devices/src/bmi088driver.c ****     int16_t bmi088_raw_temp;
 366:control-base/devices/src/bmi088driver.c ****     uint32_t sensor_time;
 367:control-base/devices/src/bmi088driver.c ****     bmi088_raw_temp = (int16_t)((rx_buf[1]) << 8) | rx_buf[0];
 368:control-base/devices/src/bmi088driver.c ****     accel[0] = bmi088_raw_temp * BMI088_ACCEL_SEN;
 369:control-base/devices/src/bmi088driver.c ****     bmi088_raw_temp = (int16_t)((rx_buf[3]) << 8) | rx_buf[2];
 370:control-base/devices/src/bmi088driver.c ****     accel[1] = bmi088_raw_temp * BMI088_ACCEL_SEN;
 371:control-base/devices/src/bmi088driver.c ****     bmi088_raw_temp = (int16_t)((rx_buf[5]) << 8) | rx_buf[4];
 372:control-base/devices/src/bmi088driver.c ****     accel[2] = bmi088_raw_temp * BMI088_ACCEL_SEN;
ARM GAS  /var/folders/sg/pxk9dyzj7jz_x3889hx3b3dw0000gn/T//ccLxPCKZ.s 			page 8


 373:control-base/devices/src/bmi088driver.c ****     sensor_time = (uint32_t)((rx_buf[8] << 16) | (rx_buf[7] << 8) | rx_buf[6]);
 374:control-base/devices/src/bmi088driver.c ****     *time = sensor_time * 39.0625f;
 375:control-base/devices/src/bmi088driver.c **** 
 376:control-base/devices/src/bmi088driver.c **** }
 377:control-base/devices/src/bmi088driver.c **** 
 378:control-base/devices/src/bmi088driver.c **** void BMI088_gyro_read_over(uint8_t *rx_buf, float gyro[3])
 379:control-base/devices/src/bmi088driver.c **** {
 380:control-base/devices/src/bmi088driver.c ****     int16_t bmi088_raw_temp;
 381:control-base/devices/src/bmi088driver.c ****     bmi088_raw_temp = (int16_t)((rx_buf[1]) << 8) | rx_buf[0];
 382:control-base/devices/src/bmi088driver.c ****     gyro[0] = bmi088_raw_temp * BMI088_GYRO_SEN;
 383:control-base/devices/src/bmi088driver.c ****     bmi088_raw_temp = (int16_t)((rx_buf[3]) << 8) | rx_buf[2];
 384:control-base/devices/src/bmi088driver.c ****     gyro[1] = bmi088_raw_temp * BMI088_GYRO_SEN;
 385:control-base/devices/src/bmi088driver.c ****     bmi088_raw_temp = (int16_t)((rx_buf[5]) << 8) | rx_buf[4];
 386:control-base/devices/src/bmi088driver.c ****     gyro[2] = bmi088_raw_temp * BMI088_GYRO_SEN;
 387:control-base/devices/src/bmi088driver.c **** }
 388:control-base/devices/src/bmi088driver.c **** 
 389:control-base/devices/src/bmi088driver.c **** void BMI088_read(float gyro[3], float accel[3], float *temperate)
 390:control-base/devices/src/bmi088driver.c **** {
 391:control-base/devices/src/bmi088driver.c ****     uint8_t buf[8] = {0, 0, 0, 0, 0, 0};
 392:control-base/devices/src/bmi088driver.c ****     int16_t bmi088_raw_temp;
 393:control-base/devices/src/bmi088driver.c **** 
 394:control-base/devices/src/bmi088driver.c ****     BMI088_accel_read_muli_reg(BMI088_ACCEL_XOUT_L, buf, 6);
 395:control-base/devices/src/bmi088driver.c **** 
 396:control-base/devices/src/bmi088driver.c ****     bmi088_raw_temp = (int16_t)((buf[1]) << 8) | buf[0];
 397:control-base/devices/src/bmi088driver.c ****     accel[0] = bmi088_raw_temp * BMI088_ACCEL_SEN;
 398:control-base/devices/src/bmi088driver.c ****     bmi088_raw_temp = (int16_t)((buf[3]) << 8) | buf[2];
 399:control-base/devices/src/bmi088driver.c ****     accel[1] = bmi088_raw_temp * BMI088_ACCEL_SEN;
 400:control-base/devices/src/bmi088driver.c ****     bmi088_raw_temp = (int16_t)((buf[5]) << 8) | buf[4];
 401:control-base/devices/src/bmi088driver.c ****     accel[2] = bmi088_raw_temp * BMI088_ACCEL_SEN;
 402:control-base/devices/src/bmi088driver.c **** 
 403:control-base/devices/src/bmi088driver.c ****     BMI088_gyro_read_muli_reg(BMI088_GYRO_CHIP_ID, buf, 8);
 404:control-base/devices/src/bmi088driver.c ****     if(buf[0] == BMI088_GYRO_CHIP_ID_VALUE)
 405:control-base/devices/src/bmi088driver.c ****     {
 406:control-base/devices/src/bmi088driver.c ****         bmi088_raw_temp = (int16_t)((buf[3]) << 8) | buf[2];
 407:control-base/devices/src/bmi088driver.c ****         gyro[0] = bmi088_raw_temp * BMI088_GYRO_SEN;
 408:control-base/devices/src/bmi088driver.c ****         bmi088_raw_temp = (int16_t)((buf[5]) << 8) | buf[4];
 409:control-base/devices/src/bmi088driver.c ****         gyro[1] = bmi088_raw_temp * BMI088_GYRO_SEN;
 410:control-base/devices/src/bmi088driver.c ****         bmi088_raw_temp = (int16_t)((buf[7]) << 8) | buf[6];
 411:control-base/devices/src/bmi088driver.c ****         gyro[2] = bmi088_raw_temp * BMI088_GYRO_SEN;
 412:control-base/devices/src/bmi088driver.c ****     }
 413:control-base/devices/src/bmi088driver.c ****     BMI088_accel_read_muli_reg(BMI088_TEMP_M, buf, 2);
 414:control-base/devices/src/bmi088driver.c **** 
 415:control-base/devices/src/bmi088driver.c ****     bmi088_raw_temp = (int16_t)((buf[0] << 3) | (buf[1] >> 5));
 416:control-base/devices/src/bmi088driver.c **** 
 417:control-base/devices/src/bmi088driver.c ****     if (bmi088_raw_temp > 1023)
 418:control-base/devices/src/bmi088driver.c ****     {
 419:control-base/devices/src/bmi088driver.c ****         bmi088_raw_temp -= 2048;
 420:control-base/devices/src/bmi088driver.c ****     }
 421:control-base/devices/src/bmi088driver.c **** 
 422:control-base/devices/src/bmi088driver.c ****     *temperate = bmi088_raw_temp * BMI088_TEMP_FACTOR + BMI088_TEMP_OFFSET;
 423:control-base/devices/src/bmi088driver.c **** }
 424:control-base/devices/src/bmi088driver.c **** 
 425:control-base/devices/src/bmi088driver.c **** uint32_t get_BMI088_sensor_time(void)
 426:control-base/devices/src/bmi088driver.c **** {
 427:control-base/devices/src/bmi088driver.c ****     uint32_t sensor_time = 0;
 428:control-base/devices/src/bmi088driver.c ****     uint8_t buf[3];
 429:control-base/devices/src/bmi088driver.c ****     BMI088_accel_read_muli_reg(BMI088_SENSORTIME_DATA_L, buf, 3);
ARM GAS  /var/folders/sg/pxk9dyzj7jz_x3889hx3b3dw0000gn/T//ccLxPCKZ.s 			page 9


 430:control-base/devices/src/bmi088driver.c **** 
 431:control-base/devices/src/bmi088driver.c ****     sensor_time = (uint32_t)((buf[2] << 16) | (buf[1] << 8) | (buf[0]));
 432:control-base/devices/src/bmi088driver.c **** 
 433:control-base/devices/src/bmi088driver.c ****     return sensor_time;
 434:control-base/devices/src/bmi088driver.c **** }
 435:control-base/devices/src/bmi088driver.c **** 
 436:control-base/devices/src/bmi088driver.c **** float get_BMI088_temperate(void)
 437:control-base/devices/src/bmi088driver.c **** {
 438:control-base/devices/src/bmi088driver.c ****     uint8_t buf[2];
 439:control-base/devices/src/bmi088driver.c ****     float temperate;
 440:control-base/devices/src/bmi088driver.c ****     int16_t temperate_raw_temp;
 441:control-base/devices/src/bmi088driver.c **** 
 442:control-base/devices/src/bmi088driver.c ****     BMI088_accel_read_muli_reg(BMI088_TEMP_M, buf, 2);
 443:control-base/devices/src/bmi088driver.c **** 
 444:control-base/devices/src/bmi088driver.c ****     temperate_raw_temp = (int16_t)((buf[0] << 3) | (buf[1] >> 5));
 445:control-base/devices/src/bmi088driver.c **** 
 446:control-base/devices/src/bmi088driver.c ****     if (temperate_raw_temp > 1023)
 447:control-base/devices/src/bmi088driver.c ****     {
 448:control-base/devices/src/bmi088driver.c ****         temperate_raw_temp -= 2048;
 449:control-base/devices/src/bmi088driver.c ****     }
 450:control-base/devices/src/bmi088driver.c **** 
 451:control-base/devices/src/bmi088driver.c ****     temperate = temperate_raw_temp * BMI088_TEMP_FACTOR + BMI088_TEMP_OFFSET;
 452:control-base/devices/src/bmi088driver.c **** 
 453:control-base/devices/src/bmi088driver.c ****     return temperate;
 454:control-base/devices/src/bmi088driver.c **** }
 455:control-base/devices/src/bmi088driver.c **** 
 456:control-base/devices/src/bmi088driver.c **** void get_BMI088_gyro(int16_t gyro[3])
 457:control-base/devices/src/bmi088driver.c **** {
 458:control-base/devices/src/bmi088driver.c ****     uint8_t buf[6] = {0, 0, 0, 0, 0, 0};
 459:control-base/devices/src/bmi088driver.c ****     int16_t gyro_raw_temp;
 460:control-base/devices/src/bmi088driver.c **** 
 461:control-base/devices/src/bmi088driver.c ****     BMI088_gyro_read_muli_reg(BMI088_GYRO_X_L, buf, 6);
 462:control-base/devices/src/bmi088driver.c **** 
 463:control-base/devices/src/bmi088driver.c ****     gyro_raw_temp = (int16_t)((buf[1]) << 8) | buf[0];
 464:control-base/devices/src/bmi088driver.c ****     gyro[0] = gyro_raw_temp ;
 465:control-base/devices/src/bmi088driver.c ****     gyro_raw_temp = (int16_t)((buf[3]) << 8) | buf[2];
 466:control-base/devices/src/bmi088driver.c ****     gyro[1] = gyro_raw_temp ;
 467:control-base/devices/src/bmi088driver.c ****     gyro_raw_temp = (int16_t)((buf[5]) << 8) | buf[4];
 468:control-base/devices/src/bmi088driver.c ****     gyro[2] = gyro_raw_temp ;
 469:control-base/devices/src/bmi088driver.c **** }
 470:control-base/devices/src/bmi088driver.c **** 
 471:control-base/devices/src/bmi088driver.c **** void get_BMI088_accel(float accel[3])
 472:control-base/devices/src/bmi088driver.c **** {
 473:control-base/devices/src/bmi088driver.c ****     uint8_t buf[6] = {0, 0, 0, 0, 0, 0};
 474:control-base/devices/src/bmi088driver.c ****     int16_t accel_raw_temp;
 475:control-base/devices/src/bmi088driver.c **** 
 476:control-base/devices/src/bmi088driver.c ****     BMI088_accel_read_muli_reg(BMI088_ACCEL_XOUT_L, buf, 6);
 477:control-base/devices/src/bmi088driver.c **** 
 478:control-base/devices/src/bmi088driver.c ****     accel_raw_temp = (int16_t)((buf[1]) << 8) | buf[0];
 479:control-base/devices/src/bmi088driver.c ****     accel[0] = accel_raw_temp * BMI088_ACCEL_SEN;
 480:control-base/devices/src/bmi088driver.c ****     accel_raw_temp = (int16_t)((buf[3]) << 8) | buf[2];
 481:control-base/devices/src/bmi088driver.c ****     accel[1] = accel_raw_temp * BMI088_ACCEL_SEN;
 482:control-base/devices/src/bmi088driver.c ****     accel_raw_temp = (int16_t)((buf[5]) << 8) | buf[4];
 483:control-base/devices/src/bmi088driver.c ****     accel[2] = accel_raw_temp * BMI088_ACCEL_SEN;
 484:control-base/devices/src/bmi088driver.c **** }
 485:control-base/devices/src/bmi088driver.c **** 
 486:control-base/devices/src/bmi088driver.c **** #if defined(BMI088_USE_SPI)
ARM GAS  /var/folders/sg/pxk9dyzj7jz_x3889hx3b3dw0000gn/T//ccLxPCKZ.s 			page 10


 487:control-base/devices/src/bmi088driver.c **** 
 488:control-base/devices/src/bmi088driver.c **** static void BMI088_write_single_reg(uint8_t reg, uint8_t data)
 489:control-base/devices/src/bmi088driver.c **** {
  29              		.loc 1 489 1 view -0
  30              		.cfi_startproc
  31              		@ args = 0, pretend = 0, frame = 0
  32              		@ frame_needed = 0, uses_anonymous_args = 0
  33              		.loc 1 489 1 is_stmt 0 view .LVU1
  34 0000 10B5     		push	{r4, lr}
  35              	.LCFI0:
  36              		.cfi_def_cfa_offset 8
  37              		.cfi_offset 4, -8
  38              		.cfi_offset 14, -4
  39 0002 0C46     		mov	r4, r1
 490:control-base/devices/src/bmi088driver.c ****     BMI088_read_write_byte(reg);
  40              		.loc 1 490 5 is_stmt 1 view .LVU2
  41 0004 FFF7FEFF 		bl	BMI088_read_write_byte
  42              	.LVL1:
 491:control-base/devices/src/bmi088driver.c ****     BMI088_read_write_byte(data);
  43              		.loc 1 491 5 view .LVU3
  44 0008 2046     		mov	r0, r4
  45 000a FFF7FEFF 		bl	BMI088_read_write_byte
  46              	.LVL2:
 492:control-base/devices/src/bmi088driver.c **** }
  47              		.loc 1 492 1 is_stmt 0 view .LVU4
  48 000e 10BD     		pop	{r4, pc}
  49              		.loc 1 492 1 view .LVU5
  50              		.cfi_endproc
  51              	.LFE149:
  53              		.section	.text.BMI088_read_single_reg,"ax",%progbits
  54              		.align	1
  55              		.syntax unified
  56              		.thumb
  57              		.thumb_func
  59              	BMI088_read_single_reg:
  60              	.LVL3:
  61              	.LFB150:
 493:control-base/devices/src/bmi088driver.c **** 
 494:control-base/devices/src/bmi088driver.c **** static void BMI088_read_single_reg(uint8_t reg, uint8_t *return_data)
 495:control-base/devices/src/bmi088driver.c **** {
  62              		.loc 1 495 1 is_stmt 1 view -0
  63              		.cfi_startproc
  64              		@ args = 0, pretend = 0, frame = 0
  65              		@ frame_needed = 0, uses_anonymous_args = 0
  66              		.loc 1 495 1 is_stmt 0 view .LVU7
  67 0000 10B5     		push	{r4, lr}
  68              	.LCFI1:
  69              		.cfi_def_cfa_offset 8
  70              		.cfi_offset 4, -8
  71              		.cfi_offset 14, -4
  72 0002 0C46     		mov	r4, r1
 496:control-base/devices/src/bmi088driver.c ****     BMI088_read_write_byte(reg | 0x80);
  73              		.loc 1 496 5 is_stmt 1 view .LVU8
  74 0004 40F08000 		orr	r0, r0, #128
  75              	.LVL4:
  76              		.loc 1 496 5 is_stmt 0 view .LVU9
  77 0008 FFF7FEFF 		bl	BMI088_read_write_byte
ARM GAS  /var/folders/sg/pxk9dyzj7jz_x3889hx3b3dw0000gn/T//ccLxPCKZ.s 			page 11


  78              	.LVL5:
 497:control-base/devices/src/bmi088driver.c ****     *return_data = BMI088_read_write_byte(0x55);
  79              		.loc 1 497 5 is_stmt 1 view .LVU10
  80              		.loc 1 497 20 is_stmt 0 view .LVU11
  81 000c 5520     		movs	r0, #85
  82 000e FFF7FEFF 		bl	BMI088_read_write_byte
  83              	.LVL6:
  84              		.loc 1 497 18 discriminator 1 view .LVU12
  85 0012 2070     		strb	r0, [r4]
 498:control-base/devices/src/bmi088driver.c **** }
  86              		.loc 1 498 1 view .LVU13
  87 0014 10BD     		pop	{r4, pc}
  88              		.loc 1 498 1 view .LVU14
  89              		.cfi_endproc
  90              	.LFE150:
  92              		.section	.text.BMI088_read_muli_reg,"ax",%progbits
  93              		.align	1
  94              		.syntax unified
  95              		.thumb
  96              		.thumb_func
  98              	BMI088_read_muli_reg:
  99              	.LVL7:
 100              	.LFB151:
 499:control-base/devices/src/bmi088driver.c **** 
 500:control-base/devices/src/bmi088driver.c **** //static void BMI088_write_muli_reg(uint8_t reg, uint8_t* buf, uint8_t len )
 501:control-base/devices/src/bmi088driver.c **** //{
 502:control-base/devices/src/bmi088driver.c **** //    BMI088_read_write_byte( reg );
 503:control-base/devices/src/bmi088driver.c **** //    while( len != 0 )
 504:control-base/devices/src/bmi088driver.c **** //    {
 505:control-base/devices/src/bmi088driver.c **** 
 506:control-base/devices/src/bmi088driver.c **** //        BMI088_read_write_byte( *buf );
 507:control-base/devices/src/bmi088driver.c **** //        buf ++;
 508:control-base/devices/src/bmi088driver.c **** //        len --;
 509:control-base/devices/src/bmi088driver.c **** //    }
 510:control-base/devices/src/bmi088driver.c **** 
 511:control-base/devices/src/bmi088driver.c **** //}
 512:control-base/devices/src/bmi088driver.c **** 
 513:control-base/devices/src/bmi088driver.c **** static void BMI088_read_muli_reg(uint8_t reg, uint8_t *buf, uint8_t len)
 514:control-base/devices/src/bmi088driver.c **** {
 101              		.loc 1 514 1 is_stmt 1 view -0
 102              		.cfi_startproc
 103              		@ args = 0, pretend = 0, frame = 0
 104              		@ frame_needed = 0, uses_anonymous_args = 0
 105              		.loc 1 514 1 is_stmt 0 view .LVU16
 106 0000 38B5     		push	{r3, r4, r5, lr}
 107              	.LCFI2:
 108              		.cfi_def_cfa_offset 16
 109              		.cfi_offset 3, -16
 110              		.cfi_offset 4, -12
 111              		.cfi_offset 5, -8
 112              		.cfi_offset 14, -4
 113 0002 0D46     		mov	r5, r1
 114 0004 1446     		mov	r4, r2
 515:control-base/devices/src/bmi088driver.c ****     BMI088_read_write_byte(reg | 0x80);
 115              		.loc 1 515 5 is_stmt 1 view .LVU17
 116 0006 40F08000 		orr	r0, r0, #128
 117              	.LVL8:
ARM GAS  /var/folders/sg/pxk9dyzj7jz_x3889hx3b3dw0000gn/T//ccLxPCKZ.s 			page 12


 118              		.loc 1 515 5 is_stmt 0 view .LVU18
 119 000a FFF7FEFF 		bl	BMI088_read_write_byte
 120              	.LVL9:
 516:control-base/devices/src/bmi088driver.c **** 
 517:control-base/devices/src/bmi088driver.c ****     while (len != 0)
 121              		.loc 1 517 5 is_stmt 1 view .LVU19
 122              		.loc 1 517 11 is_stmt 0 view .LVU20
 123 000e 06E0     		b	.L6
 124              	.L7:
 518:control-base/devices/src/bmi088driver.c ****     {
 519:control-base/devices/src/bmi088driver.c **** 
 520:control-base/devices/src/bmi088driver.c ****         *buf = BMI088_read_write_byte(0x55);
 125              		.loc 1 520 9 is_stmt 1 view .LVU21
 126              		.loc 1 520 16 is_stmt 0 view .LVU22
 127 0010 5520     		movs	r0, #85
 128 0012 FFF7FEFF 		bl	BMI088_read_write_byte
 129              	.LVL10:
 130              		.loc 1 520 14 discriminator 1 view .LVU23
 131 0016 05F8010B 		strb	r0, [r5], #1
 132              	.LVL11:
 521:control-base/devices/src/bmi088driver.c ****         buf++;
 133              		.loc 1 521 9 is_stmt 1 view .LVU24
 522:control-base/devices/src/bmi088driver.c ****         len--;
 134              		.loc 1 522 9 view .LVU25
 135              		.loc 1 522 12 is_stmt 0 view .LVU26
 136 001a 013C     		subs	r4, r4, #1
 137              	.LVL12:
 138              		.loc 1 522 12 view .LVU27
 139 001c E4B2     		uxtb	r4, r4
 140              	.LVL13:
 141              	.L6:
 517:control-base/devices/src/bmi088driver.c ****     {
 142              		.loc 1 517 16 is_stmt 1 view .LVU28
 143 001e 002C     		cmp	r4, #0
 144 0020 F6D1     		bne	.L7
 523:control-base/devices/src/bmi088driver.c ****     }
 524:control-base/devices/src/bmi088driver.c **** }
 145              		.loc 1 524 1 is_stmt 0 view .LVU29
 146 0022 38BD     		pop	{r3, r4, r5, pc}
 147              		.loc 1 524 1 view .LVU30
 148              		.cfi_endproc
 149              	.LFE151:
 151              		.section	.text.bmi088_accel_init,"ax",%progbits
 152              		.align	1
 153              		.global	bmi088_accel_init
 154              		.syntax unified
 155              		.thumb
 156              		.thumb_func
 158              	bmi088_accel_init:
 159              	.LFB135:
 114:control-base/devices/src/bmi088driver.c ****     volatile uint8_t res = 0;
 160              		.loc 1 114 1 is_stmt 1 view -0
 161              		.cfi_startproc
 162              		@ args = 0, pretend = 0, frame = 8
 163              		@ frame_needed = 0, uses_anonymous_args = 0
 164 0000 70B5     		push	{r4, r5, r6, lr}
 165              	.LCFI3:
ARM GAS  /var/folders/sg/pxk9dyzj7jz_x3889hx3b3dw0000gn/T//ccLxPCKZ.s 			page 13


 166              		.cfi_def_cfa_offset 16
 167              		.cfi_offset 4, -16
 168              		.cfi_offset 5, -12
 169              		.cfi_offset 6, -8
 170              		.cfi_offset 14, -4
 171 0002 82B0     		sub	sp, sp, #8
 172              	.LCFI4:
 173              		.cfi_def_cfa_offset 24
 115:control-base/devices/src/bmi088driver.c ****     uint8_t write_reg_num = 0;
 174              		.loc 1 115 5 view .LVU32
 115:control-base/devices/src/bmi088driver.c ****     uint8_t write_reg_num = 0;
 175              		.loc 1 115 22 is_stmt 0 view .LVU33
 176 0004 0024     		movs	r4, #0
 177 0006 8DF80740 		strb	r4, [sp, #7]
 116:control-base/devices/src/bmi088driver.c **** 
 178              		.loc 1 116 5 is_stmt 1 view .LVU34
 179              	.LVL14:
 119:control-base/devices/src/bmi088driver.c ****     {
 180              		.loc 1 119 5 view .LVU35
 181              	.L10:
 119:control-base/devices/src/bmi088driver.c ****     {
 182              		.loc 1 119 43 discriminator 1 view .LVU36
 183 000a 052C     		cmp	r4, #5
 184 000c 30D8     		bhi	.L15
 122:control-base/devices/src/bmi088driver.c ****         BMI088_delay_us(BMI088_COM_WAIT_SENSOR_TIME);
 185              		.loc 1 122 9 view .LVU37
 186 000e FFF7FEFF 		bl	BMI088_ACCEL_NS_L
 187              	.LVL15:
 122:control-base/devices/src/bmi088driver.c ****         BMI088_delay_us(BMI088_COM_WAIT_SENSOR_TIME);
 188              		.loc 1 122 9 discriminator 1 view .LVU38
 189 0012 194A     		ldr	r2, .L17
 190 0014 04EB4403 		add	r3, r4, r4, lsl #1
 191 0018 D118     		adds	r1, r2, r3
 192 001a 4D78     		ldrb	r5, [r1, #1]	@ zero_extendqisi2
 193 001c D65C     		ldrb	r6, [r2, r3]	@ zero_extendqisi2
 194 001e 2946     		mov	r1, r5
 195 0020 3046     		mov	r0, r6
 196 0022 FFF7FEFF 		bl	BMI088_write_single_reg
 197              	.LVL16:
 122:control-base/devices/src/bmi088driver.c ****         BMI088_delay_us(BMI088_COM_WAIT_SENSOR_TIME);
 198              		.loc 1 122 9 discriminator 2 view .LVU39
 199 0026 FFF7FEFF 		bl	BMI088_ACCEL_NS_H
 200              	.LVL17:
 122:control-base/devices/src/bmi088driver.c ****         BMI088_delay_us(BMI088_COM_WAIT_SENSOR_TIME);
 201              		.loc 1 122 144 discriminator 3 view .LVU40
 123:control-base/devices/src/bmi088driver.c **** 
 202              		.loc 1 123 9 view .LVU41
 203 002a 3220     		movs	r0, #50
 204 002c FFF7FEFF 		bl	BMI088_delay_us
 205              	.LVL18:
 125:control-base/devices/src/bmi088driver.c ****         BMI088_delay_us(BMI088_COM_WAIT_SENSOR_TIME);
 206              		.loc 1 125 9 view .LVU42
 207 0030 FFF7FEFF 		bl	BMI088_ACCEL_NS_L
 208              	.LVL19:
 125:control-base/devices/src/bmi088driver.c ****         BMI088_delay_us(BMI088_COM_WAIT_SENSOR_TIME);
 209              		.loc 1 125 9 discriminator 1 view .LVU43
 210 0034 46F08000 		orr	r0, r6, #128
ARM GAS  /var/folders/sg/pxk9dyzj7jz_x3889hx3b3dw0000gn/T//ccLxPCKZ.s 			page 14


 211 0038 FFF7FEFF 		bl	BMI088_read_write_byte
 212              	.LVL20:
 125:control-base/devices/src/bmi088driver.c ****         BMI088_delay_us(BMI088_COM_WAIT_SENSOR_TIME);
 213              		.loc 1 125 9 discriminator 2 view .LVU44
 214 003c 5520     		movs	r0, #85
 215 003e FFF7FEFF 		bl	BMI088_read_write_byte
 216              	.LVL21:
 125:control-base/devices/src/bmi088driver.c ****         BMI088_delay_us(BMI088_COM_WAIT_SENSOR_TIME);
 217              		.loc 1 125 9 discriminator 3 view .LVU45
 218 0042 5520     		movs	r0, #85
 219 0044 FFF7FEFF 		bl	BMI088_read_write_byte
 220              	.LVL22:
 125:control-base/devices/src/bmi088driver.c ****         BMI088_delay_us(BMI088_COM_WAIT_SENSOR_TIME);
 221              		.loc 1 125 9 is_stmt 0 discriminator 4 view .LVU46
 222 0048 8DF80700 		strb	r0, [sp, #7]
 125:control-base/devices/src/bmi088driver.c ****         BMI088_delay_us(BMI088_COM_WAIT_SENSOR_TIME);
 223              		.loc 1 125 9 is_stmt 1 discriminator 4 view .LVU47
 224 004c FFF7FEFF 		bl	BMI088_ACCEL_NS_H
 225              	.LVL23:
 125:control-base/devices/src/bmi088driver.c ****         BMI088_delay_us(BMI088_COM_WAIT_SENSOR_TIME);
 226              		.loc 1 125 95 discriminator 5 view .LVU48
 126:control-base/devices/src/bmi088driver.c **** 
 227              		.loc 1 126 9 view .LVU49
 228 0050 3220     		movs	r0, #50
 229 0052 FFF7FEFF 		bl	BMI088_delay_us
 230              	.LVL24:
 128:control-base/devices/src/bmi088driver.c ****         {
 231              		.loc 1 128 9 view .LVU50
 128:control-base/devices/src/bmi088driver.c ****         {
 232              		.loc 1 128 17 is_stmt 0 view .LVU51
 233 0056 9DF80730 		ldrb	r3, [sp, #7]	@ zero_extendqisi2
 128:control-base/devices/src/bmi088driver.c ****         {
 234              		.loc 1 128 12 view .LVU52
 235 005a AB42     		cmp	r3, r5
 236 005c 02D1     		bne	.L16
 119:control-base/devices/src/bmi088driver.c ****     {
 237              		.loc 1 119 86 is_stmt 1 discriminator 2 view .LVU53
 238 005e 0134     		adds	r4, r4, #1
 239              	.LVL25:
 119:control-base/devices/src/bmi088driver.c ****     {
 240              		.loc 1 119 86 is_stmt 0 discriminator 2 view .LVU54
 241 0060 E4B2     		uxtb	r4, r4
 242              	.LVL26:
 119:control-base/devices/src/bmi088driver.c ****     {
 243              		.loc 1 119 86 discriminator 2 view .LVU55
 244 0062 D2E7     		b	.L10
 245              	.LVL27:
 246              	.L16:
 130:control-base/devices/src/bmi088driver.c ****         }
 247              		.loc 1 130 13 is_stmt 1 view .LVU56
 130:control-base/devices/src/bmi088driver.c ****         }
 248              		.loc 1 130 68 is_stmt 0 view .LVU57
 249 0064 04EB4404 		add	r4, r4, r4, lsl #1
 250              	.LVL28:
 130:control-base/devices/src/bmi088driver.c ****         }
 251              		.loc 1 130 68 view .LVU58
 252 0068 034B     		ldr	r3, .L17
ARM GAS  /var/folders/sg/pxk9dyzj7jz_x3889hx3b3dw0000gn/T//ccLxPCKZ.s 			page 15


 253 006a 2344     		add	r3, r3, r4
 254 006c 9878     		ldrb	r0, [r3, #2]	@ zero_extendqisi2
 255 006e 00E0     		b	.L12
 256              	.LVL29:
 257              	.L15:
 133:control-base/devices/src/bmi088driver.c **** }
 258              		.loc 1 133 12 view .LVU59
 259 0070 0020     		movs	r0, #0
 260              	.LVL30:
 261              	.L12:
 134:control-base/devices/src/bmi088driver.c **** 
 262              		.loc 1 134 1 view .LVU60
 263 0072 02B0     		add	sp, sp, #8
 264              	.LCFI5:
 265              		.cfi_def_cfa_offset 16
 266              		@ sp needed
 267 0074 70BD     		pop	{r4, r5, r6, pc}
 268              	.L18:
 269 0076 00BF     		.align	2
 270              	.L17:
 271 0078 00000000 		.word	write_BMI088_accel_reg_data_error
 272              		.cfi_endproc
 273              	.LFE135:
 275              		.section	.text.bmi088_gyro_init,"ax",%progbits
 276              		.align	1
 277              		.global	bmi088_gyro_init
 278              		.syntax unified
 279              		.thumb
 280              		.thumb_func
 282              	bmi088_gyro_init:
 283              	.LFB136:
 137:control-base/devices/src/bmi088driver.c ****     uint8_t write_reg_num = 0;
 284              		.loc 1 137 1 is_stmt 1 view -0
 285              		.cfi_startproc
 286              		@ args = 0, pretend = 0, frame = 8
 287              		@ frame_needed = 0, uses_anonymous_args = 0
 288 0000 70B5     		push	{r4, r5, r6, lr}
 289              	.LCFI6:
 290              		.cfi_def_cfa_offset 16
 291              		.cfi_offset 4, -16
 292              		.cfi_offset 5, -12
 293              		.cfi_offset 6, -8
 294              		.cfi_offset 14, -4
 295 0002 82B0     		sub	sp, sp, #8
 296              	.LCFI7:
 297              		.cfi_def_cfa_offset 24
 138:control-base/devices/src/bmi088driver.c ****     uint8_t res = 0;
 298              		.loc 1 138 5 view .LVU62
 299              	.LVL31:
 139:control-base/devices/src/bmi088driver.c **** 
 300              		.loc 1 139 5 view .LVU63
 139:control-base/devices/src/bmi088driver.c **** 
 301              		.loc 1 139 13 is_stmt 0 view .LVU64
 302 0004 0024     		movs	r4, #0
 303 0006 8DF80740 		strb	r4, [sp, #7]
 142:control-base/devices/src/bmi088driver.c ****     BMI088_delay_us(BMI088_COM_WAIT_SENSOR_TIME);
 304              		.loc 1 142 5 is_stmt 1 view .LVU65
ARM GAS  /var/folders/sg/pxk9dyzj7jz_x3889hx3b3dw0000gn/T//ccLxPCKZ.s 			page 16


 305 000a FFF7FEFF 		bl	BMI088_GYRO_NS_L
 306              	.LVL32:
 142:control-base/devices/src/bmi088driver.c ****     BMI088_delay_us(BMI088_COM_WAIT_SENSOR_TIME);
 307              		.loc 1 142 5 discriminator 1 view .LVU66
 308 000e 0DF10705 		add	r5, sp, #7
 309 0012 2946     		mov	r1, r5
 310 0014 2046     		mov	r0, r4
 311 0016 FFF7FEFF 		bl	BMI088_read_single_reg
 312              	.LVL33:
 142:control-base/devices/src/bmi088driver.c ****     BMI088_delay_us(BMI088_COM_WAIT_SENSOR_TIME);
 313              		.loc 1 142 5 discriminator 2 view .LVU67
 314 001a FFF7FEFF 		bl	BMI088_GYRO_NS_H
 315              	.LVL34:
 142:control-base/devices/src/bmi088driver.c ****     BMI088_delay_us(BMI088_COM_WAIT_SENSOR_TIME);
 316              		.loc 1 142 58 discriminator 3 view .LVU68
 143:control-base/devices/src/bmi088driver.c ****     BMI088_gyro_read_single_reg(BMI088_GYRO_CHIP_ID, res);
 317              		.loc 1 143 5 view .LVU69
 318 001e 3220     		movs	r0, #50
 319 0020 FFF7FEFF 		bl	BMI088_delay_us
 320              	.LVL35:
 144:control-base/devices/src/bmi088driver.c ****     BMI088_delay_us(BMI088_COM_WAIT_SENSOR_TIME);
 321              		.loc 1 144 5 view .LVU70
 322 0024 FFF7FEFF 		bl	BMI088_GYRO_NS_L
 323              	.LVL36:
 144:control-base/devices/src/bmi088driver.c ****     BMI088_delay_us(BMI088_COM_WAIT_SENSOR_TIME);
 324              		.loc 1 144 5 discriminator 1 view .LVU71
 325 0028 2946     		mov	r1, r5
 326 002a 2046     		mov	r0, r4
 327 002c FFF7FEFF 		bl	BMI088_read_single_reg
 328              	.LVL37:
 144:control-base/devices/src/bmi088driver.c ****     BMI088_delay_us(BMI088_COM_WAIT_SENSOR_TIME);
 329              		.loc 1 144 5 discriminator 2 view .LVU72
 330 0030 FFF7FEFF 		bl	BMI088_GYRO_NS_H
 331              	.LVL38:
 144:control-base/devices/src/bmi088driver.c ****     BMI088_delay_us(BMI088_COM_WAIT_SENSOR_TIME);
 332              		.loc 1 144 58 discriminator 3 view .LVU73
 145:control-base/devices/src/bmi088driver.c **** 
 333              		.loc 1 145 5 view .LVU74
 334 0034 3220     		movs	r0, #50
 335 0036 FFF7FEFF 		bl	BMI088_delay_us
 336              	.LVL39:
 148:control-base/devices/src/bmi088driver.c ****     BMI088_delay_ms(BMI088_LONG_DELAY_TIME);
 337              		.loc 1 148 5 view .LVU75
 338 003a FFF7FEFF 		bl	BMI088_GYRO_NS_L
 339              	.LVL40:
 148:control-base/devices/src/bmi088driver.c ****     BMI088_delay_ms(BMI088_LONG_DELAY_TIME);
 340              		.loc 1 148 5 discriminator 1 view .LVU76
 341 003e B621     		movs	r1, #182
 342 0040 1420     		movs	r0, #20
 343 0042 FFF7FEFF 		bl	BMI088_write_single_reg
 344              	.LVL41:
 148:control-base/devices/src/bmi088driver.c ****     BMI088_delay_ms(BMI088_LONG_DELAY_TIME);
 345              		.loc 1 148 5 discriminator 2 view .LVU77
 346 0046 FFF7FEFF 		bl	BMI088_GYRO_NS_H
 347              	.LVL42:
 148:control-base/devices/src/bmi088driver.c ****     BMI088_delay_ms(BMI088_LONG_DELAY_TIME);
 348              		.loc 1 148 85 discriminator 3 view .LVU78
ARM GAS  /var/folders/sg/pxk9dyzj7jz_x3889hx3b3dw0000gn/T//ccLxPCKZ.s 			page 17


 149:control-base/devices/src/bmi088driver.c ****     //check commiunication is normal after reset
 349              		.loc 1 149 5 view .LVU79
 350 004a 9620     		movs	r0, #150
 351 004c FFF7FEFF 		bl	BMI088_delay_ms
 352              	.LVL43:
 151:control-base/devices/src/bmi088driver.c ****     BMI088_delay_us(BMI088_COM_WAIT_SENSOR_TIME);
 353              		.loc 1 151 5 view .LVU80
 354 0050 FFF7FEFF 		bl	BMI088_GYRO_NS_L
 355              	.LVL44:
 151:control-base/devices/src/bmi088driver.c ****     BMI088_delay_us(BMI088_COM_WAIT_SENSOR_TIME);
 356              		.loc 1 151 5 discriminator 1 view .LVU81
 357 0054 2946     		mov	r1, r5
 358 0056 2046     		mov	r0, r4
 359 0058 FFF7FEFF 		bl	BMI088_read_single_reg
 360              	.LVL45:
 151:control-base/devices/src/bmi088driver.c ****     BMI088_delay_us(BMI088_COM_WAIT_SENSOR_TIME);
 361              		.loc 1 151 5 discriminator 2 view .LVU82
 362 005c FFF7FEFF 		bl	BMI088_GYRO_NS_H
 363              	.LVL46:
 151:control-base/devices/src/bmi088driver.c ****     BMI088_delay_us(BMI088_COM_WAIT_SENSOR_TIME);
 364              		.loc 1 151 58 discriminator 3 view .LVU83
 152:control-base/devices/src/bmi088driver.c ****     BMI088_gyro_read_single_reg(BMI088_GYRO_CHIP_ID, res);
 365              		.loc 1 152 5 view .LVU84
 366 0060 3220     		movs	r0, #50
 367 0062 FFF7FEFF 		bl	BMI088_delay_us
 368              	.LVL47:
 153:control-base/devices/src/bmi088driver.c ****     BMI088_delay_us(BMI088_COM_WAIT_SENSOR_TIME);
 369              		.loc 1 153 5 view .LVU85
 370 0066 FFF7FEFF 		bl	BMI088_GYRO_NS_L
 371              	.LVL48:
 153:control-base/devices/src/bmi088driver.c ****     BMI088_delay_us(BMI088_COM_WAIT_SENSOR_TIME);
 372              		.loc 1 153 5 discriminator 1 view .LVU86
 373 006a 2946     		mov	r1, r5
 374 006c 2046     		mov	r0, r4
 375 006e FFF7FEFF 		bl	BMI088_read_single_reg
 376              	.LVL49:
 153:control-base/devices/src/bmi088driver.c ****     BMI088_delay_us(BMI088_COM_WAIT_SENSOR_TIME);
 377              		.loc 1 153 5 discriminator 2 view .LVU87
 378 0072 FFF7FEFF 		bl	BMI088_GYRO_NS_H
 379              	.LVL50:
 153:control-base/devices/src/bmi088driver.c ****     BMI088_delay_us(BMI088_COM_WAIT_SENSOR_TIME);
 380              		.loc 1 153 58 discriminator 3 view .LVU88
 154:control-base/devices/src/bmi088driver.c **** 
 381              		.loc 1 154 5 view .LVU89
 382 0076 3220     		movs	r0, #50
 383 0078 FFF7FEFF 		bl	BMI088_delay_us
 384              	.LVL51:
 157:control-base/devices/src/bmi088driver.c ****     {
 385              		.loc 1 157 5 view .LVU90
 157:control-base/devices/src/bmi088driver.c ****     {
 386              		.loc 1 157 13 is_stmt 0 view .LVU91
 387 007c 9DF80730 		ldrb	r3, [sp, #7]	@ zero_extendqisi2
 157:control-base/devices/src/bmi088driver.c ****     {
 388              		.loc 1 157 8 view .LVU92
 389 0080 0F2B     		cmp	r3, #15
 390 0082 2ED1     		bne	.L24
 391              	.LVL52:
ARM GAS  /var/folders/sg/pxk9dyzj7jz_x3889hx3b3dw0000gn/T//ccLxPCKZ.s 			page 18


 392              	.L21:
 163:control-base/devices/src/bmi088driver.c ****     {
 393              		.loc 1 163 43 is_stmt 1 discriminator 1 view .LVU93
 394 0084 052C     		cmp	r4, #5
 395 0086 29D8     		bhi	.L26
 166:control-base/devices/src/bmi088driver.c ****         BMI088_delay_us(BMI088_COM_WAIT_SENSOR_TIME);
 396              		.loc 1 166 9 view .LVU94
 397 0088 FFF7FEFF 		bl	BMI088_GYRO_NS_L
 398              	.LVL53:
 166:control-base/devices/src/bmi088driver.c ****         BMI088_delay_us(BMI088_COM_WAIT_SENSOR_TIME);
 399              		.loc 1 166 9 discriminator 1 view .LVU95
 400 008c 164A     		ldr	r2, .L28
 401 008e 04EB4403 		add	r3, r4, r4, lsl #1
 402 0092 D118     		adds	r1, r2, r3
 403 0094 4D78     		ldrb	r5, [r1, #1]	@ zero_extendqisi2
 404 0096 D65C     		ldrb	r6, [r2, r3]	@ zero_extendqisi2
 405 0098 2946     		mov	r1, r5
 406 009a 3046     		mov	r0, r6
 407 009c FFF7FEFF 		bl	BMI088_write_single_reg
 408              	.LVL54:
 166:control-base/devices/src/bmi088driver.c ****         BMI088_delay_us(BMI088_COM_WAIT_SENSOR_TIME);
 409              		.loc 1 166 9 discriminator 2 view .LVU96
 410 00a0 FFF7FEFF 		bl	BMI088_GYRO_NS_H
 411              	.LVL55:
 166:control-base/devices/src/bmi088driver.c ****         BMI088_delay_us(BMI088_COM_WAIT_SENSOR_TIME);
 412              		.loc 1 166 141 discriminator 3 view .LVU97
 167:control-base/devices/src/bmi088driver.c **** 
 413              		.loc 1 167 9 view .LVU98
 414 00a4 3220     		movs	r0, #50
 415 00a6 FFF7FEFF 		bl	BMI088_delay_us
 416              	.LVL56:
 169:control-base/devices/src/bmi088driver.c ****         BMI088_delay_us(BMI088_COM_WAIT_SENSOR_TIME);
 417              		.loc 1 169 9 view .LVU99
 418 00aa FFF7FEFF 		bl	BMI088_GYRO_NS_L
 419              	.LVL57:
 169:control-base/devices/src/bmi088driver.c ****         BMI088_delay_us(BMI088_COM_WAIT_SENSOR_TIME);
 420              		.loc 1 169 9 discriminator 1 view .LVU100
 421 00ae 0DF10701 		add	r1, sp, #7
 422 00b2 3046     		mov	r0, r6
 423 00b4 FFF7FEFF 		bl	BMI088_read_single_reg
 424              	.LVL58:
 169:control-base/devices/src/bmi088driver.c ****         BMI088_delay_us(BMI088_COM_WAIT_SENSOR_TIME);
 425              		.loc 1 169 9 discriminator 2 view .LVU101
 426 00b8 FFF7FEFF 		bl	BMI088_GYRO_NS_H
 427              	.LVL59:
 169:control-base/devices/src/bmi088driver.c ****         BMI088_delay_us(BMI088_COM_WAIT_SENSOR_TIME);
 428              		.loc 1 169 93 discriminator 3 view .LVU102
 170:control-base/devices/src/bmi088driver.c **** 
 429              		.loc 1 170 9 view .LVU103
 430 00bc 3220     		movs	r0, #50
 431 00be FFF7FEFF 		bl	BMI088_delay_us
 432              	.LVL60:
 172:control-base/devices/src/bmi088driver.c ****         {
 433              		.loc 1 172 9 view .LVU104
 172:control-base/devices/src/bmi088driver.c ****         {
 434              		.loc 1 172 17 is_stmt 0 view .LVU105
 435 00c2 9DF80730 		ldrb	r3, [sp, #7]	@ zero_extendqisi2
ARM GAS  /var/folders/sg/pxk9dyzj7jz_x3889hx3b3dw0000gn/T//ccLxPCKZ.s 			page 19


 172:control-base/devices/src/bmi088driver.c ****         {
 436              		.loc 1 172 12 view .LVU106
 437 00c6 9D42     		cmp	r5, r3
 438 00c8 02D1     		bne	.L27
 163:control-base/devices/src/bmi088driver.c ****     {
 439              		.loc 1 163 85 is_stmt 1 discriminator 2 view .LVU107
 440 00ca 0134     		adds	r4, r4, #1
 441              	.LVL61:
 163:control-base/devices/src/bmi088driver.c ****     {
 442              		.loc 1 163 85 is_stmt 0 discriminator 2 view .LVU108
 443 00cc E4B2     		uxtb	r4, r4
 444              	.LVL62:
 163:control-base/devices/src/bmi088driver.c ****     {
 445              		.loc 1 163 85 discriminator 2 view .LVU109
 446 00ce D9E7     		b	.L21
 447              	.LVL63:
 448              	.L27:
 174:control-base/devices/src/bmi088driver.c ****         }
 449              		.loc 1 174 13 is_stmt 1 view .LVU110
 174:control-base/devices/src/bmi088driver.c ****         }
 450              		.loc 1 174 67 is_stmt 0 view .LVU111
 451 00d0 04EB4404 		add	r4, r4, r4, lsl #1
 452              	.LVL64:
 174:control-base/devices/src/bmi088driver.c ****         }
 453              		.loc 1 174 67 view .LVU112
 454 00d4 044B     		ldr	r3, .L28
 455 00d6 2344     		add	r3, r3, r4
 456 00d8 9878     		ldrb	r0, [r3, #2]	@ zero_extendqisi2
 457 00da 00E0     		b	.L20
 458              	.LVL65:
 459              	.L26:
 178:control-base/devices/src/bmi088driver.c **** }
 460              		.loc 1 178 12 view .LVU113
 461 00dc 0020     		movs	r0, #0
 462              	.LVL66:
 463              	.L20:
 179:control-base/devices/src/bmi088driver.c **** 
 464              		.loc 1 179 1 view .LVU114
 465 00de 02B0     		add	sp, sp, #8
 466              	.LCFI8:
 467              		.cfi_remember_state
 468              		.cfi_def_cfa_offset 16
 469              		@ sp needed
 470 00e0 70BD     		pop	{r4, r5, r6, pc}
 471              	.LVL67:
 472              	.L24:
 473              	.LCFI9:
 474              		.cfi_restore_state
 159:control-base/devices/src/bmi088driver.c ****     }
 475              		.loc 1 159 16 view .LVU115
 476 00e2 FF20     		movs	r0, #255
 477 00e4 FBE7     		b	.L20
 478              	.L29:
 479 00e6 00BF     		.align	2
 480              	.L28:
 481 00e8 00000000 		.word	write_BMI088_gyro_reg_data_error
 482              		.cfi_endproc
ARM GAS  /var/folders/sg/pxk9dyzj7jz_x3889hx3b3dw0000gn/T//ccLxPCKZ.s 			page 20


 483              	.LFE136:
 485              		.section	.text.bmi088_accel_self_test,"ax",%progbits
 486              		.align	1
 487              		.global	bmi088_accel_self_test
 488              		.syntax unified
 489              		.thumb
 490              		.thumb_func
 492              	bmi088_accel_self_test:
 493              	.LFB137:
 182:control-base/devices/src/bmi088driver.c **** 
 494              		.loc 1 182 1 is_stmt 1 view -0
 495              		.cfi_startproc
 496              		@ args = 0, pretend = 0, frame = 24
 497              		@ frame_needed = 0, uses_anonymous_args = 0
 498 0000 F0B5     		push	{r4, r5, r6, r7, lr}
 499              	.LCFI10:
 500              		.cfi_def_cfa_offset 20
 501              		.cfi_offset 4, -20
 502              		.cfi_offset 5, -16
 503              		.cfi_offset 6, -12
 504              		.cfi_offset 7, -8
 505              		.cfi_offset 14, -4
 506 0002 87B0     		sub	sp, sp, #28
 507              	.LCFI11:
 508              		.cfi_def_cfa_offset 48
 184:control-base/devices/src/bmi088driver.c **** 
 509              		.loc 1 184 5 view .LVU117
 186:control-base/devices/src/bmi088driver.c ****     volatile uint8_t res = 0;
 510              		.loc 1 186 5 view .LVU118
 186:control-base/devices/src/bmi088driver.c ****     volatile uint8_t res = 0;
 511              		.loc 1 186 13 is_stmt 0 view .LVU119
 512 0004 0023     		movs	r3, #0
 513 0006 0193     		str	r3, [sp, #4]
 514 0008 ADF80830 		strh	r3, [sp, #8]	@ movhi
 187:control-base/devices/src/bmi088driver.c **** 
 515              		.loc 1 187 5 is_stmt 1 view .LVU120
 187:control-base/devices/src/bmi088driver.c **** 
 516              		.loc 1 187 22 is_stmt 0 view .LVU121
 517 000c 8DF80330 		strb	r3, [sp, #3]
 189:control-base/devices/src/bmi088driver.c **** 
 518              		.loc 1 189 5 is_stmt 1 view .LVU122
 519              	.LVL68:
 191:control-base/devices/src/bmi088driver.c ****         {
 520              		.loc 1 191 5 view .LVU123
 203:control-base/devices/src/bmi088driver.c ****     BMI088_delay_us(BMI088_COM_WAIT_SENSOR_TIME);
 521              		.loc 1 203 5 view .LVU124
 522 0010 FFF7FEFF 		bl	BMI088_ACCEL_NS_L
 523              	.LVL69:
 203:control-base/devices/src/bmi088driver.c ****     BMI088_delay_us(BMI088_COM_WAIT_SENSOR_TIME);
 524              		.loc 1 203 5 discriminator 1 view .LVU125
 525 0014 8020     		movs	r0, #128
 526 0016 FFF7FEFF 		bl	BMI088_read_write_byte
 527              	.LVL70:
 203:control-base/devices/src/bmi088driver.c ****     BMI088_delay_us(BMI088_COM_WAIT_SENSOR_TIME);
 528              		.loc 1 203 5 discriminator 2 view .LVU126
 529 001a 5520     		movs	r0, #85
 530 001c FFF7FEFF 		bl	BMI088_read_write_byte
ARM GAS  /var/folders/sg/pxk9dyzj7jz_x3889hx3b3dw0000gn/T//ccLxPCKZ.s 			page 21


 531              	.LVL71:
 203:control-base/devices/src/bmi088driver.c ****     BMI088_delay_us(BMI088_COM_WAIT_SENSOR_TIME);
 532              		.loc 1 203 5 discriminator 3 view .LVU127
 533 0020 5520     		movs	r0, #85
 534 0022 FFF7FEFF 		bl	BMI088_read_write_byte
 535              	.LVL72:
 203:control-base/devices/src/bmi088driver.c ****     BMI088_delay_us(BMI088_COM_WAIT_SENSOR_TIME);
 536              		.loc 1 203 5 is_stmt 0 discriminator 4 view .LVU128
 537 0026 8DF80300 		strb	r0, [sp, #3]
 203:control-base/devices/src/bmi088driver.c ****     BMI088_delay_us(BMI088_COM_WAIT_SENSOR_TIME);
 538              		.loc 1 203 5 is_stmt 1 discriminator 4 view .LVU129
 539 002a FFF7FEFF 		bl	BMI088_ACCEL_NS_H
 540              	.LVL73:
 203:control-base/devices/src/bmi088driver.c ****     BMI088_delay_us(BMI088_COM_WAIT_SENSOR_TIME);
 541              		.loc 1 203 58 discriminator 5 view .LVU130
 204:control-base/devices/src/bmi088driver.c ****     BMI088_accel_read_single_reg(BMI088_ACC_CHIP_ID, res);
 542              		.loc 1 204 5 view .LVU131
 543 002e 3220     		movs	r0, #50
 544 0030 FFF7FEFF 		bl	BMI088_delay_us
 545              	.LVL74:
 205:control-base/devices/src/bmi088driver.c ****     BMI088_delay_us(BMI088_COM_WAIT_SENSOR_TIME);
 546              		.loc 1 205 5 view .LVU132
 547 0034 FFF7FEFF 		bl	BMI088_ACCEL_NS_L
 548              	.LVL75:
 205:control-base/devices/src/bmi088driver.c ****     BMI088_delay_us(BMI088_COM_WAIT_SENSOR_TIME);
 549              		.loc 1 205 5 discriminator 1 view .LVU133
 550 0038 8020     		movs	r0, #128
 551 003a FFF7FEFF 		bl	BMI088_read_write_byte
 552              	.LVL76:
 205:control-base/devices/src/bmi088driver.c ****     BMI088_delay_us(BMI088_COM_WAIT_SENSOR_TIME);
 553              		.loc 1 205 5 discriminator 2 view .LVU134
 554 003e 5520     		movs	r0, #85
 555 0040 FFF7FEFF 		bl	BMI088_read_write_byte
 556              	.LVL77:
 205:control-base/devices/src/bmi088driver.c ****     BMI088_delay_us(BMI088_COM_WAIT_SENSOR_TIME);
 557              		.loc 1 205 5 discriminator 3 view .LVU135
 558 0044 5520     		movs	r0, #85
 559 0046 FFF7FEFF 		bl	BMI088_read_write_byte
 560              	.LVL78:
 205:control-base/devices/src/bmi088driver.c ****     BMI088_delay_us(BMI088_COM_WAIT_SENSOR_TIME);
 561              		.loc 1 205 5 is_stmt 0 discriminator 4 view .LVU136
 562 004a 8DF80300 		strb	r0, [sp, #3]
 205:control-base/devices/src/bmi088driver.c ****     BMI088_delay_us(BMI088_COM_WAIT_SENSOR_TIME);
 563              		.loc 1 205 5 is_stmt 1 discriminator 4 view .LVU137
 564 004e FFF7FEFF 		bl	BMI088_ACCEL_NS_H
 565              	.LVL79:
 205:control-base/devices/src/bmi088driver.c ****     BMI088_delay_us(BMI088_COM_WAIT_SENSOR_TIME);
 566              		.loc 1 205 58 discriminator 5 view .LVU138
 206:control-base/devices/src/bmi088driver.c **** 
 567              		.loc 1 206 5 view .LVU139
 568 0052 3220     		movs	r0, #50
 569 0054 FFF7FEFF 		bl	BMI088_delay_us
 570              	.LVL80:
 209:control-base/devices/src/bmi088driver.c ****     BMI088_delay_ms(BMI088_LONG_DELAY_TIME);
 571              		.loc 1 209 5 view .LVU140
 572 0058 FFF7FEFF 		bl	BMI088_ACCEL_NS_L
 573              	.LVL81:
ARM GAS  /var/folders/sg/pxk9dyzj7jz_x3889hx3b3dw0000gn/T//ccLxPCKZ.s 			page 22


 209:control-base/devices/src/bmi088driver.c ****     BMI088_delay_ms(BMI088_LONG_DELAY_TIME);
 574              		.loc 1 209 5 discriminator 1 view .LVU141
 575 005c B621     		movs	r1, #182
 576 005e 7E20     		movs	r0, #126
 577 0060 FFF7FEFF 		bl	BMI088_write_single_reg
 578              	.LVL82:
 209:control-base/devices/src/bmi088driver.c ****     BMI088_delay_ms(BMI088_LONG_DELAY_TIME);
 579              		.loc 1 209 5 discriminator 2 view .LVU142
 580 0064 FFF7FEFF 		bl	BMI088_ACCEL_NS_H
 581              	.LVL83:
 209:control-base/devices/src/bmi088driver.c ****     BMI088_delay_ms(BMI088_LONG_DELAY_TIME);
 582              		.loc 1 209 84 discriminator 3 view .LVU143
 210:control-base/devices/src/bmi088driver.c **** 
 583              		.loc 1 210 5 view .LVU144
 584 0068 9620     		movs	r0, #150
 585 006a FFF7FEFF 		bl	BMI088_delay_ms
 586              	.LVL84:
 213:control-base/devices/src/bmi088driver.c ****     BMI088_delay_us(BMI088_COM_WAIT_SENSOR_TIME);
 587              		.loc 1 213 5 view .LVU145
 588 006e FFF7FEFF 		bl	BMI088_ACCEL_NS_L
 589              	.LVL85:
 213:control-base/devices/src/bmi088driver.c ****     BMI088_delay_us(BMI088_COM_WAIT_SENSOR_TIME);
 590              		.loc 1 213 5 discriminator 1 view .LVU146
 591 0072 8020     		movs	r0, #128
 592 0074 FFF7FEFF 		bl	BMI088_read_write_byte
 593              	.LVL86:
 213:control-base/devices/src/bmi088driver.c ****     BMI088_delay_us(BMI088_COM_WAIT_SENSOR_TIME);
 594              		.loc 1 213 5 discriminator 2 view .LVU147
 595 0078 5520     		movs	r0, #85
 596 007a FFF7FEFF 		bl	BMI088_read_write_byte
 597              	.LVL87:
 213:control-base/devices/src/bmi088driver.c ****     BMI088_delay_us(BMI088_COM_WAIT_SENSOR_TIME);
 598              		.loc 1 213 5 discriminator 3 view .LVU148
 599 007e 5520     		movs	r0, #85
 600 0080 FFF7FEFF 		bl	BMI088_read_write_byte
 601              	.LVL88:
 213:control-base/devices/src/bmi088driver.c ****     BMI088_delay_us(BMI088_COM_WAIT_SENSOR_TIME);
 602              		.loc 1 213 5 is_stmt 0 discriminator 4 view .LVU149
 603 0084 8DF80300 		strb	r0, [sp, #3]
 213:control-base/devices/src/bmi088driver.c ****     BMI088_delay_us(BMI088_COM_WAIT_SENSOR_TIME);
 604              		.loc 1 213 5 is_stmt 1 discriminator 4 view .LVU150
 605 0088 FFF7FEFF 		bl	BMI088_ACCEL_NS_H
 606              	.LVL89:
 213:control-base/devices/src/bmi088driver.c ****     BMI088_delay_us(BMI088_COM_WAIT_SENSOR_TIME);
 607              		.loc 1 213 58 discriminator 5 view .LVU151
 214:control-base/devices/src/bmi088driver.c ****     BMI088_accel_read_single_reg(BMI088_ACC_CHIP_ID, res);
 608              		.loc 1 214 5 view .LVU152
 609 008c 3220     		movs	r0, #50
 610 008e FFF7FEFF 		bl	BMI088_delay_us
 611              	.LVL90:
 215:control-base/devices/src/bmi088driver.c ****     BMI088_delay_us(BMI088_COM_WAIT_SENSOR_TIME);
 612              		.loc 1 215 5 view .LVU153
 613 0092 FFF7FEFF 		bl	BMI088_ACCEL_NS_L
 614              	.LVL91:
 215:control-base/devices/src/bmi088driver.c ****     BMI088_delay_us(BMI088_COM_WAIT_SENSOR_TIME);
 615              		.loc 1 215 5 discriminator 1 view .LVU154
 616 0096 8020     		movs	r0, #128
ARM GAS  /var/folders/sg/pxk9dyzj7jz_x3889hx3b3dw0000gn/T//ccLxPCKZ.s 			page 23


 617 0098 FFF7FEFF 		bl	BMI088_read_write_byte
 618              	.LVL92:
 215:control-base/devices/src/bmi088driver.c ****     BMI088_delay_us(BMI088_COM_WAIT_SENSOR_TIME);
 619              		.loc 1 215 5 discriminator 2 view .LVU155
 620 009c 5520     		movs	r0, #85
 621 009e FFF7FEFF 		bl	BMI088_read_write_byte
 622              	.LVL93:
 215:control-base/devices/src/bmi088driver.c ****     BMI088_delay_us(BMI088_COM_WAIT_SENSOR_TIME);
 623              		.loc 1 215 5 discriminator 3 view .LVU156
 624 00a2 5520     		movs	r0, #85
 625 00a4 FFF7FEFF 		bl	BMI088_read_write_byte
 626              	.LVL94:
 215:control-base/devices/src/bmi088driver.c ****     BMI088_delay_us(BMI088_COM_WAIT_SENSOR_TIME);
 627              		.loc 1 215 5 is_stmt 0 discriminator 4 view .LVU157
 628 00a8 8DF80300 		strb	r0, [sp, #3]
 215:control-base/devices/src/bmi088driver.c ****     BMI088_delay_us(BMI088_COM_WAIT_SENSOR_TIME);
 629              		.loc 1 215 5 is_stmt 1 discriminator 4 view .LVU158
 630 00ac FFF7FEFF 		bl	BMI088_ACCEL_NS_H
 631              	.LVL95:
 215:control-base/devices/src/bmi088driver.c ****     BMI088_delay_us(BMI088_COM_WAIT_SENSOR_TIME);
 632              		.loc 1 215 58 discriminator 5 view .LVU159
 216:control-base/devices/src/bmi088driver.c **** 
 633              		.loc 1 216 5 view .LVU160
 634 00b0 3220     		movs	r0, #50
 635 00b2 FFF7FEFF 		bl	BMI088_delay_us
 636              	.LVL96:
 218:control-base/devices/src/bmi088driver.c ****     {
 637              		.loc 1 218 5 view .LVU161
 218:control-base/devices/src/bmi088driver.c ****     {
 638              		.loc 1 218 13 is_stmt 0 view .LVU162
 639 00b6 9DF80330 		ldrb	r3, [sp, #3]	@ zero_extendqisi2
 218:control-base/devices/src/bmi088driver.c ****     {
 640              		.loc 1 218 8 view .LVU163
 641 00ba 1E2B     		cmp	r3, #30
 642 00bc 40F0E980 		bne	.L38
 224:control-base/devices/src/bmi088driver.c ****     {
 643              		.loc 1 224 24 view .LVU164
 644 00c0 0024     		movs	r4, #0
 645              	.LVL97:
 646              	.L32:
 224:control-base/devices/src/bmi088driver.c ****     {
 647              		.loc 1 224 43 is_stmt 1 discriminator 1 view .LVU165
 648 00c2 032C     		cmp	r4, #3
 649 00c4 33D8     		bhi	.L41
 227:control-base/devices/src/bmi088driver.c ****         BMI088_delay_ms(BMI088_COM_WAIT_SENSOR_TIME);
 650              		.loc 1 227 9 view .LVU166
 651 00c6 FFF7FEFF 		bl	BMI088_ACCEL_NS_L
 652              	.LVL98:
 227:control-base/devices/src/bmi088driver.c ****         BMI088_delay_ms(BMI088_COM_WAIT_SENSOR_TIME);
 653              		.loc 1 227 9 discriminator 1 view .LVU167
 654 00ca 744A     		ldr	r2, .L45
 655 00cc 04EB4403 		add	r3, r4, r4, lsl #1
 656 00d0 D118     		adds	r1, r2, r3
 657 00d2 D65C     		ldrb	r6, [r2, r3]	@ zero_extendqisi2
 658 00d4 4D78     		ldrb	r5, [r1, #1]	@ zero_extendqisi2
 659 00d6 2946     		mov	r1, r5
 660 00d8 3046     		mov	r0, r6
ARM GAS  /var/folders/sg/pxk9dyzj7jz_x3889hx3b3dw0000gn/T//ccLxPCKZ.s 			page 24


 661 00da FFF7FEFF 		bl	BMI088_write_single_reg
 662              	.LVL99:
 227:control-base/devices/src/bmi088driver.c ****         BMI088_delay_ms(BMI088_COM_WAIT_SENSOR_TIME);
 663              		.loc 1 227 9 discriminator 2 view .LVU168
 664 00de FFF7FEFF 		bl	BMI088_ACCEL_NS_H
 665              	.LVL100:
 227:control-base/devices/src/bmi088driver.c ****         BMI088_delay_ms(BMI088_COM_WAIT_SENSOR_TIME);
 666              		.loc 1 227 164 discriminator 3 view .LVU169
 228:control-base/devices/src/bmi088driver.c **** 
 667              		.loc 1 228 9 view .LVU170
 668 00e2 3220     		movs	r0, #50
 669 00e4 FFF7FEFF 		bl	BMI088_delay_ms
 670              	.LVL101:
 230:control-base/devices/src/bmi088driver.c ****         BMI088_delay_ms(BMI088_COM_WAIT_SENSOR_TIME);
 671              		.loc 1 230 9 view .LVU171
 672 00e8 FFF7FEFF 		bl	BMI088_ACCEL_NS_L
 673              	.LVL102:
 230:control-base/devices/src/bmi088driver.c ****         BMI088_delay_ms(BMI088_COM_WAIT_SENSOR_TIME);
 674              		.loc 1 230 9 discriminator 1 view .LVU172
 675 00ec 46F08000 		orr	r0, r6, #128
 676 00f0 FFF7FEFF 		bl	BMI088_read_write_byte
 677              	.LVL103:
 230:control-base/devices/src/bmi088driver.c ****         BMI088_delay_ms(BMI088_COM_WAIT_SENSOR_TIME);
 678              		.loc 1 230 9 discriminator 2 view .LVU173
 679 00f4 5520     		movs	r0, #85
 680 00f6 FFF7FEFF 		bl	BMI088_read_write_byte
 681              	.LVL104:
 230:control-base/devices/src/bmi088driver.c ****         BMI088_delay_ms(BMI088_COM_WAIT_SENSOR_TIME);
 682              		.loc 1 230 9 discriminator 3 view .LVU174
 683 00fa 5520     		movs	r0, #85
 684 00fc FFF7FEFF 		bl	BMI088_read_write_byte
 685              	.LVL105:
 230:control-base/devices/src/bmi088driver.c ****         BMI088_delay_ms(BMI088_COM_WAIT_SENSOR_TIME);
 686              		.loc 1 230 9 is_stmt 0 discriminator 4 view .LVU175
 687 0100 8DF80300 		strb	r0, [sp, #3]
 230:control-base/devices/src/bmi088driver.c ****         BMI088_delay_ms(BMI088_COM_WAIT_SENSOR_TIME);
 688              		.loc 1 230 9 is_stmt 1 discriminator 4 view .LVU176
 689 0104 FFF7FEFF 		bl	BMI088_ACCEL_NS_H
 690              	.LVL106:
 230:control-base/devices/src/bmi088driver.c ****         BMI088_delay_ms(BMI088_COM_WAIT_SENSOR_TIME);
 691              		.loc 1 230 105 discriminator 5 view .LVU177
 231:control-base/devices/src/bmi088driver.c **** 
 692              		.loc 1 231 9 view .LVU178
 693 0108 3220     		movs	r0, #50
 694 010a FFF7FEFF 		bl	BMI088_delay_ms
 695              	.LVL107:
 233:control-base/devices/src/bmi088driver.c ****         {   
 696              		.loc 1 233 9 view .LVU179
 233:control-base/devices/src/bmi088driver.c ****         {   
 697              		.loc 1 233 17 is_stmt 0 view .LVU180
 698 010e 9DF80330 		ldrb	r3, [sp, #3]	@ zero_extendqisi2
 233:control-base/devices/src/bmi088driver.c ****         {   
 699              		.loc 1 233 12 view .LVU181
 700 0112 AB42     		cmp	r3, r5
 701 0114 05D1     		bne	.L42
 238:control-base/devices/src/bmi088driver.c ****     }
 702              		.loc 1 238 9 is_stmt 1 view .LVU182
ARM GAS  /var/folders/sg/pxk9dyzj7jz_x3889hx3b3dw0000gn/T//ccLxPCKZ.s 			page 25


 703 0116 9620     		movs	r0, #150
 704 0118 FFF7FEFF 		bl	BMI088_delay_ms
 705              	.LVL108:
 224:control-base/devices/src/bmi088driver.c ****     {
 706              		.loc 1 224 61 discriminator 2 view .LVU183
 707 011c 0134     		adds	r4, r4, #1
 708              	.LVL109:
 224:control-base/devices/src/bmi088driver.c ****     {
 709              		.loc 1 224 61 is_stmt 0 discriminator 2 view .LVU184
 710 011e E4B2     		uxtb	r4, r4
 711              	.LVL110:
 224:control-base/devices/src/bmi088driver.c ****     {
 712              		.loc 1 224 61 discriminator 2 view .LVU185
 713 0120 CFE7     		b	.L32
 714              	.LVL111:
 715              	.L42:
 235:control-base/devices/src/bmi088driver.c ****         }
 716              		.loc 1 235 13 is_stmt 1 view .LVU186
 235:control-base/devices/src/bmi088driver.c ****         }
 717              		.loc 1 235 78 is_stmt 0 view .LVU187
 718 0122 04EB4404 		add	r4, r4, r4, lsl #1
 719              	.LVL112:
 235:control-base/devices/src/bmi088driver.c ****         }
 720              		.loc 1 235 78 view .LVU188
 721 0126 5D4B     		ldr	r3, .L45
 722 0128 2344     		add	r3, r3, r4
 723 012a 9C78     		ldrb	r4, [r3, #2]	@ zero_extendqisi2
 724 012c AEE0     		b	.L31
 725              	.LVL113:
 726              	.L41:
 242:control-base/devices/src/bmi088driver.c ****     {
 727              		.loc 1 242 24 view .LVU189
 728 012e 0024     		movs	r4, #0
 729              	.LVL114:
 730              	.L35:
 242:control-base/devices/src/bmi088driver.c ****     {
 731              		.loc 1 242 43 is_stmt 1 discriminator 1 view .LVU190
 732 0130 012C     		cmp	r4, #1
 733 0132 65D8     		bhi	.L43
 245:control-base/devices/src/bmi088driver.c ****         BMI088_delay_ms(BMI088_COM_WAIT_SENSOR_TIME);
 734              		.loc 1 245 9 view .LVU191
 735 0134 FFF7FEFF 		bl	BMI088_ACCEL_NS_L
 736              	.LVL115:
 245:control-base/devices/src/bmi088driver.c ****         BMI088_delay_ms(BMI088_COM_WAIT_SENSOR_TIME);
 737              		.loc 1 245 9 discriminator 1 view .LVU192
 738 0138 251D     		adds	r5, r4, #4
 739 013a 584A     		ldr	r2, .L45
 740 013c 05EB4503 		add	r3, r5, r5, lsl #1
 741 0140 D118     		adds	r1, r2, r3
 742 0142 D75C     		ldrb	r7, [r2, r3]	@ zero_extendqisi2
 743 0144 4E78     		ldrb	r6, [r1, #1]	@ zero_extendqisi2
 744 0146 3146     		mov	r1, r6
 745 0148 3846     		mov	r0, r7
 746 014a FFF7FEFF 		bl	BMI088_write_single_reg
 747              	.LVL116:
 245:control-base/devices/src/bmi088driver.c ****         BMI088_delay_ms(BMI088_COM_WAIT_SENSOR_TIME);
 748              		.loc 1 245 9 discriminator 2 view .LVU193
ARM GAS  /var/folders/sg/pxk9dyzj7jz_x3889hx3b3dw0000gn/T//ccLxPCKZ.s 			page 26


 749 014e FFF7FEFF 		bl	BMI088_ACCEL_NS_H
 750              	.LVL117:
 245:control-base/devices/src/bmi088driver.c ****         BMI088_delay_ms(BMI088_COM_WAIT_SENSOR_TIME);
 751              		.loc 1 245 172 discriminator 3 view .LVU194
 246:control-base/devices/src/bmi088driver.c **** 
 752              		.loc 1 246 9 view .LVU195
 753 0152 3220     		movs	r0, #50
 754 0154 FFF7FEFF 		bl	BMI088_delay_ms
 755              	.LVL118:
 248:control-base/devices/src/bmi088driver.c ****         BMI088_delay_ms(BMI088_COM_WAIT_SENSOR_TIME);
 756              		.loc 1 248 9 view .LVU196
 757 0158 FFF7FEFF 		bl	BMI088_ACCEL_NS_L
 758              	.LVL119:
 248:control-base/devices/src/bmi088driver.c ****         BMI088_delay_ms(BMI088_COM_WAIT_SENSOR_TIME);
 759              		.loc 1 248 9 discriminator 1 view .LVU197
 760 015c 47F08000 		orr	r0, r7, #128
 761 0160 FFF7FEFF 		bl	BMI088_read_write_byte
 762              	.LVL120:
 248:control-base/devices/src/bmi088driver.c ****         BMI088_delay_ms(BMI088_COM_WAIT_SENSOR_TIME);
 763              		.loc 1 248 9 discriminator 2 view .LVU198
 764 0164 5520     		movs	r0, #85
 765 0166 FFF7FEFF 		bl	BMI088_read_write_byte
 766              	.LVL121:
 248:control-base/devices/src/bmi088driver.c ****         BMI088_delay_ms(BMI088_COM_WAIT_SENSOR_TIME);
 767              		.loc 1 248 9 discriminator 3 view .LVU199
 768 016a 5520     		movs	r0, #85
 769 016c FFF7FEFF 		bl	BMI088_read_write_byte
 770              	.LVL122:
 248:control-base/devices/src/bmi088driver.c ****         BMI088_delay_ms(BMI088_COM_WAIT_SENSOR_TIME);
 771              		.loc 1 248 9 is_stmt 0 discriminator 4 view .LVU200
 772 0170 8DF80300 		strb	r0, [sp, #3]
 248:control-base/devices/src/bmi088driver.c ****         BMI088_delay_ms(BMI088_COM_WAIT_SENSOR_TIME);
 773              		.loc 1 248 9 is_stmt 1 discriminator 4 view .LVU201
 774 0174 FFF7FEFF 		bl	BMI088_ACCEL_NS_H
 775              	.LVL123:
 248:control-base/devices/src/bmi088driver.c ****         BMI088_delay_ms(BMI088_COM_WAIT_SENSOR_TIME);
 776              		.loc 1 248 109 discriminator 5 view .LVU202
 249:control-base/devices/src/bmi088driver.c **** 
 777              		.loc 1 249 9 view .LVU203
 778 0178 3220     		movs	r0, #50
 779 017a FFF7FEFF 		bl	BMI088_delay_ms
 780              	.LVL124:
 251:control-base/devices/src/bmi088driver.c ****         {
 781              		.loc 1 251 9 view .LVU204
 251:control-base/devices/src/bmi088driver.c ****         {
 782              		.loc 1 251 17 is_stmt 0 view .LVU205
 783 017e 9DF80330 		ldrb	r3, [sp, #3]	@ zero_extendqisi2
 251:control-base/devices/src/bmi088driver.c ****         {
 784              		.loc 1 251 12 view .LVU206
 785 0182 B342     		cmp	r3, r6
 786 0184 36D1     		bne	.L44
 256:control-base/devices/src/bmi088driver.c **** 
 787              		.loc 1 256 9 is_stmt 1 view .LVU207
 788 0186 9620     		movs	r0, #150
 789 0188 FFF7FEFF 		bl	BMI088_delay_ms
 790              	.LVL125:
 259:control-base/devices/src/bmi088driver.c **** 
ARM GAS  /var/folders/sg/pxk9dyzj7jz_x3889hx3b3dw0000gn/T//ccLxPCKZ.s 			page 27


 791              		.loc 1 259 9 view .LVU208
 792 018c FFF7FEFF 		bl	BMI088_ACCEL_NS_L
 793              	.LVL126:
 259:control-base/devices/src/bmi088driver.c **** 
 794              		.loc 1 259 9 discriminator 1 view .LVU209
 795 0190 9220     		movs	r0, #146
 796 0192 FFF7FEFF 		bl	BMI088_read_write_byte
 797              	.LVL127:
 259:control-base/devices/src/bmi088driver.c **** 
 798              		.loc 1 259 9 discriminator 2 view .LVU210
 799 0196 0622     		movs	r2, #6
 800 0198 01A9     		add	r1, sp, #4
 801 019a 1220     		movs	r0, #18
 802 019c FFF7FEFF 		bl	BMI088_read_muli_reg
 803              	.LVL128:
 259:control-base/devices/src/bmi088driver.c **** 
 804              		.loc 1 259 9 discriminator 3 view .LVU211
 805 01a0 FFF7FEFF 		bl	BMI088_ACCEL_NS_H
 806              	.LVL129:
 259:control-base/devices/src/bmi088driver.c **** 
 807              		.loc 1 259 64 discriminator 4 view .LVU212
 261:control-base/devices/src/bmi088driver.c ****         self_test_accel[write_reg_num][1] = (int16_t)((buf[3]) << 8) | buf[2];
 808              		.loc 1 261 9 view .LVU213
 261:control-base/devices/src/bmi088driver.c ****         self_test_accel[write_reg_num][1] = (int16_t)((buf[3]) << 8) | buf[2];
 809              		.loc 1 261 59 is_stmt 0 view .LVU214
 810 01a4 9DF80530 		ldrb	r3, [sp, #5]	@ zero_extendqisi2
 261:control-base/devices/src/bmi088driver.c ****         self_test_accel[write_reg_num][1] = (int16_t)((buf[3]) << 8) | buf[2];
 811              		.loc 1 261 45 view .LVU215
 812 01a8 1B02     		lsls	r3, r3, #8
 813 01aa 1BB2     		sxth	r3, r3
 261:control-base/devices/src/bmi088driver.c ****         self_test_accel[write_reg_num][1] = (int16_t)((buf[3]) << 8) | buf[2];
 814              		.loc 1 261 75 view .LVU216
 815 01ac 9DF80420 		ldrb	r2, [sp, #4]	@ zero_extendqisi2
 261:control-base/devices/src/bmi088driver.c ****         self_test_accel[write_reg_num][1] = (int16_t)((buf[3]) << 8) | buf[2];
 816              		.loc 1 261 70 view .LVU217
 817 01b0 1343     		orrs	r3, r3, r2
 261:control-base/devices/src/bmi088driver.c ****         self_test_accel[write_reg_num][1] = (int16_t)((buf[3]) << 8) | buf[2];
 818              		.loc 1 261 43 view .LVU218
 819 01b2 04EB4402 		add	r2, r4, r4, lsl #1
 820 01b6 06A9     		add	r1, sp, #24
 821 01b8 01EB4202 		add	r2, r1, r2, lsl #1
 822 01bc 22F80C3C 		strh	r3, [r2, #-12]	@ movhi
 262:control-base/devices/src/bmi088driver.c ****         self_test_accel[write_reg_num][2] = (int16_t)((buf[5]) << 8) | buf[4];
 823              		.loc 1 262 9 is_stmt 1 view .LVU219
 262:control-base/devices/src/bmi088driver.c ****         self_test_accel[write_reg_num][2] = (int16_t)((buf[5]) << 8) | buf[4];
 824              		.loc 1 262 59 is_stmt 0 view .LVU220
 825 01c0 9DF80730 		ldrb	r3, [sp, #7]	@ zero_extendqisi2
 262:control-base/devices/src/bmi088driver.c ****         self_test_accel[write_reg_num][2] = (int16_t)((buf[5]) << 8) | buf[4];
 826              		.loc 1 262 45 view .LVU221
 827 01c4 1B02     		lsls	r3, r3, #8
 828 01c6 1BB2     		sxth	r3, r3
 262:control-base/devices/src/bmi088driver.c ****         self_test_accel[write_reg_num][2] = (int16_t)((buf[5]) << 8) | buf[4];
 829              		.loc 1 262 75 view .LVU222
 830 01c8 9DF80610 		ldrb	r1, [sp, #6]	@ zero_extendqisi2
 262:control-base/devices/src/bmi088driver.c ****         self_test_accel[write_reg_num][2] = (int16_t)((buf[5]) << 8) | buf[4];
 831              		.loc 1 262 70 view .LVU223
 832 01cc 0B43     		orrs	r3, r3, r1
ARM GAS  /var/folders/sg/pxk9dyzj7jz_x3889hx3b3dw0000gn/T//ccLxPCKZ.s 			page 28


 262:control-base/devices/src/bmi088driver.c ****         self_test_accel[write_reg_num][2] = (int16_t)((buf[5]) << 8) | buf[4];
 833              		.loc 1 262 43 view .LVU224
 834 01ce 22F80A3C 		strh	r3, [r2, #-10]	@ movhi
 263:control-base/devices/src/bmi088driver.c ****     }
 835              		.loc 1 263 9 is_stmt 1 view .LVU225
 263:control-base/devices/src/bmi088driver.c ****     }
 836              		.loc 1 263 59 is_stmt 0 view .LVU226
 837 01d2 9DF80930 		ldrb	r3, [sp, #9]	@ zero_extendqisi2
 263:control-base/devices/src/bmi088driver.c ****     }
 838              		.loc 1 263 45 view .LVU227
 839 01d6 1B02     		lsls	r3, r3, #8
 840 01d8 1BB2     		sxth	r3, r3
 263:control-base/devices/src/bmi088driver.c ****     }
 841              		.loc 1 263 75 view .LVU228
 842 01da 9DF80820 		ldrb	r2, [sp, #8]	@ zero_extendqisi2
 263:control-base/devices/src/bmi088driver.c ****     }
 843              		.loc 1 263 70 view .LVU229
 844 01de 1343     		orrs	r3, r3, r2
 263:control-base/devices/src/bmi088driver.c ****     }
 845              		.loc 1 263 43 view .LVU230
 846 01e0 04EB4402 		add	r2, r4, r4, lsl #1
 847 01e4 06A9     		add	r1, sp, #24
 848 01e6 01EB4202 		add	r2, r1, r2, lsl #1
 849 01ea 22F8083C 		strh	r3, [r2, #-8]	@ movhi
 242:control-base/devices/src/bmi088driver.c ****     {
 850              		.loc 1 242 61 is_stmt 1 discriminator 2 view .LVU231
 851 01ee 0134     		adds	r4, r4, #1
 852              	.LVL130:
 242:control-base/devices/src/bmi088driver.c ****     {
 853              		.loc 1 242 61 is_stmt 0 discriminator 2 view .LVU232
 854 01f0 E4B2     		uxtb	r4, r4
 855              	.LVL131:
 242:control-base/devices/src/bmi088driver.c ****     {
 856              		.loc 1 242 61 discriminator 2 view .LVU233
 857 01f2 9DE7     		b	.L35
 858              	.LVL132:
 859              	.L44:
 253:control-base/devices/src/bmi088driver.c ****         }
 860              		.loc 1 253 13 is_stmt 1 view .LVU234
 253:control-base/devices/src/bmi088driver.c ****         }
 861              		.loc 1 253 82 is_stmt 0 view .LVU235
 862 01f4 05EB4505 		add	r5, r5, r5, lsl #1
 863 01f8 284B     		ldr	r3, .L45
 864 01fa 2B44     		add	r3, r3, r5
 865 01fc 9C78     		ldrb	r4, [r3, #2]	@ zero_extendqisi2
 866              	.LVL133:
 253:control-base/devices/src/bmi088driver.c ****         }
 867              		.loc 1 253 82 view .LVU236
 868 01fe 45E0     		b	.L31
 869              	.LVL134:
 870              	.L43:
 267:control-base/devices/src/bmi088driver.c ****     BMI088_delay_us(BMI088_COM_WAIT_SENSOR_TIME);
 871              		.loc 1 267 5 is_stmt 1 view .LVU237
 872 0200 FFF7FEFF 		bl	BMI088_ACCEL_NS_L
 873              	.LVL135:
 267:control-base/devices/src/bmi088driver.c ****     BMI088_delay_us(BMI088_COM_WAIT_SENSOR_TIME);
 874              		.loc 1 267 5 discriminator 1 view .LVU238
ARM GAS  /var/folders/sg/pxk9dyzj7jz_x3889hx3b3dw0000gn/T//ccLxPCKZ.s 			page 29


 875 0204 0021     		movs	r1, #0
 876 0206 6D20     		movs	r0, #109
 877 0208 FFF7FEFF 		bl	BMI088_write_single_reg
 878              	.LVL136:
 267:control-base/devices/src/bmi088driver.c ****     BMI088_delay_us(BMI088_COM_WAIT_SENSOR_TIME);
 879              		.loc 1 267 5 discriminator 2 view .LVU239
 880 020c FFF7FEFF 		bl	BMI088_ACCEL_NS_H
 881              	.LVL137:
 267:control-base/devices/src/bmi088driver.c ****     BMI088_delay_us(BMI088_COM_WAIT_SENSOR_TIME);
 882              		.loc 1 267 82 discriminator 3 view .LVU240
 268:control-base/devices/src/bmi088driver.c ****     BMI088_accel_read_single_reg(BMI088_ACC_SELF_TEST, res);
 883              		.loc 1 268 5 view .LVU241
 884 0210 3220     		movs	r0, #50
 885 0212 FFF7FEFF 		bl	BMI088_delay_us
 886              	.LVL138:
 269:control-base/devices/src/bmi088driver.c ****     BMI088_delay_us(BMI088_COM_WAIT_SENSOR_TIME);
 887              		.loc 1 269 5 view .LVU242
 888 0216 FFF7FEFF 		bl	BMI088_ACCEL_NS_L
 889              	.LVL139:
 269:control-base/devices/src/bmi088driver.c ****     BMI088_delay_us(BMI088_COM_WAIT_SENSOR_TIME);
 890              		.loc 1 269 5 discriminator 1 view .LVU243
 891 021a ED20     		movs	r0, #237
 892 021c FFF7FEFF 		bl	BMI088_read_write_byte
 893              	.LVL140:
 269:control-base/devices/src/bmi088driver.c ****     BMI088_delay_us(BMI088_COM_WAIT_SENSOR_TIME);
 894              		.loc 1 269 5 discriminator 2 view .LVU244
 895 0220 5520     		movs	r0, #85
 896 0222 FFF7FEFF 		bl	BMI088_read_write_byte
 897              	.LVL141:
 269:control-base/devices/src/bmi088driver.c ****     BMI088_delay_us(BMI088_COM_WAIT_SENSOR_TIME);
 898              		.loc 1 269 5 discriminator 3 view .LVU245
 899 0226 5520     		movs	r0, #85
 900 0228 FFF7FEFF 		bl	BMI088_read_write_byte
 901              	.LVL142:
 269:control-base/devices/src/bmi088driver.c ****     BMI088_delay_us(BMI088_COM_WAIT_SENSOR_TIME);
 902              		.loc 1 269 5 is_stmt 0 discriminator 4 view .LVU246
 903 022c 8DF80300 		strb	r0, [sp, #3]
 269:control-base/devices/src/bmi088driver.c ****     BMI088_delay_us(BMI088_COM_WAIT_SENSOR_TIME);
 904              		.loc 1 269 5 is_stmt 1 discriminator 4 view .LVU247
 905 0230 FFF7FEFF 		bl	BMI088_ACCEL_NS_H
 906              	.LVL143:
 269:control-base/devices/src/bmi088driver.c ****     BMI088_delay_us(BMI088_COM_WAIT_SENSOR_TIME);
 907              		.loc 1 269 60 discriminator 5 view .LVU248
 270:control-base/devices/src/bmi088driver.c **** 
 908              		.loc 1 270 5 view .LVU249
 909 0234 3220     		movs	r0, #50
 910 0236 FFF7FEFF 		bl	BMI088_delay_us
 911              	.LVL144:
 272:control-base/devices/src/bmi088driver.c ****     {
 912              		.loc 1 272 5 view .LVU250
 272:control-base/devices/src/bmi088driver.c ****     {
 913              		.loc 1 272 13 is_stmt 0 view .LVU251
 914 023a 9DF80330 		ldrb	r3, [sp, #3]	@ zero_extendqisi2
 272:control-base/devices/src/bmi088driver.c ****     {
 915              		.loc 1 272 8 view .LVU252
 916 023e 03F0FF04 		and	r4, r3, #255
 917              	.LVL145:
ARM GAS  /var/folders/sg/pxk9dyzj7jz_x3889hx3b3dw0000gn/T//ccLxPCKZ.s 			page 30


 272:control-base/devices/src/bmi088driver.c ****     {
 918              		.loc 1 272 8 view .LVU253
 919 0242 43BB     		cbnz	r3, .L39
 281:control-base/devices/src/bmi088driver.c ****     {
 920              		.loc 1 281 5 is_stmt 1 view .LVU254
 284:control-base/devices/src/bmi088driver.c **** 
 921              		.loc 1 284 5 view .LVU255
 286:control-base/devices/src/bmi088driver.c ****     BMI088_delay_us(BMI088_COM_WAIT_SENSOR_TIME);
 922              		.loc 1 286 5 view .LVU256
 923 0244 FFF7FEFF 		bl	BMI088_ACCEL_NS_L
 924              	.LVL146:
 286:control-base/devices/src/bmi088driver.c ****     BMI088_delay_us(BMI088_COM_WAIT_SENSOR_TIME);
 925              		.loc 1 286 5 discriminator 1 view .LVU257
 926 0248 8020     		movs	r0, #128
 927 024a FFF7FEFF 		bl	BMI088_read_write_byte
 928              	.LVL147:
 286:control-base/devices/src/bmi088driver.c ****     BMI088_delay_us(BMI088_COM_WAIT_SENSOR_TIME);
 929              		.loc 1 286 5 discriminator 2 view .LVU258
 930 024e 5520     		movs	r0, #85
 931 0250 FFF7FEFF 		bl	BMI088_read_write_byte
 932              	.LVL148:
 286:control-base/devices/src/bmi088driver.c ****     BMI088_delay_us(BMI088_COM_WAIT_SENSOR_TIME);
 933              		.loc 1 286 5 discriminator 3 view .LVU259
 934 0254 5520     		movs	r0, #85
 935 0256 FFF7FEFF 		bl	BMI088_read_write_byte
 936              	.LVL149:
 286:control-base/devices/src/bmi088driver.c ****     BMI088_delay_us(BMI088_COM_WAIT_SENSOR_TIME);
 937              		.loc 1 286 5 is_stmt 0 discriminator 4 view .LVU260
 938 025a 8DF80300 		strb	r0, [sp, #3]
 286:control-base/devices/src/bmi088driver.c ****     BMI088_delay_us(BMI088_COM_WAIT_SENSOR_TIME);
 939              		.loc 1 286 5 is_stmt 1 discriminator 4 view .LVU261
 940 025e FFF7FEFF 		bl	BMI088_ACCEL_NS_H
 941              	.LVL150:
 286:control-base/devices/src/bmi088driver.c ****     BMI088_delay_us(BMI088_COM_WAIT_SENSOR_TIME);
 942              		.loc 1 286 58 discriminator 5 view .LVU262
 287:control-base/devices/src/bmi088driver.c ****     BMI088_accel_read_single_reg(BMI088_ACC_CHIP_ID, res);
 943              		.loc 1 287 5 view .LVU263
 944 0262 3220     		movs	r0, #50
 945 0264 FFF7FEFF 		bl	BMI088_delay_us
 946              	.LVL151:
 288:control-base/devices/src/bmi088driver.c ****     BMI088_delay_us(BMI088_COM_WAIT_SENSOR_TIME);
 947              		.loc 1 288 5 view .LVU264
 948 0268 FFF7FEFF 		bl	BMI088_ACCEL_NS_L
 949              	.LVL152:
 288:control-base/devices/src/bmi088driver.c ****     BMI088_delay_us(BMI088_COM_WAIT_SENSOR_TIME);
 950              		.loc 1 288 5 discriminator 1 view .LVU265
 951 026c 8020     		movs	r0, #128
 952 026e FFF7FEFF 		bl	BMI088_read_write_byte
 953              	.LVL153:
 288:control-base/devices/src/bmi088driver.c ****     BMI088_delay_us(BMI088_COM_WAIT_SENSOR_TIME);
 954              		.loc 1 288 5 discriminator 2 view .LVU266
 955 0272 5520     		movs	r0, #85
 956 0274 FFF7FEFF 		bl	BMI088_read_write_byte
 957              	.LVL154:
 288:control-base/devices/src/bmi088driver.c ****     BMI088_delay_us(BMI088_COM_WAIT_SENSOR_TIME);
 958              		.loc 1 288 5 discriminator 3 view .LVU267
 959 0278 5520     		movs	r0, #85
ARM GAS  /var/folders/sg/pxk9dyzj7jz_x3889hx3b3dw0000gn/T//ccLxPCKZ.s 			page 31


 960 027a FFF7FEFF 		bl	BMI088_read_write_byte
 961              	.LVL155:
 288:control-base/devices/src/bmi088driver.c ****     BMI088_delay_us(BMI088_COM_WAIT_SENSOR_TIME);
 962              		.loc 1 288 5 is_stmt 0 discriminator 4 view .LVU268
 963 027e 8DF80300 		strb	r0, [sp, #3]
 288:control-base/devices/src/bmi088driver.c ****     BMI088_delay_us(BMI088_COM_WAIT_SENSOR_TIME);
 964              		.loc 1 288 5 is_stmt 1 discriminator 4 view .LVU269
 965 0282 FFF7FEFF 		bl	BMI088_ACCEL_NS_H
 966              	.LVL156:
 288:control-base/devices/src/bmi088driver.c ****     BMI088_delay_us(BMI088_COM_WAIT_SENSOR_TIME);
 967              		.loc 1 288 58 discriminator 5 view .LVU270
 289:control-base/devices/src/bmi088driver.c **** 
 968              		.loc 1 289 5 view .LVU271
 969 0286 3220     		movs	r0, #50
 970 0288 FFF7FEFF 		bl	BMI088_delay_us
 971              	.LVL157:
 291:control-base/devices/src/bmi088driver.c **** }
 972              		.loc 1 291 5 view .LVU272
 973              	.L31:
 292:control-base/devices/src/bmi088driver.c **** uint8_t bmi088_gyro_self_test(void)
 974              		.loc 1 292 1 is_stmt 0 view .LVU273
 975 028c 2046     		mov	r0, r4
 976 028e 07B0     		add	sp, sp, #28
 977              	.LCFI12:
 978              		.cfi_remember_state
 979              		.cfi_def_cfa_offset 20
 980              		@ sp needed
 981 0290 F0BD     		pop	{r4, r5, r6, r7, pc}
 982              	.LVL158:
 983              	.L38:
 984              	.LCFI13:
 985              		.cfi_restore_state
 220:control-base/devices/src/bmi088driver.c ****     }
 986              		.loc 1 220 16 view .LVU274
 987 0292 FF24     		movs	r4, #255
 988 0294 FAE7     		b	.L31
 989              	.LVL159:
 990              	.L39:
 274:control-base/devices/src/bmi088driver.c ****     }
 991              		.loc 1 274 16 view .LVU275
 992 0296 0424     		movs	r4, #4
 993 0298 F8E7     		b	.L31
 994              	.L46:
 995 029a 00BF     		.align	2
 996              	.L45:
 997 029c 00000000 		.word	write_BMI088_ACCEL_self_test_Reg_Data_Error.0
 998              		.cfi_endproc
 999              	.LFE137:
 1001              		.section	.text.bmi088_gyro_self_test,"ax",%progbits
 1002              		.align	1
 1003              		.global	bmi088_gyro_self_test
 1004              		.syntax unified
 1005              		.thumb
 1006              		.thumb_func
 1008              	bmi088_gyro_self_test:
 1009              	.LFB138:
 294:control-base/devices/src/bmi088driver.c ****     uint8_t res = 0;
ARM GAS  /var/folders/sg/pxk9dyzj7jz_x3889hx3b3dw0000gn/T//ccLxPCKZ.s 			page 32


 1010              		.loc 1 294 1 is_stmt 1 view -0
 1011              		.cfi_startproc
 1012              		@ args = 0, pretend = 0, frame = 8
 1013              		@ frame_needed = 0, uses_anonymous_args = 0
 1014 0000 30B5     		push	{r4, r5, lr}
 1015              	.LCFI14:
 1016              		.cfi_def_cfa_offset 12
 1017              		.cfi_offset 4, -12
 1018              		.cfi_offset 5, -8
 1019              		.cfi_offset 14, -4
 1020 0002 83B0     		sub	sp, sp, #12
 1021              	.LCFI15:
 1022              		.cfi_def_cfa_offset 24
 295:control-base/devices/src/bmi088driver.c ****     uint8_t retry = 0;
 1023              		.loc 1 295 5 view .LVU277
 295:control-base/devices/src/bmi088driver.c ****     uint8_t retry = 0;
 1024              		.loc 1 295 13 is_stmt 0 view .LVU278
 1025 0004 0024     		movs	r4, #0
 1026 0006 8DF80740 		strb	r4, [sp, #7]
 296:control-base/devices/src/bmi088driver.c ****     //check commiunication is normal
 1027              		.loc 1 296 5 is_stmt 1 view .LVU279
 1028              	.LVL160:
 298:control-base/devices/src/bmi088driver.c ****     BMI088_delay_us(BMI088_COM_WAIT_SENSOR_TIME);
 1029              		.loc 1 298 5 view .LVU280
 1030 000a FFF7FEFF 		bl	BMI088_GYRO_NS_L
 1031              	.LVL161:
 298:control-base/devices/src/bmi088driver.c ****     BMI088_delay_us(BMI088_COM_WAIT_SENSOR_TIME);
 1032              		.loc 1 298 5 discriminator 1 view .LVU281
 1033 000e 0DF10705 		add	r5, sp, #7
 1034 0012 2946     		mov	r1, r5
 1035 0014 2046     		mov	r0, r4
 1036 0016 FFF7FEFF 		bl	BMI088_read_single_reg
 1037              	.LVL162:
 298:control-base/devices/src/bmi088driver.c ****     BMI088_delay_us(BMI088_COM_WAIT_SENSOR_TIME);
 1038              		.loc 1 298 5 discriminator 2 view .LVU282
 1039 001a FFF7FEFF 		bl	BMI088_GYRO_NS_H
 1040              	.LVL163:
 298:control-base/devices/src/bmi088driver.c ****     BMI088_delay_us(BMI088_COM_WAIT_SENSOR_TIME);
 1041              		.loc 1 298 58 discriminator 3 view .LVU283
 299:control-base/devices/src/bmi088driver.c ****     BMI088_gyro_read_single_reg(BMI088_GYRO_CHIP_ID, res);
 1042              		.loc 1 299 5 view .LVU284
 1043 001e 3220     		movs	r0, #50
 1044 0020 FFF7FEFF 		bl	BMI088_delay_us
 1045              	.LVL164:
 300:control-base/devices/src/bmi088driver.c ****     BMI088_delay_us(BMI088_COM_WAIT_SENSOR_TIME);
 1046              		.loc 1 300 5 view .LVU285
 1047 0024 FFF7FEFF 		bl	BMI088_GYRO_NS_L
 1048              	.LVL165:
 300:control-base/devices/src/bmi088driver.c ****     BMI088_delay_us(BMI088_COM_WAIT_SENSOR_TIME);
 1049              		.loc 1 300 5 discriminator 1 view .LVU286
 1050 0028 2946     		mov	r1, r5
 1051 002a 2046     		mov	r0, r4
 1052 002c FFF7FEFF 		bl	BMI088_read_single_reg
 1053              	.LVL166:
 300:control-base/devices/src/bmi088driver.c ****     BMI088_delay_us(BMI088_COM_WAIT_SENSOR_TIME);
 1054              		.loc 1 300 5 discriminator 2 view .LVU287
 1055 0030 FFF7FEFF 		bl	BMI088_GYRO_NS_H
ARM GAS  /var/folders/sg/pxk9dyzj7jz_x3889hx3b3dw0000gn/T//ccLxPCKZ.s 			page 33


 1056              	.LVL167:
 300:control-base/devices/src/bmi088driver.c ****     BMI088_delay_us(BMI088_COM_WAIT_SENSOR_TIME);
 1057              		.loc 1 300 58 discriminator 3 view .LVU288
 301:control-base/devices/src/bmi088driver.c ****     //reset the gyro sensor
 1058              		.loc 1 301 5 view .LVU289
 1059 0034 3220     		movs	r0, #50
 1060 0036 FFF7FEFF 		bl	BMI088_delay_us
 1061              	.LVL168:
 303:control-base/devices/src/bmi088driver.c ****     BMI088_delay_ms(BMI088_LONG_DELAY_TIME);
 1062              		.loc 1 303 5 view .LVU290
 1063 003a FFF7FEFF 		bl	BMI088_GYRO_NS_L
 1064              	.LVL169:
 303:control-base/devices/src/bmi088driver.c ****     BMI088_delay_ms(BMI088_LONG_DELAY_TIME);
 1065              		.loc 1 303 5 discriminator 1 view .LVU291
 1066 003e B621     		movs	r1, #182
 1067 0040 1420     		movs	r0, #20
 1068 0042 FFF7FEFF 		bl	BMI088_write_single_reg
 1069              	.LVL170:
 303:control-base/devices/src/bmi088driver.c ****     BMI088_delay_ms(BMI088_LONG_DELAY_TIME);
 1070              		.loc 1 303 5 discriminator 2 view .LVU292
 1071 0046 FFF7FEFF 		bl	BMI088_GYRO_NS_H
 1072              	.LVL171:
 303:control-base/devices/src/bmi088driver.c ****     BMI088_delay_ms(BMI088_LONG_DELAY_TIME);
 1073              		.loc 1 303 85 discriminator 3 view .LVU293
 304:control-base/devices/src/bmi088driver.c ****     //check commiunication is normal after reset
 1074              		.loc 1 304 5 view .LVU294
 1075 004a 9620     		movs	r0, #150
 1076 004c FFF7FEFF 		bl	BMI088_delay_ms
 1077              	.LVL172:
 306:control-base/devices/src/bmi088driver.c ****     BMI088_delay_us(BMI088_COM_WAIT_SENSOR_TIME);
 1078              		.loc 1 306 5 view .LVU295
 1079 0050 FFF7FEFF 		bl	BMI088_GYRO_NS_L
 1080              	.LVL173:
 306:control-base/devices/src/bmi088driver.c ****     BMI088_delay_us(BMI088_COM_WAIT_SENSOR_TIME);
 1081              		.loc 1 306 5 discriminator 1 view .LVU296
 1082 0054 2946     		mov	r1, r5
 1083 0056 2046     		mov	r0, r4
 1084 0058 FFF7FEFF 		bl	BMI088_read_single_reg
 1085              	.LVL174:
 306:control-base/devices/src/bmi088driver.c ****     BMI088_delay_us(BMI088_COM_WAIT_SENSOR_TIME);
 1086              		.loc 1 306 5 discriminator 2 view .LVU297
 1087 005c FFF7FEFF 		bl	BMI088_GYRO_NS_H
 1088              	.LVL175:
 306:control-base/devices/src/bmi088driver.c ****     BMI088_delay_us(BMI088_COM_WAIT_SENSOR_TIME);
 1089              		.loc 1 306 58 discriminator 3 view .LVU298
 307:control-base/devices/src/bmi088driver.c ****     BMI088_gyro_read_single_reg(BMI088_GYRO_CHIP_ID, res);
 1090              		.loc 1 307 5 view .LVU299
 1091 0060 3220     		movs	r0, #50
 1092 0062 FFF7FEFF 		bl	BMI088_delay_us
 1093              	.LVL176:
 308:control-base/devices/src/bmi088driver.c ****     BMI088_delay_us(BMI088_COM_WAIT_SENSOR_TIME);
 1094              		.loc 1 308 5 view .LVU300
 1095 0066 FFF7FEFF 		bl	BMI088_GYRO_NS_L
 1096              	.LVL177:
 308:control-base/devices/src/bmi088driver.c ****     BMI088_delay_us(BMI088_COM_WAIT_SENSOR_TIME);
 1097              		.loc 1 308 5 discriminator 1 view .LVU301
 1098 006a 2946     		mov	r1, r5
ARM GAS  /var/folders/sg/pxk9dyzj7jz_x3889hx3b3dw0000gn/T//ccLxPCKZ.s 			page 34


 1099 006c 2046     		mov	r0, r4
 1100 006e FFF7FEFF 		bl	BMI088_read_single_reg
 1101              	.LVL178:
 308:control-base/devices/src/bmi088driver.c ****     BMI088_delay_us(BMI088_COM_WAIT_SENSOR_TIME);
 1102              		.loc 1 308 5 discriminator 2 view .LVU302
 1103 0072 FFF7FEFF 		bl	BMI088_GYRO_NS_H
 1104              	.LVL179:
 308:control-base/devices/src/bmi088driver.c ****     BMI088_delay_us(BMI088_COM_WAIT_SENSOR_TIME);
 1105              		.loc 1 308 58 discriminator 3 view .LVU303
 309:control-base/devices/src/bmi088driver.c **** 
 1106              		.loc 1 309 5 view .LVU304
 1107 0076 3220     		movs	r0, #50
 1108 0078 FFF7FEFF 		bl	BMI088_delay_us
 1109              	.LVL180:
 311:control-base/devices/src/bmi088driver.c ****     BMI088_delay_ms(BMI088_LONG_DELAY_TIME);
 1110              		.loc 1 311 5 view .LVU305
 1111 007c FFF7FEFF 		bl	BMI088_GYRO_NS_L
 1112              	.LVL181:
 311:control-base/devices/src/bmi088driver.c ****     BMI088_delay_ms(BMI088_LONG_DELAY_TIME);
 1113              		.loc 1 311 5 discriminator 1 view .LVU306
 1114 0080 0121     		movs	r1, #1
 1115 0082 3C20     		movs	r0, #60
 1116 0084 FFF7FEFF 		bl	BMI088_write_single_reg
 1117              	.LVL182:
 311:control-base/devices/src/bmi088driver.c ****     BMI088_delay_ms(BMI088_LONG_DELAY_TIME);
 1118              		.loc 1 311 5 discriminator 2 view .LVU307
 1119 0088 FFF7FEFF 		bl	BMI088_GYRO_NS_H
 1120              	.LVL183:
 311:control-base/devices/src/bmi088driver.c ****     BMI088_delay_ms(BMI088_LONG_DELAY_TIME);
 1121              		.loc 1 311 79 discriminator 3 view .LVU308
 312:control-base/devices/src/bmi088driver.c **** 
 1122              		.loc 1 312 5 view .LVU309
 1123 008c 9620     		movs	r0, #150
 1124 008e FFF7FEFF 		bl	BMI088_delay_ms
 1125              	.LVL184:
 1126              	.L49:
 314:control-base/devices/src/bmi088driver.c ****     {
 1127              		.loc 1 314 5 view .LVU310
 317:control-base/devices/src/bmi088driver.c ****         BMI088_delay_us(BMI088_COM_WAIT_SENSOR_TIME);
 1128              		.loc 1 317 9 view .LVU311
 1129 0092 FFF7FEFF 		bl	BMI088_GYRO_NS_L
 1130              	.LVL185:
 317:control-base/devices/src/bmi088driver.c ****         BMI088_delay_us(BMI088_COM_WAIT_SENSOR_TIME);
 1131              		.loc 1 317 9 discriminator 1 view .LVU312
 1132 0096 0DF10701 		add	r1, sp, #7
 1133 009a 3C20     		movs	r0, #60
 1134 009c FFF7FEFF 		bl	BMI088_read_single_reg
 1135              	.LVL186:
 317:control-base/devices/src/bmi088driver.c ****         BMI088_delay_us(BMI088_COM_WAIT_SENSOR_TIME);
 1136              		.loc 1 317 9 discriminator 2 view .LVU313
 1137 00a0 FFF7FEFF 		bl	BMI088_GYRO_NS_H
 1138              	.LVL187:
 317:control-base/devices/src/bmi088driver.c ****         BMI088_delay_us(BMI088_COM_WAIT_SENSOR_TIME);
 1139              		.loc 1 317 64 discriminator 3 view .LVU314
 318:control-base/devices/src/bmi088driver.c ****         retry++;
 1140              		.loc 1 318 9 view .LVU315
 1141 00a4 3220     		movs	r0, #50
ARM GAS  /var/folders/sg/pxk9dyzj7jz_x3889hx3b3dw0000gn/T//ccLxPCKZ.s 			page 35


 1142 00a6 FFF7FEFF 		bl	BMI088_delay_us
 1143              	.LVL188:
 319:control-base/devices/src/bmi088driver.c ****     } while (!(res & BMI088_GYRO_BIST_RDY) && retry < 10);
 1144              		.loc 1 319 9 view .LVU316
 319:control-base/devices/src/bmi088driver.c ****     } while (!(res & BMI088_GYRO_BIST_RDY) && retry < 10);
 1145              		.loc 1 319 14 is_stmt 0 view .LVU317
 1146 00aa 0134     		adds	r4, r4, #1
 1147              	.LVL189:
 319:control-base/devices/src/bmi088driver.c ****     } while (!(res & BMI088_GYRO_BIST_RDY) && retry < 10);
 1148              		.loc 1 319 14 view .LVU318
 1149 00ac E4B2     		uxtb	r4, r4
 1150              	.LVL190:
 320:control-base/devices/src/bmi088driver.c **** 
 1151              		.loc 1 320 44 is_stmt 1 discriminator 2 view .LVU319
 320:control-base/devices/src/bmi088driver.c **** 
 1152              		.loc 1 320 20 is_stmt 0 discriminator 2 view .LVU320
 1153 00ae 9DF80700 		ldrb	r0, [sp, #7]	@ zero_extendqisi2
 320:control-base/devices/src/bmi088driver.c **** 
 1154              		.loc 1 320 44 discriminator 2 view .LVU321
 1155 00b2 10F0020F 		tst	r0, #2
 1156 00b6 01D1     		bne	.L48
 320:control-base/devices/src/bmi088driver.c **** 
 1157              		.loc 1 320 44 discriminator 1 view .LVU322
 1158 00b8 092C     		cmp	r4, #9
 1159 00ba EAD9     		bls	.L49
 1160              	.L48:
 322:control-base/devices/src/bmi088driver.c ****     {
 1161              		.loc 1 322 5 is_stmt 1 view .LVU323
 322:control-base/devices/src/bmi088driver.c ****     {
 1162              		.loc 1 322 8 is_stmt 0 view .LVU324
 1163 00bc 0A2C     		cmp	r4, #10
 1164 00be 04D0     		beq	.L51
 327:control-base/devices/src/bmi088driver.c ****     {
 1165              		.loc 1 327 5 is_stmt 1 view .LVU325
 327:control-base/devices/src/bmi088driver.c ****     {
 1166              		.loc 1 327 8 is_stmt 0 view .LVU326
 1167 00c0 10F00400 		ands	r0, r0, #4
 1168 00c4 03D1     		bne	.L54
 1169              	.L50:
 333:control-base/devices/src/bmi088driver.c **** 
 1170              		.loc 1 333 1 view .LVU327
 1171 00c6 03B0     		add	sp, sp, #12
 1172              	.LCFI16:
 1173              		.cfi_remember_state
 1174              		.cfi_def_cfa_offset 12
 1175              		@ sp needed
 1176 00c8 30BD     		pop	{r4, r5, pc}
 1177              	.LVL191:
 1178              	.L51:
 1179              	.LCFI17:
 1180              		.cfi_restore_state
 324:control-base/devices/src/bmi088driver.c ****     }
 1181              		.loc 1 324 16 view .LVU328
 1182 00ca 4020     		movs	r0, #64
 1183 00cc FBE7     		b	.L50
 1184              	.L54:
 329:control-base/devices/src/bmi088driver.c ****     }
ARM GAS  /var/folders/sg/pxk9dyzj7jz_x3889hx3b3dw0000gn/T//ccLxPCKZ.s 			page 36


 1185              		.loc 1 329 16 view .LVU329
 1186 00ce 4020     		movs	r0, #64
 1187 00d0 F9E7     		b	.L50
 1188              		.cfi_endproc
 1189              	.LFE138:
 1191              		.section	.text.BMI088_init,"ax",%progbits
 1192              		.align	1
 1193              		.global	BMI088_init
 1194              		.syntax unified
 1195              		.thumb
 1196              		.thumb_func
 1198              	BMI088_init:
 1199              	.LFB134:
  88:control-base/devices/src/bmi088driver.c ****     uint8_t error = BMI088_NO_ERROR;
 1200              		.loc 1 88 1 is_stmt 1 view -0
 1201              		.cfi_startproc
 1202              		@ args = 0, pretend = 0, frame = 0
 1203              		@ frame_needed = 0, uses_anonymous_args = 0
 1204 0000 10B5     		push	{r4, lr}
 1205              	.LCFI18:
 1206              		.cfi_def_cfa_offset 8
 1207              		.cfi_offset 4, -8
 1208              		.cfi_offset 14, -4
  89:control-base/devices/src/bmi088driver.c **** 
 1209              		.loc 1 89 5 view .LVU331
 1210              	.LVL192:
  92:control-base/devices/src/bmi088driver.c ****     {
 1211              		.loc 1 92 5 view .LVU332
  92:control-base/devices/src/bmi088driver.c ****     {
 1212              		.loc 1 92 9 is_stmt 0 view .LVU333
 1213 0002 FFF7FEFF 		bl	bmi088_accel_self_test
 1214              	.LVL193:
  92:control-base/devices/src/bmi088driver.c ****     {
 1215              		.loc 1 92 8 discriminator 1 view .LVU334
 1216 0006 48B1     		cbz	r0, .L61
  94:control-base/devices/src/bmi088driver.c ****     }
 1217              		.loc 1 94 15 view .LVU335
 1218 0008 8024     		movs	r4, #128
 1219              	.LVL194:
 1220              	.L56:
 100:control-base/devices/src/bmi088driver.c ****     if (bmi088_gyro_self_test() != BMI088_NO_ERROR)
 1221              		.loc 1 100 5 is_stmt 1 view .LVU336
 1222 000a FFF7FEFF 		bl	bmi088_accel_init
 1223              	.LVL195:
 101:control-base/devices/src/bmi088driver.c ****     {
 1224              		.loc 1 101 5 view .LVU337
 101:control-base/devices/src/bmi088driver.c ****     {
 1225              		.loc 1 101 9 is_stmt 0 view .LVU338
 1226 000e FFF7FEFF 		bl	bmi088_gyro_self_test
 1227              	.LVL196:
 101:control-base/devices/src/bmi088driver.c ****     {
 1228              		.loc 1 101 8 discriminator 1 view .LVU339
 1229 0012 38B1     		cbz	r0, .L57
 103:control-base/devices/src/bmi088driver.c ****     }
 1230              		.loc 1 103 9 is_stmt 1 view .LVU340
 103:control-base/devices/src/bmi088driver.c ****     }
 1231              		.loc 1 103 15 is_stmt 0 view .LVU341
ARM GAS  /var/folders/sg/pxk9dyzj7jz_x3889hx3b3dw0000gn/T//ccLxPCKZ.s 			page 37


 1232 0014 44F04000 		orr	r0, r4, #64
 1233 0018 C0B2     		uxtb	r0, r0
 1234              	.LVL197:
 1235              	.L58:
 110:control-base/devices/src/bmi088driver.c **** }
 1236              		.loc 1 110 5 is_stmt 1 view .LVU342
 111:control-base/devices/src/bmi088driver.c **** 
 1237              		.loc 1 111 1 is_stmt 0 view .LVU343
 1238 001a 10BD     		pop	{r4, pc}
 1239              	.LVL198:
 1240              	.L61:
  98:control-base/devices/src/bmi088driver.c ****     }
 1241              		.loc 1 98 9 is_stmt 1 view .LVU344
  98:control-base/devices/src/bmi088driver.c ****     }
 1242              		.loc 1 98 18 is_stmt 0 view .LVU345
 1243 001c FFF7FEFF 		bl	bmi088_accel_init
 1244              	.LVL199:
 1245 0020 0446     		mov	r4, r0
 1246              	.LVL200:
  98:control-base/devices/src/bmi088driver.c ****     }
 1247              		.loc 1 98 18 view .LVU346
 1248 0022 F2E7     		b	.L56
 1249              	.L57:
 107:control-base/devices/src/bmi088driver.c ****     }
 1250              		.loc 1 107 9 is_stmt 1 view .LVU347
 107:control-base/devices/src/bmi088driver.c ****     }
 1251              		.loc 1 107 18 is_stmt 0 view .LVU348
 1252 0024 FFF7FEFF 		bl	bmi088_gyro_init
 1253              	.LVL201:
 107:control-base/devices/src/bmi088driver.c ****     }
 1254              		.loc 1 107 15 discriminator 1 view .LVU349
 1255 0028 2043     		orrs	r0, r0, r4
 1256 002a C0B2     		uxtb	r0, r0
 1257 002c F5E7     		b	.L58
 1258              		.cfi_endproc
 1259              	.LFE134:
 1261              		.section	.text.BMI088_read_gyro_who_am_i,"ax",%progbits
 1262              		.align	1
 1263              		.global	BMI088_read_gyro_who_am_i
 1264              		.syntax unified
 1265              		.thumb
 1266              		.thumb_func
 1268              	BMI088_read_gyro_who_am_i:
 1269              	.LFB139:
 336:control-base/devices/src/bmi088driver.c ****     uint8_t buf;
 1270              		.loc 1 336 1 is_stmt 1 view -0
 1271              		.cfi_startproc
 1272              		@ args = 0, pretend = 0, frame = 8
 1273              		@ frame_needed = 0, uses_anonymous_args = 0
 1274 0000 00B5     		push	{lr}
 1275              	.LCFI19:
 1276              		.cfi_def_cfa_offset 4
 1277              		.cfi_offset 14, -4
 1278 0002 83B0     		sub	sp, sp, #12
 1279              	.LCFI20:
 1280              		.cfi_def_cfa_offset 16
 337:control-base/devices/src/bmi088driver.c ****     BMI088_gyro_read_single_reg(BMI088_GYRO_CHIP_ID, buf);
ARM GAS  /var/folders/sg/pxk9dyzj7jz_x3889hx3b3dw0000gn/T//ccLxPCKZ.s 			page 38


 1281              		.loc 1 337 5 view .LVU351
 338:control-base/devices/src/bmi088driver.c ****     return buf;
 1282              		.loc 1 338 5 view .LVU352
 1283 0004 FFF7FEFF 		bl	BMI088_GYRO_NS_L
 1284              	.LVL202:
 338:control-base/devices/src/bmi088driver.c ****     return buf;
 1285              		.loc 1 338 5 discriminator 1 view .LVU353
 1286 0008 0DF10701 		add	r1, sp, #7
 1287 000c 0020     		movs	r0, #0
 1288 000e FFF7FEFF 		bl	BMI088_read_single_reg
 1289              	.LVL203:
 338:control-base/devices/src/bmi088driver.c ****     return buf;
 1290              		.loc 1 338 5 discriminator 2 view .LVU354
 1291 0012 FFF7FEFF 		bl	BMI088_GYRO_NS_H
 1292              	.LVL204:
 338:control-base/devices/src/bmi088driver.c ****     return buf;
 1293              		.loc 1 338 58 discriminator 3 view .LVU355
 339:control-base/devices/src/bmi088driver.c **** }
 1294              		.loc 1 339 5 view .LVU356
 340:control-base/devices/src/bmi088driver.c **** 
 1295              		.loc 1 340 1 is_stmt 0 view .LVU357
 1296 0016 9DF80700 		ldrb	r0, [sp, #7]	@ zero_extendqisi2
 1297 001a 03B0     		add	sp, sp, #12
 1298              	.LCFI21:
 1299              		.cfi_def_cfa_offset 4
 1300              		@ sp needed
 1301 001c 5DF804FB 		ldr	pc, [sp], #4
 1302              		.cfi_endproc
 1303              	.LFE139:
 1305              		.section	.text.BMI088_read_accel_who_am_i,"ax",%progbits
 1306              		.align	1
 1307              		.global	BMI088_read_accel_who_am_i
 1308              		.syntax unified
 1309              		.thumb
 1310              		.thumb_func
 1312              	BMI088_read_accel_who_am_i:
 1313              	.LFB140:
 344:control-base/devices/src/bmi088driver.c ****     uint8_t buf;
 1314              		.loc 1 344 1 is_stmt 1 view -0
 1315              		.cfi_startproc
 1316              		@ args = 0, pretend = 0, frame = 0
 1317              		@ frame_needed = 0, uses_anonymous_args = 0
 1318 0000 10B5     		push	{r4, lr}
 1319              	.LCFI22:
 1320              		.cfi_def_cfa_offset 8
 1321              		.cfi_offset 4, -8
 1322              		.cfi_offset 14, -4
 345:control-base/devices/src/bmi088driver.c ****     BMI088_accel_read_single_reg(BMI088_ACC_CHIP_ID, buf);
 1323              		.loc 1 345 5 view .LVU359
 346:control-base/devices/src/bmi088driver.c ****     return buf;
 1324              		.loc 1 346 5 view .LVU360
 1325 0002 FFF7FEFF 		bl	BMI088_ACCEL_NS_L
 1326              	.LVL205:
 346:control-base/devices/src/bmi088driver.c ****     return buf;
 1327              		.loc 1 346 5 discriminator 1 view .LVU361
 1328 0006 8020     		movs	r0, #128
 1329 0008 FFF7FEFF 		bl	BMI088_read_write_byte
ARM GAS  /var/folders/sg/pxk9dyzj7jz_x3889hx3b3dw0000gn/T//ccLxPCKZ.s 			page 39


 1330              	.LVL206:
 346:control-base/devices/src/bmi088driver.c ****     return buf;
 1331              		.loc 1 346 5 discriminator 2 view .LVU362
 1332 000c 5520     		movs	r0, #85
 1333 000e FFF7FEFF 		bl	BMI088_read_write_byte
 1334              	.LVL207:
 346:control-base/devices/src/bmi088driver.c ****     return buf;
 1335              		.loc 1 346 5 discriminator 3 view .LVU363
 1336 0012 5520     		movs	r0, #85
 1337 0014 FFF7FEFF 		bl	BMI088_read_write_byte
 1338              	.LVL208:
 1339 0018 0446     		mov	r4, r0
 1340              	.LVL209:
 346:control-base/devices/src/bmi088driver.c ****     return buf;
 1341              		.loc 1 346 5 discriminator 4 view .LVU364
 1342 001a FFF7FEFF 		bl	BMI088_ACCEL_NS_H
 1343              	.LVL210:
 346:control-base/devices/src/bmi088driver.c ****     return buf;
 1344              		.loc 1 346 58 discriminator 5 view .LVU365
 347:control-base/devices/src/bmi088driver.c **** }
 1345              		.loc 1 347 5 view .LVU366
 348:control-base/devices/src/bmi088driver.c **** 
 1346              		.loc 1 348 1 is_stmt 0 view .LVU367
 1347 001e 2046     		mov	r0, r4
 1348 0020 10BD     		pop	{r4, pc}
 348:control-base/devices/src/bmi088driver.c **** 
 1349              		.loc 1 348 1 view .LVU368
 1350              		.cfi_endproc
 1351              	.LFE140:
 1353              		.section	.text.BMI088_temperature_read_over,"ax",%progbits
 1354              		.align	1
 1355              		.global	BMI088_temperature_read_over
 1356              		.syntax unified
 1357              		.thumb
 1358              		.thumb_func
 1360              	BMI088_temperature_read_over:
 1361              	.LVL211:
 1362              	.LFB141:
 351:control-base/devices/src/bmi088driver.c ****     int16_t bmi088_raw_temp;
 1363              		.loc 1 351 1 is_stmt 1 view -0
 1364              		.cfi_startproc
 1365              		@ args = 0, pretend = 0, frame = 0
 1366              		@ frame_needed = 0, uses_anonymous_args = 0
 1367              		@ link register save eliminated.
 352:control-base/devices/src/bmi088driver.c ****     bmi088_raw_temp = (int16_t)((rx_buf[0] << 3) | (rx_buf[1] >> 5));
 1368              		.loc 1 352 5 view .LVU370
 353:control-base/devices/src/bmi088driver.c **** 
 1369              		.loc 1 353 5 view .LVU371
 353:control-base/devices/src/bmi088driver.c **** 
 1370              		.loc 1 353 40 is_stmt 0 view .LVU372
 1371 0000 0278     		ldrb	r2, [r0]	@ zero_extendqisi2
 353:control-base/devices/src/bmi088driver.c **** 
 1372              		.loc 1 353 59 view .LVU373
 1373 0002 4378     		ldrb	r3, [r0, #1]	@ zero_extendqisi2
 353:control-base/devices/src/bmi088driver.c **** 
 1374              		.loc 1 353 23 view .LVU374
 1375 0004 5B09     		lsrs	r3, r3, #5
ARM GAS  /var/folders/sg/pxk9dyzj7jz_x3889hx3b3dw0000gn/T//ccLxPCKZ.s 			page 40


 353:control-base/devices/src/bmi088driver.c **** 
 1376              		.loc 1 353 21 view .LVU375
 1377 0006 43EAC203 		orr	r3, r3, r2, lsl #3
 1378              	.LVL212:
 355:control-base/devices/src/bmi088driver.c ****     {
 1379              		.loc 1 355 5 is_stmt 1 view .LVU376
 355:control-base/devices/src/bmi088driver.c ****     {
 1380              		.loc 1 355 8 is_stmt 0 view .LVU377
 1381 000a B3F5806F 		cmp	r3, #1024
 1382 000e 01DB     		blt	.L67
 357:control-base/devices/src/bmi088driver.c ****     }
 1383              		.loc 1 357 9 is_stmt 1 view .LVU378
 357:control-base/devices/src/bmi088driver.c ****     }
 1384              		.loc 1 357 25 is_stmt 0 view .LVU379
 1385 0010 A3F50063 		sub	r3, r3, #2048
 1386              	.LVL213:
 1387              	.L67:
 359:control-base/devices/src/bmi088driver.c **** 
 1388              		.loc 1 359 5 is_stmt 1 view .LVU380
 359:control-base/devices/src/bmi088driver.c **** 
 1389              		.loc 1 359 34 is_stmt 0 view .LVU381
 1390 0014 07EE903A 		vmov	s15, r3	@ int
 1391 0018 F8EEE77A 		vcvt.f32.s32	s15, s15
 1392 001c B4EE007A 		vmov.f32	s14, #1.25e-1
 1393 0020 67EE877A 		vmul.f32	s15, s15, s14
 359:control-base/devices/src/bmi088driver.c **** 
 1394              		.loc 1 359 55 view .LVU382
 1395 0024 B3EE077A 		vmov.f32	s14, #2.3e+1
 1396 0028 77EE877A 		vadd.f32	s15, s15, s14
 359:control-base/devices/src/bmi088driver.c **** 
 1397              		.loc 1 359 16 view .LVU383
 1398 002c C1ED007A 		vstr.32	s15, [r1]
 361:control-base/devices/src/bmi088driver.c **** 
 1399              		.loc 1 361 1 view .LVU384
 1400 0030 7047     		bx	lr
 1401              		.cfi_endproc
 1402              	.LFE141:
 1404              		.section	.text.BMI088_accel_read_over,"ax",%progbits
 1405              		.align	1
 1406              		.global	BMI088_accel_read_over
 1407              		.syntax unified
 1408              		.thumb
 1409              		.thumb_func
 1411              	BMI088_accel_read_over:
 1412              	.LVL214:
 1413              	.LFB142:
 364:control-base/devices/src/bmi088driver.c ****     int16_t bmi088_raw_temp;
 1414              		.loc 1 364 1 is_stmt 1 view -0
 1415              		.cfi_startproc
 1416              		@ args = 0, pretend = 0, frame = 0
 1417              		@ frame_needed = 0, uses_anonymous_args = 0
 1418              		@ link register save eliminated.
 364:control-base/devices/src/bmi088driver.c ****     int16_t bmi088_raw_temp;
 1419              		.loc 1 364 1 is_stmt 0 view .LVU386
 1420 0000 10B4     		push	{r4}
 1421              	.LCFI23:
 1422              		.cfi_def_cfa_offset 4
ARM GAS  /var/folders/sg/pxk9dyzj7jz_x3889hx3b3dw0000gn/T//ccLxPCKZ.s 			page 41


 1423              		.cfi_offset 4, -4
 365:control-base/devices/src/bmi088driver.c ****     uint32_t sensor_time;
 1424              		.loc 1 365 5 is_stmt 1 view .LVU387
 366:control-base/devices/src/bmi088driver.c ****     bmi088_raw_temp = (int16_t)((rx_buf[1]) << 8) | rx_buf[0];
 1425              		.loc 1 366 5 view .LVU388
 367:control-base/devices/src/bmi088driver.c ****     accel[0] = bmi088_raw_temp * BMI088_ACCEL_SEN;
 1426              		.loc 1 367 5 view .LVU389
 367:control-base/devices/src/bmi088driver.c ****     accel[0] = bmi088_raw_temp * BMI088_ACCEL_SEN;
 1427              		.loc 1 367 40 is_stmt 0 view .LVU390
 1428 0002 4378     		ldrb	r3, [r0, #1]	@ zero_extendqisi2
 367:control-base/devices/src/bmi088driver.c ****     accel[0] = bmi088_raw_temp * BMI088_ACCEL_SEN;
 1429              		.loc 1 367 23 view .LVU391
 1430 0004 1B02     		lsls	r3, r3, #8
 1431 0006 1BB2     		sxth	r3, r3
 367:control-base/devices/src/bmi088driver.c ****     accel[0] = bmi088_raw_temp * BMI088_ACCEL_SEN;
 1432              		.loc 1 367 59 view .LVU392
 1433 0008 0478     		ldrb	r4, [r0]	@ zero_extendqisi2
 367:control-base/devices/src/bmi088driver.c ****     accel[0] = bmi088_raw_temp * BMI088_ACCEL_SEN;
 1434              		.loc 1 367 21 view .LVU393
 1435 000a 2343     		orrs	r3, r3, r4
 1436 000c 07EE903A 		vmov	s15, r3	@ int
 1437              	.LVL215:
 368:control-base/devices/src/bmi088driver.c ****     bmi088_raw_temp = (int16_t)((rx_buf[3]) << 8) | rx_buf[2];
 1438              		.loc 1 368 5 is_stmt 1 view .LVU394
 368:control-base/devices/src/bmi088driver.c ****     bmi088_raw_temp = (int16_t)((rx_buf[3]) << 8) | rx_buf[2];
 1439              		.loc 1 368 32 is_stmt 0 view .LVU395
 1440 0010 F8EEE77A 		vcvt.f32.s32	s15, s15
 1441              	.LVL216:
 368:control-base/devices/src/bmi088driver.c ****     bmi088_raw_temp = (int16_t)((rx_buf[3]) << 8) | rx_buf[2];
 1442              		.loc 1 368 32 view .LVU396
 1443 0014 1C4C     		ldr	r4, .L70
 1444 0016 94ED007A 		vldr.32	s14, [r4]
 1445 001a 67EE877A 		vmul.f32	s15, s15, s14
 368:control-base/devices/src/bmi088driver.c ****     bmi088_raw_temp = (int16_t)((rx_buf[3]) << 8) | rx_buf[2];
 1446              		.loc 1 368 14 view .LVU397
 1447 001e C1ED007A 		vstr.32	s15, [r1]
 369:control-base/devices/src/bmi088driver.c ****     accel[1] = bmi088_raw_temp * BMI088_ACCEL_SEN;
 1448              		.loc 1 369 5 is_stmt 1 view .LVU398
 369:control-base/devices/src/bmi088driver.c ****     accel[1] = bmi088_raw_temp * BMI088_ACCEL_SEN;
 1449              		.loc 1 369 40 is_stmt 0 view .LVU399
 1450 0022 C378     		ldrb	r3, [r0, #3]	@ zero_extendqisi2
 1451              	.LVL217:
 369:control-base/devices/src/bmi088driver.c ****     accel[1] = bmi088_raw_temp * BMI088_ACCEL_SEN;
 1452              		.loc 1 369 23 view .LVU400
 1453 0024 1B02     		lsls	r3, r3, #8
 1454 0026 1BB2     		sxth	r3, r3
 369:control-base/devices/src/bmi088driver.c ****     accel[1] = bmi088_raw_temp * BMI088_ACCEL_SEN;
 1455              		.loc 1 369 59 view .LVU401
 1456 0028 90F802C0 		ldrb	ip, [r0, #2]	@ zero_extendqisi2
 369:control-base/devices/src/bmi088driver.c ****     accel[1] = bmi088_raw_temp * BMI088_ACCEL_SEN;
 1457              		.loc 1 369 21 view .LVU402
 1458 002c 43EA0C03 		orr	r3, r3, ip
 1459 0030 07EE903A 		vmov	s15, r3	@ int
 1460              	.LVL218:
 370:control-base/devices/src/bmi088driver.c ****     bmi088_raw_temp = (int16_t)((rx_buf[5]) << 8) | rx_buf[4];
 1461              		.loc 1 370 5 is_stmt 1 view .LVU403
 370:control-base/devices/src/bmi088driver.c ****     bmi088_raw_temp = (int16_t)((rx_buf[5]) << 8) | rx_buf[4];
ARM GAS  /var/folders/sg/pxk9dyzj7jz_x3889hx3b3dw0000gn/T//ccLxPCKZ.s 			page 42


 1462              		.loc 1 370 32 is_stmt 0 view .LVU404
 1463 0034 94ED007A 		vldr.32	s14, [r4]
 1464 0038 F8EEE77A 		vcvt.f32.s32	s15, s15
 1465              	.LVL219:
 370:control-base/devices/src/bmi088driver.c ****     bmi088_raw_temp = (int16_t)((rx_buf[5]) << 8) | rx_buf[4];
 1466              		.loc 1 370 32 view .LVU405
 1467 003c 67EE877A 		vmul.f32	s15, s15, s14
 370:control-base/devices/src/bmi088driver.c ****     bmi088_raw_temp = (int16_t)((rx_buf[5]) << 8) | rx_buf[4];
 1468              		.loc 1 370 14 view .LVU406
 1469 0040 C1ED017A 		vstr.32	s15, [r1, #4]
 371:control-base/devices/src/bmi088driver.c ****     accel[2] = bmi088_raw_temp * BMI088_ACCEL_SEN;
 1470              		.loc 1 371 5 is_stmt 1 view .LVU407
 371:control-base/devices/src/bmi088driver.c ****     accel[2] = bmi088_raw_temp * BMI088_ACCEL_SEN;
 1471              		.loc 1 371 40 is_stmt 0 view .LVU408
 1472 0044 4379     		ldrb	r3, [r0, #5]	@ zero_extendqisi2
 1473              	.LVL220:
 371:control-base/devices/src/bmi088driver.c ****     accel[2] = bmi088_raw_temp * BMI088_ACCEL_SEN;
 1474              		.loc 1 371 23 view .LVU409
 1475 0046 1B02     		lsls	r3, r3, #8
 1476 0048 1BB2     		sxth	r3, r3
 371:control-base/devices/src/bmi088driver.c ****     accel[2] = bmi088_raw_temp * BMI088_ACCEL_SEN;
 1477              		.loc 1 371 59 view .LVU410
 1478 004a 0479     		ldrb	r4, [r0, #4]	@ zero_extendqisi2
 371:control-base/devices/src/bmi088driver.c ****     accel[2] = bmi088_raw_temp * BMI088_ACCEL_SEN;
 1479              		.loc 1 371 21 view .LVU411
 1480 004c 2343     		orrs	r3, r3, r4
 1481 004e 07EE903A 		vmov	s15, r3	@ int
 1482              	.LVL221:
 372:control-base/devices/src/bmi088driver.c ****     sensor_time = (uint32_t)((rx_buf[8] << 16) | (rx_buf[7] << 8) | rx_buf[6]);
 1483              		.loc 1 372 5 is_stmt 1 view .LVU412
 372:control-base/devices/src/bmi088driver.c ****     sensor_time = (uint32_t)((rx_buf[8] << 16) | (rx_buf[7] << 8) | rx_buf[6]);
 1484              		.loc 1 372 32 is_stmt 0 view .LVU413
 1485 0052 F8EEE77A 		vcvt.f32.s32	s15, s15
 1486              	.LVL222:
 372:control-base/devices/src/bmi088driver.c ****     sensor_time = (uint32_t)((rx_buf[8] << 16) | (rx_buf[7] << 8) | rx_buf[6]);
 1487              		.loc 1 372 32 view .LVU414
 1488 0056 67EE877A 		vmul.f32	s15, s15, s14
 372:control-base/devices/src/bmi088driver.c ****     sensor_time = (uint32_t)((rx_buf[8] << 16) | (rx_buf[7] << 8) | rx_buf[6]);
 1489              		.loc 1 372 14 view .LVU415
 1490 005a C1ED027A 		vstr.32	s15, [r1, #8]
 373:control-base/devices/src/bmi088driver.c ****     *time = sensor_time * 39.0625f;
 1491              		.loc 1 373 5 is_stmt 1 view .LVU416
 373:control-base/devices/src/bmi088driver.c ****     *time = sensor_time * 39.0625f;
 1492              		.loc 1 373 37 is_stmt 0 view .LVU417
 1493 005e 017A     		ldrb	r1, [r0, #8]	@ zero_extendqisi2
 1494              	.LVL223:
 373:control-base/devices/src/bmi088driver.c ****     *time = sensor_time * 39.0625f;
 1495              		.loc 1 373 57 view .LVU418
 1496 0060 C379     		ldrb	r3, [r0, #7]	@ zero_extendqisi2
 1497              	.LVL224:
 373:control-base/devices/src/bmi088driver.c ****     *time = sensor_time * 39.0625f;
 1498              		.loc 1 373 61 view .LVU419
 1499 0062 1B02     		lsls	r3, r3, #8
 373:control-base/devices/src/bmi088driver.c ****     *time = sensor_time * 39.0625f;
 1500              		.loc 1 373 48 view .LVU420
 1501 0064 43EA0143 		orr	r3, r3, r1, lsl #16
 373:control-base/devices/src/bmi088driver.c ****     *time = sensor_time * 39.0625f;
ARM GAS  /var/folders/sg/pxk9dyzj7jz_x3889hx3b3dw0000gn/T//ccLxPCKZ.s 			page 43


 1502              		.loc 1 373 75 view .LVU421
 1503 0068 8179     		ldrb	r1, [r0, #6]	@ zero_extendqisi2
 373:control-base/devices/src/bmi088driver.c ****     *time = sensor_time * 39.0625f;
 1504              		.loc 1 373 67 view .LVU422
 1505 006a 0B43     		orrs	r3, r3, r1
 1506 006c 07EE903A 		vmov	s15, r3	@ int
 1507              	.LVL225:
 374:control-base/devices/src/bmi088driver.c **** 
 1508              		.loc 1 374 5 is_stmt 1 view .LVU423
 374:control-base/devices/src/bmi088driver.c **** 
 1509              		.loc 1 374 25 is_stmt 0 view .LVU424
 1510 0070 F8EE677A 		vcvt.f32.u32	s15, s15
 1511 0074 9FED057A 		vldr.32	s14, .L70+4
 1512 0078 67EE877A 		vmul.f32	s15, s15, s14
 374:control-base/devices/src/bmi088driver.c **** 
 1513              		.loc 1 374 11 view .LVU425
 1514 007c C2ED007A 		vstr.32	s15, [r2]
 376:control-base/devices/src/bmi088driver.c **** 
 1515              		.loc 1 376 1 view .LVU426
 1516 0080 5DF8044B 		ldr	r4, [sp], #4
 1517              	.LCFI24:
 1518              		.cfi_restore 4
 1519              		.cfi_def_cfa_offset 0
 1520 0084 7047     		bx	lr
 1521              	.L71:
 1522 0086 00BF     		.align	2
 1523              	.L70:
 1524 0088 00000000 		.word	BMI088_ACCEL_SEN
 1525 008c 00401C42 		.word	1109147648
 1526              		.cfi_endproc
 1527              	.LFE142:
 1529              		.section	.text.BMI088_gyro_read_over,"ax",%progbits
 1530              		.align	1
 1531              		.global	BMI088_gyro_read_over
 1532              		.syntax unified
 1533              		.thumb
 1534              		.thumb_func
 1536              	BMI088_gyro_read_over:
 1537              	.LVL226:
 1538              	.LFB143:
 379:control-base/devices/src/bmi088driver.c ****     int16_t bmi088_raw_temp;
 1539              		.loc 1 379 1 is_stmt 1 view -0
 1540              		.cfi_startproc
 1541              		@ args = 0, pretend = 0, frame = 0
 1542              		@ frame_needed = 0, uses_anonymous_args = 0
 1543              		@ link register save eliminated.
 380:control-base/devices/src/bmi088driver.c ****     bmi088_raw_temp = (int16_t)((rx_buf[1]) << 8) | rx_buf[0];
 1544              		.loc 1 380 5 view .LVU428
 381:control-base/devices/src/bmi088driver.c ****     gyro[0] = bmi088_raw_temp * BMI088_GYRO_SEN;
 1545              		.loc 1 381 5 view .LVU429
 381:control-base/devices/src/bmi088driver.c ****     gyro[0] = bmi088_raw_temp * BMI088_GYRO_SEN;
 1546              		.loc 1 381 40 is_stmt 0 view .LVU430
 1547 0000 4378     		ldrb	r3, [r0, #1]	@ zero_extendqisi2
 381:control-base/devices/src/bmi088driver.c ****     gyro[0] = bmi088_raw_temp * BMI088_GYRO_SEN;
 1548              		.loc 1 381 23 view .LVU431
 1549 0002 1B02     		lsls	r3, r3, #8
 1550 0004 1BB2     		sxth	r3, r3
ARM GAS  /var/folders/sg/pxk9dyzj7jz_x3889hx3b3dw0000gn/T//ccLxPCKZ.s 			page 44


 381:control-base/devices/src/bmi088driver.c ****     gyro[0] = bmi088_raw_temp * BMI088_GYRO_SEN;
 1551              		.loc 1 381 59 view .LVU432
 1552 0006 0278     		ldrb	r2, [r0]	@ zero_extendqisi2
 381:control-base/devices/src/bmi088driver.c ****     gyro[0] = bmi088_raw_temp * BMI088_GYRO_SEN;
 1553              		.loc 1 381 21 view .LVU433
 1554 0008 1343     		orrs	r3, r3, r2
 1555 000a 07EE903A 		vmov	s15, r3	@ int
 1556              	.LVL227:
 382:control-base/devices/src/bmi088driver.c ****     bmi088_raw_temp = (int16_t)((rx_buf[3]) << 8) | rx_buf[2];
 1557              		.loc 1 382 5 is_stmt 1 view .LVU434
 382:control-base/devices/src/bmi088driver.c ****     bmi088_raw_temp = (int16_t)((rx_buf[3]) << 8) | rx_buf[2];
 1558              		.loc 1 382 31 is_stmt 0 view .LVU435
 1559 000e F8EEE77A 		vcvt.f32.s32	s15, s15
 1560              	.LVL228:
 382:control-base/devices/src/bmi088driver.c ****     bmi088_raw_temp = (int16_t)((rx_buf[3]) << 8) | rx_buf[2];
 1561              		.loc 1 382 31 view .LVU436
 1562 0012 134A     		ldr	r2, .L73
 1563 0014 92ED007A 		vldr.32	s14, [r2]
 1564 0018 67EE877A 		vmul.f32	s15, s15, s14
 382:control-base/devices/src/bmi088driver.c ****     bmi088_raw_temp = (int16_t)((rx_buf[3]) << 8) | rx_buf[2];
 1565              		.loc 1 382 13 view .LVU437
 1566 001c C1ED007A 		vstr.32	s15, [r1]
 383:control-base/devices/src/bmi088driver.c ****     gyro[1] = bmi088_raw_temp * BMI088_GYRO_SEN;
 1567              		.loc 1 383 5 is_stmt 1 view .LVU438
 383:control-base/devices/src/bmi088driver.c ****     gyro[1] = bmi088_raw_temp * BMI088_GYRO_SEN;
 1568              		.loc 1 383 40 is_stmt 0 view .LVU439
 1569 0020 C378     		ldrb	r3, [r0, #3]	@ zero_extendqisi2
 1570              	.LVL229:
 383:control-base/devices/src/bmi088driver.c ****     gyro[1] = bmi088_raw_temp * BMI088_GYRO_SEN;
 1571              		.loc 1 383 23 view .LVU440
 1572 0022 1B02     		lsls	r3, r3, #8
 1573 0024 1BB2     		sxth	r3, r3
 383:control-base/devices/src/bmi088driver.c ****     gyro[1] = bmi088_raw_temp * BMI088_GYRO_SEN;
 1574              		.loc 1 383 59 view .LVU441
 1575 0026 90F802C0 		ldrb	ip, [r0, #2]	@ zero_extendqisi2
 383:control-base/devices/src/bmi088driver.c ****     gyro[1] = bmi088_raw_temp * BMI088_GYRO_SEN;
 1576              		.loc 1 383 21 view .LVU442
 1577 002a 43EA0C03 		orr	r3, r3, ip
 1578 002e 07EE903A 		vmov	s15, r3	@ int
 1579              	.LVL230:
 384:control-base/devices/src/bmi088driver.c ****     bmi088_raw_temp = (int16_t)((rx_buf[5]) << 8) | rx_buf[4];
 1580              		.loc 1 384 5 is_stmt 1 view .LVU443
 384:control-base/devices/src/bmi088driver.c ****     bmi088_raw_temp = (int16_t)((rx_buf[5]) << 8) | rx_buf[4];
 1581              		.loc 1 384 31 is_stmt 0 view .LVU444
 1582 0032 92ED007A 		vldr.32	s14, [r2]
 1583 0036 F8EEE77A 		vcvt.f32.s32	s15, s15
 1584              	.LVL231:
 384:control-base/devices/src/bmi088driver.c ****     bmi088_raw_temp = (int16_t)((rx_buf[5]) << 8) | rx_buf[4];
 1585              		.loc 1 384 31 view .LVU445
 1586 003a 67EE877A 		vmul.f32	s15, s15, s14
 384:control-base/devices/src/bmi088driver.c ****     bmi088_raw_temp = (int16_t)((rx_buf[5]) << 8) | rx_buf[4];
 1587              		.loc 1 384 13 view .LVU446
 1588 003e C1ED017A 		vstr.32	s15, [r1, #4]
 385:control-base/devices/src/bmi088driver.c ****     gyro[2] = bmi088_raw_temp * BMI088_GYRO_SEN;
 1589              		.loc 1 385 5 is_stmt 1 view .LVU447
 385:control-base/devices/src/bmi088driver.c ****     gyro[2] = bmi088_raw_temp * BMI088_GYRO_SEN;
 1590              		.loc 1 385 40 is_stmt 0 view .LVU448
ARM GAS  /var/folders/sg/pxk9dyzj7jz_x3889hx3b3dw0000gn/T//ccLxPCKZ.s 			page 45


 1591 0042 4379     		ldrb	r3, [r0, #5]	@ zero_extendqisi2
 1592              	.LVL232:
 385:control-base/devices/src/bmi088driver.c ****     gyro[2] = bmi088_raw_temp * BMI088_GYRO_SEN;
 1593              		.loc 1 385 23 view .LVU449
 1594 0044 1B02     		lsls	r3, r3, #8
 1595 0046 1BB2     		sxth	r3, r3
 385:control-base/devices/src/bmi088driver.c ****     gyro[2] = bmi088_raw_temp * BMI088_GYRO_SEN;
 1596              		.loc 1 385 59 view .LVU450
 1597 0048 0279     		ldrb	r2, [r0, #4]	@ zero_extendqisi2
 385:control-base/devices/src/bmi088driver.c ****     gyro[2] = bmi088_raw_temp * BMI088_GYRO_SEN;
 1598              		.loc 1 385 21 view .LVU451
 1599 004a 1343     		orrs	r3, r3, r2
 1600 004c 07EE903A 		vmov	s15, r3	@ int
 1601              	.LVL233:
 386:control-base/devices/src/bmi088driver.c **** }
 1602              		.loc 1 386 5 is_stmt 1 view .LVU452
 386:control-base/devices/src/bmi088driver.c **** }
 1603              		.loc 1 386 31 is_stmt 0 view .LVU453
 1604 0050 F8EEE77A 		vcvt.f32.s32	s15, s15
 1605              	.LVL234:
 386:control-base/devices/src/bmi088driver.c **** }
 1606              		.loc 1 386 31 view .LVU454
 1607 0054 67EE877A 		vmul.f32	s15, s15, s14
 386:control-base/devices/src/bmi088driver.c **** }
 1608              		.loc 1 386 13 view .LVU455
 1609 0058 C1ED027A 		vstr.32	s15, [r1, #8]
 387:control-base/devices/src/bmi088driver.c **** 
 1610              		.loc 1 387 1 view .LVU456
 1611 005c 7047     		bx	lr
 1612              	.L74:
 1613 005e 00BF     		.align	2
 1614              	.L73:
 1615 0060 00000000 		.word	BMI088_GYRO_SEN
 1616              		.cfi_endproc
 1617              	.LFE143:
 1619              		.section	.text.BMI088_read,"ax",%progbits
 1620              		.align	1
 1621              		.global	BMI088_read
 1622              		.syntax unified
 1623              		.thumb
 1624              		.thumb_func
 1626              	BMI088_read:
 1627              	.LVL235:
 1628              	.LFB144:
 390:control-base/devices/src/bmi088driver.c ****     uint8_t buf[8] = {0, 0, 0, 0, 0, 0};
 1629              		.loc 1 390 1 is_stmt 1 view -0
 1630              		.cfi_startproc
 1631              		@ args = 0, pretend = 0, frame = 8
 1632              		@ frame_needed = 0, uses_anonymous_args = 0
 390:control-base/devices/src/bmi088driver.c ****     uint8_t buf[8] = {0, 0, 0, 0, 0, 0};
 1633              		.loc 1 390 1 is_stmt 0 view .LVU458
 1634 0000 2DE9F041 		push	{r4, r5, r6, r7, r8, lr}
 1635              	.LCFI25:
 1636              		.cfi_def_cfa_offset 24
 1637              		.cfi_offset 4, -24
 1638              		.cfi_offset 5, -20
 1639              		.cfi_offset 6, -16
ARM GAS  /var/folders/sg/pxk9dyzj7jz_x3889hx3b3dw0000gn/T//ccLxPCKZ.s 			page 46


 1640              		.cfi_offset 7, -12
 1641              		.cfi_offset 8, -8
 1642              		.cfi_offset 14, -4
 1643 0004 82B0     		sub	sp, sp, #8
 1644              	.LCFI26:
 1645              		.cfi_def_cfa_offset 32
 1646 0006 0646     		mov	r6, r0
 1647 0008 0C46     		mov	r4, r1
 1648 000a 1546     		mov	r5, r2
 391:control-base/devices/src/bmi088driver.c ****     int16_t bmi088_raw_temp;
 1649              		.loc 1 391 5 is_stmt 1 view .LVU459
 391:control-base/devices/src/bmi088driver.c ****     int16_t bmi088_raw_temp;
 1650              		.loc 1 391 13 is_stmt 0 view .LVU460
 1651 000c 0027     		movs	r7, #0
 1652 000e 0097     		str	r7, [sp]
 1653 0010 0197     		str	r7, [sp, #4]
 392:control-base/devices/src/bmi088driver.c **** 
 1654              		.loc 1 392 5 is_stmt 1 view .LVU461
 394:control-base/devices/src/bmi088driver.c **** 
 1655              		.loc 1 394 5 view .LVU462
 1656 0012 FFF7FEFF 		bl	BMI088_ACCEL_NS_L
 1657              	.LVL236:
 394:control-base/devices/src/bmi088driver.c **** 
 1658              		.loc 1 394 5 discriminator 1 view .LVU463
 1659 0016 9220     		movs	r0, #146
 1660 0018 FFF7FEFF 		bl	BMI088_read_write_byte
 1661              	.LVL237:
 394:control-base/devices/src/bmi088driver.c **** 
 1662              		.loc 1 394 5 discriminator 2 view .LVU464
 1663 001c 0622     		movs	r2, #6
 1664 001e 6946     		mov	r1, sp
 1665 0020 1220     		movs	r0, #18
 1666 0022 FFF7FEFF 		bl	BMI088_read_muli_reg
 1667              	.LVL238:
 394:control-base/devices/src/bmi088driver.c **** 
 1668              		.loc 1 394 5 discriminator 3 view .LVU465
 1669 0026 FFF7FEFF 		bl	BMI088_ACCEL_NS_H
 1670              	.LVL239:
 394:control-base/devices/src/bmi088driver.c **** 
 1671              		.loc 1 394 60 discriminator 4 view .LVU466
 396:control-base/devices/src/bmi088driver.c ****     accel[0] = bmi088_raw_temp * BMI088_ACCEL_SEN;
 1672              		.loc 1 396 5 view .LVU467
 396:control-base/devices/src/bmi088driver.c ****     accel[0] = bmi088_raw_temp * BMI088_ACCEL_SEN;
 1673              		.loc 1 396 37 is_stmt 0 view .LVU468
 1674 002a 9DF80130 		ldrb	r3, [sp, #1]	@ zero_extendqisi2
 396:control-base/devices/src/bmi088driver.c ****     accel[0] = bmi088_raw_temp * BMI088_ACCEL_SEN;
 1675              		.loc 1 396 23 view .LVU469
 1676 002e 1B02     		lsls	r3, r3, #8
 1677 0030 1BB2     		sxth	r3, r3
 396:control-base/devices/src/bmi088driver.c ****     accel[0] = bmi088_raw_temp * BMI088_ACCEL_SEN;
 1678              		.loc 1 396 53 view .LVU470
 1679 0032 9DF80020 		ldrb	r2, [sp]	@ zero_extendqisi2
 396:control-base/devices/src/bmi088driver.c ****     accel[0] = bmi088_raw_temp * BMI088_ACCEL_SEN;
 1680              		.loc 1 396 21 view .LVU471
 1681 0036 1343     		orrs	r3, r3, r2
 1682 0038 07EE903A 		vmov	s15, r3	@ int
 1683              	.LVL240:
ARM GAS  /var/folders/sg/pxk9dyzj7jz_x3889hx3b3dw0000gn/T//ccLxPCKZ.s 			page 47


 397:control-base/devices/src/bmi088driver.c ****     bmi088_raw_temp = (int16_t)((buf[3]) << 8) | buf[2];
 1684              		.loc 1 397 5 is_stmt 1 view .LVU472
 397:control-base/devices/src/bmi088driver.c ****     bmi088_raw_temp = (int16_t)((buf[3]) << 8) | buf[2];
 1685              		.loc 1 397 32 is_stmt 0 view .LVU473
 1686 003c F8EEE77A 		vcvt.f32.s32	s15, s15
 1687              	.LVL241:
 397:control-base/devices/src/bmi088driver.c ****     bmi088_raw_temp = (int16_t)((buf[3]) << 8) | buf[2];
 1688              		.loc 1 397 32 view .LVU474
 1689 0040 474A     		ldr	r2, .L80
 1690 0042 92ED007A 		vldr.32	s14, [r2]
 1691 0046 67EE877A 		vmul.f32	s15, s15, s14
 397:control-base/devices/src/bmi088driver.c ****     bmi088_raw_temp = (int16_t)((buf[3]) << 8) | buf[2];
 1692              		.loc 1 397 14 view .LVU475
 1693 004a C4ED007A 		vstr.32	s15, [r4]
 398:control-base/devices/src/bmi088driver.c ****     accel[1] = bmi088_raw_temp * BMI088_ACCEL_SEN;
 1694              		.loc 1 398 5 is_stmt 1 view .LVU476
 398:control-base/devices/src/bmi088driver.c ****     accel[1] = bmi088_raw_temp * BMI088_ACCEL_SEN;
 1695              		.loc 1 398 37 is_stmt 0 view .LVU477
 1696 004e 9DF80330 		ldrb	r3, [sp, #3]	@ zero_extendqisi2
 1697              	.LVL242:
 398:control-base/devices/src/bmi088driver.c ****     accel[1] = bmi088_raw_temp * BMI088_ACCEL_SEN;
 1698              		.loc 1 398 23 view .LVU478
 1699 0052 1B02     		lsls	r3, r3, #8
 1700 0054 1BB2     		sxth	r3, r3
 398:control-base/devices/src/bmi088driver.c ****     accel[1] = bmi088_raw_temp * BMI088_ACCEL_SEN;
 1701              		.loc 1 398 53 view .LVU479
 1702 0056 9DF80210 		ldrb	r1, [sp, #2]	@ zero_extendqisi2
 398:control-base/devices/src/bmi088driver.c ****     accel[1] = bmi088_raw_temp * BMI088_ACCEL_SEN;
 1703              		.loc 1 398 21 view .LVU480
 1704 005a 0B43     		orrs	r3, r3, r1
 1705 005c 07EE903A 		vmov	s15, r3	@ int
 1706              	.LVL243:
 399:control-base/devices/src/bmi088driver.c ****     bmi088_raw_temp = (int16_t)((buf[5]) << 8) | buf[4];
 1707              		.loc 1 399 5 is_stmt 1 view .LVU481
 399:control-base/devices/src/bmi088driver.c ****     bmi088_raw_temp = (int16_t)((buf[5]) << 8) | buf[4];
 1708              		.loc 1 399 32 is_stmt 0 view .LVU482
 1709 0060 92ED007A 		vldr.32	s14, [r2]
 1710 0064 F8EEE77A 		vcvt.f32.s32	s15, s15
 1711              	.LVL244:
 399:control-base/devices/src/bmi088driver.c ****     bmi088_raw_temp = (int16_t)((buf[5]) << 8) | buf[4];
 1712              		.loc 1 399 32 view .LVU483
 1713 0068 67EE877A 		vmul.f32	s15, s15, s14
 399:control-base/devices/src/bmi088driver.c ****     bmi088_raw_temp = (int16_t)((buf[5]) << 8) | buf[4];
 1714              		.loc 1 399 14 view .LVU484
 1715 006c C4ED017A 		vstr.32	s15, [r4, #4]
 400:control-base/devices/src/bmi088driver.c ****     accel[2] = bmi088_raw_temp * BMI088_ACCEL_SEN;
 1716              		.loc 1 400 5 is_stmt 1 view .LVU485
 400:control-base/devices/src/bmi088driver.c ****     accel[2] = bmi088_raw_temp * BMI088_ACCEL_SEN;
 1717              		.loc 1 400 37 is_stmt 0 view .LVU486
 1718 0070 9DF80530 		ldrb	r3, [sp, #5]	@ zero_extendqisi2
 1719              	.LVL245:
 400:control-base/devices/src/bmi088driver.c ****     accel[2] = bmi088_raw_temp * BMI088_ACCEL_SEN;
 1720              		.loc 1 400 23 view .LVU487
 1721 0074 1B02     		lsls	r3, r3, #8
 1722 0076 1BB2     		sxth	r3, r3
 400:control-base/devices/src/bmi088driver.c ****     accel[2] = bmi088_raw_temp * BMI088_ACCEL_SEN;
 1723              		.loc 1 400 53 view .LVU488
ARM GAS  /var/folders/sg/pxk9dyzj7jz_x3889hx3b3dw0000gn/T//ccLxPCKZ.s 			page 48


 1724 0078 9DF80420 		ldrb	r2, [sp, #4]	@ zero_extendqisi2
 400:control-base/devices/src/bmi088driver.c ****     accel[2] = bmi088_raw_temp * BMI088_ACCEL_SEN;
 1725              		.loc 1 400 21 view .LVU489
 1726 007c 1343     		orrs	r3, r3, r2
 1727 007e 07EE903A 		vmov	s15, r3	@ int
 1728              	.LVL246:
 401:control-base/devices/src/bmi088driver.c **** 
 1729              		.loc 1 401 5 is_stmt 1 view .LVU490
 401:control-base/devices/src/bmi088driver.c **** 
 1730              		.loc 1 401 32 is_stmt 0 view .LVU491
 1731 0082 F8EEE77A 		vcvt.f32.s32	s15, s15
 1732              	.LVL247:
 401:control-base/devices/src/bmi088driver.c **** 
 1733              		.loc 1 401 32 view .LVU492
 1734 0086 67EE877A 		vmul.f32	s15, s15, s14
 401:control-base/devices/src/bmi088driver.c **** 
 1735              		.loc 1 401 14 view .LVU493
 1736 008a C4ED027A 		vstr.32	s15, [r4, #8]
 403:control-base/devices/src/bmi088driver.c ****     if(buf[0] == BMI088_GYRO_CHIP_ID_VALUE)
 1737              		.loc 1 403 5 is_stmt 1 view .LVU494
 1738 008e FFF7FEFF 		bl	BMI088_GYRO_NS_L
 1739              	.LVL248:
 403:control-base/devices/src/bmi088driver.c ****     if(buf[0] == BMI088_GYRO_CHIP_ID_VALUE)
 1740              		.loc 1 403 5 discriminator 1 view .LVU495
 1741 0092 0822     		movs	r2, #8
 1742 0094 6946     		mov	r1, sp
 1743 0096 3846     		mov	r0, r7
 1744 0098 FFF7FEFF 		bl	BMI088_read_muli_reg
 1745              	.LVL249:
 403:control-base/devices/src/bmi088driver.c ****     if(buf[0] == BMI088_GYRO_CHIP_ID_VALUE)
 1746              		.loc 1 403 5 discriminator 2 view .LVU496
 1747 009c FFF7FEFF 		bl	BMI088_GYRO_NS_H
 1748              	.LVL250:
 403:control-base/devices/src/bmi088driver.c ****     if(buf[0] == BMI088_GYRO_CHIP_ID_VALUE)
 1749              		.loc 1 403 59 discriminator 3 view .LVU497
 404:control-base/devices/src/bmi088driver.c ****     {
 1750              		.loc 1 404 5 view .LVU498
 404:control-base/devices/src/bmi088driver.c ****     {
 1751              		.loc 1 404 11 is_stmt 0 view .LVU499
 1752 00a0 9DF80030 		ldrb	r3, [sp]	@ zero_extendqisi2
 404:control-base/devices/src/bmi088driver.c ****     {
 1753              		.loc 1 404 7 view .LVU500
 1754 00a4 0F2B     		cmp	r3, #15
 1755 00a6 28D0     		beq	.L79
 1756              	.LVL251:
 1757              	.L76:
 413:control-base/devices/src/bmi088driver.c **** 
 1758              		.loc 1 413 5 is_stmt 1 view .LVU501
 1759 00a8 FFF7FEFF 		bl	BMI088_ACCEL_NS_L
 1760              	.LVL252:
 413:control-base/devices/src/bmi088driver.c **** 
 1761              		.loc 1 413 5 discriminator 1 view .LVU502
 1762 00ac A220     		movs	r0, #162
 1763 00ae FFF7FEFF 		bl	BMI088_read_write_byte
 1764              	.LVL253:
 413:control-base/devices/src/bmi088driver.c **** 
 1765              		.loc 1 413 5 discriminator 2 view .LVU503
ARM GAS  /var/folders/sg/pxk9dyzj7jz_x3889hx3b3dw0000gn/T//ccLxPCKZ.s 			page 49


 1766 00b2 0222     		movs	r2, #2
 1767 00b4 6946     		mov	r1, sp
 1768 00b6 2220     		movs	r0, #34
 1769 00b8 FFF7FEFF 		bl	BMI088_read_muli_reg
 1770              	.LVL254:
 413:control-base/devices/src/bmi088driver.c **** 
 1771              		.loc 1 413 5 discriminator 3 view .LVU504
 1772 00bc FFF7FEFF 		bl	BMI088_ACCEL_NS_H
 1773              	.LVL255:
 413:control-base/devices/src/bmi088driver.c **** 
 1774              		.loc 1 413 54 discriminator 4 view .LVU505
 415:control-base/devices/src/bmi088driver.c **** 
 1775              		.loc 1 415 5 view .LVU506
 415:control-base/devices/src/bmi088driver.c **** 
 1776              		.loc 1 415 37 is_stmt 0 view .LVU507
 1777 00c0 9DF80020 		ldrb	r2, [sp]	@ zero_extendqisi2
 415:control-base/devices/src/bmi088driver.c **** 
 1778              		.loc 1 415 53 view .LVU508
 1779 00c4 9DF80130 		ldrb	r3, [sp, #1]	@ zero_extendqisi2
 415:control-base/devices/src/bmi088driver.c **** 
 1780              		.loc 1 415 23 view .LVU509
 1781 00c8 5B09     		lsrs	r3, r3, #5
 415:control-base/devices/src/bmi088driver.c **** 
 1782              		.loc 1 415 21 view .LVU510
 1783 00ca 43EAC203 		orr	r3, r3, r2, lsl #3
 1784              	.LVL256:
 417:control-base/devices/src/bmi088driver.c ****     {
 1785              		.loc 1 417 5 is_stmt 1 view .LVU511
 417:control-base/devices/src/bmi088driver.c ****     {
 1786              		.loc 1 417 8 is_stmt 0 view .LVU512
 1787 00ce B3F5806F 		cmp	r3, #1024
 1788 00d2 01DB     		blt	.L77
 419:control-base/devices/src/bmi088driver.c ****     }
 1789              		.loc 1 419 9 is_stmt 1 view .LVU513
 419:control-base/devices/src/bmi088driver.c ****     }
 1790              		.loc 1 419 25 is_stmt 0 view .LVU514
 1791 00d4 A3F50063 		sub	r3, r3, #2048
 1792              	.LVL257:
 1793              	.L77:
 422:control-base/devices/src/bmi088driver.c **** }
 1794              		.loc 1 422 5 is_stmt 1 view .LVU515
 422:control-base/devices/src/bmi088driver.c **** }
 1795              		.loc 1 422 34 is_stmt 0 view .LVU516
 1796 00d8 07EE903A 		vmov	s15, r3	@ int
 1797 00dc F8EEE77A 		vcvt.f32.s32	s15, s15
 1798 00e0 B4EE007A 		vmov.f32	s14, #1.25e-1
 1799 00e4 67EE877A 		vmul.f32	s15, s15, s14
 422:control-base/devices/src/bmi088driver.c **** }
 1800              		.loc 1 422 55 view .LVU517
 1801 00e8 B3EE077A 		vmov.f32	s14, #2.3e+1
 1802 00ec 77EE877A 		vadd.f32	s15, s15, s14
 422:control-base/devices/src/bmi088driver.c **** }
 1803              		.loc 1 422 16 view .LVU518
 1804 00f0 C5ED007A 		vstr.32	s15, [r5]
 423:control-base/devices/src/bmi088driver.c **** 
 1805              		.loc 1 423 1 view .LVU519
 1806 00f4 02B0     		add	sp, sp, #8
ARM GAS  /var/folders/sg/pxk9dyzj7jz_x3889hx3b3dw0000gn/T//ccLxPCKZ.s 			page 50


 1807              	.LCFI27:
 1808              		.cfi_remember_state
 1809              		.cfi_def_cfa_offset 24
 1810              		@ sp needed
 1811 00f6 BDE8F081 		pop	{r4, r5, r6, r7, r8, pc}
 1812              	.LVL258:
 1813              	.L79:
 1814              	.LCFI28:
 1815              		.cfi_restore_state
 406:control-base/devices/src/bmi088driver.c ****         gyro[0] = bmi088_raw_temp * BMI088_GYRO_SEN;
 1816              		.loc 1 406 9 is_stmt 1 view .LVU520
 406:control-base/devices/src/bmi088driver.c ****         gyro[0] = bmi088_raw_temp * BMI088_GYRO_SEN;
 1817              		.loc 1 406 41 is_stmt 0 view .LVU521
 1818 00fa 9DF80330 		ldrb	r3, [sp, #3]	@ zero_extendqisi2
 406:control-base/devices/src/bmi088driver.c ****         gyro[0] = bmi088_raw_temp * BMI088_GYRO_SEN;
 1819              		.loc 1 406 27 view .LVU522
 1820 00fe 1B02     		lsls	r3, r3, #8
 1821 0100 1BB2     		sxth	r3, r3
 406:control-base/devices/src/bmi088driver.c ****         gyro[0] = bmi088_raw_temp * BMI088_GYRO_SEN;
 1822              		.loc 1 406 57 view .LVU523
 1823 0102 9DF80220 		ldrb	r2, [sp, #2]	@ zero_extendqisi2
 406:control-base/devices/src/bmi088driver.c ****         gyro[0] = bmi088_raw_temp * BMI088_GYRO_SEN;
 1824              		.loc 1 406 25 view .LVU524
 1825 0106 1343     		orrs	r3, r3, r2
 1826 0108 07EE903A 		vmov	s15, r3	@ int
 1827              	.LVL259:
 407:control-base/devices/src/bmi088driver.c ****         bmi088_raw_temp = (int16_t)((buf[5]) << 8) | buf[4];
 1828              		.loc 1 407 9 is_stmt 1 view .LVU525
 407:control-base/devices/src/bmi088driver.c ****         bmi088_raw_temp = (int16_t)((buf[5]) << 8) | buf[4];
 1829              		.loc 1 407 35 is_stmt 0 view .LVU526
 1830 010c F8EEE77A 		vcvt.f32.s32	s15, s15
 1831              	.LVL260:
 407:control-base/devices/src/bmi088driver.c ****         bmi088_raw_temp = (int16_t)((buf[5]) << 8) | buf[4];
 1832              		.loc 1 407 35 view .LVU527
 1833 0110 144A     		ldr	r2, .L80+4
 1834 0112 92ED007A 		vldr.32	s14, [r2]
 1835 0116 67EE877A 		vmul.f32	s15, s15, s14
 407:control-base/devices/src/bmi088driver.c ****         bmi088_raw_temp = (int16_t)((buf[5]) << 8) | buf[4];
 1836              		.loc 1 407 17 view .LVU528
 1837 011a C6ED007A 		vstr.32	s15, [r6]
 408:control-base/devices/src/bmi088driver.c ****         gyro[1] = bmi088_raw_temp * BMI088_GYRO_SEN;
 1838              		.loc 1 408 9 is_stmt 1 view .LVU529
 408:control-base/devices/src/bmi088driver.c ****         gyro[1] = bmi088_raw_temp * BMI088_GYRO_SEN;
 1839              		.loc 1 408 41 is_stmt 0 view .LVU530
 1840 011e 9DF80530 		ldrb	r3, [sp, #5]	@ zero_extendqisi2
 1841              	.LVL261:
 408:control-base/devices/src/bmi088driver.c ****         gyro[1] = bmi088_raw_temp * BMI088_GYRO_SEN;
 1842              		.loc 1 408 27 view .LVU531
 1843 0122 1B02     		lsls	r3, r3, #8
 1844 0124 1BB2     		sxth	r3, r3
 408:control-base/devices/src/bmi088driver.c ****         gyro[1] = bmi088_raw_temp * BMI088_GYRO_SEN;
 1845              		.loc 1 408 57 view .LVU532
 1846 0126 9DF80410 		ldrb	r1, [sp, #4]	@ zero_extendqisi2
 408:control-base/devices/src/bmi088driver.c ****         gyro[1] = bmi088_raw_temp * BMI088_GYRO_SEN;
 1847              		.loc 1 408 25 view .LVU533
 1848 012a 0B43     		orrs	r3, r3, r1
 1849 012c 07EE903A 		vmov	s15, r3	@ int
ARM GAS  /var/folders/sg/pxk9dyzj7jz_x3889hx3b3dw0000gn/T//ccLxPCKZ.s 			page 51


 1850              	.LVL262:
 409:control-base/devices/src/bmi088driver.c ****         bmi088_raw_temp = (int16_t)((buf[7]) << 8) | buf[6];
 1851              		.loc 1 409 9 is_stmt 1 view .LVU534
 409:control-base/devices/src/bmi088driver.c ****         bmi088_raw_temp = (int16_t)((buf[7]) << 8) | buf[6];
 1852              		.loc 1 409 35 is_stmt 0 view .LVU535
 1853 0130 92ED007A 		vldr.32	s14, [r2]
 1854 0134 F8EEE77A 		vcvt.f32.s32	s15, s15
 1855              	.LVL263:
 409:control-base/devices/src/bmi088driver.c ****         bmi088_raw_temp = (int16_t)((buf[7]) << 8) | buf[6];
 1856              		.loc 1 409 35 view .LVU536
 1857 0138 67EE877A 		vmul.f32	s15, s15, s14
 409:control-base/devices/src/bmi088driver.c ****         bmi088_raw_temp = (int16_t)((buf[7]) << 8) | buf[6];
 1858              		.loc 1 409 17 view .LVU537
 1859 013c C6ED017A 		vstr.32	s15, [r6, #4]
 410:control-base/devices/src/bmi088driver.c ****         gyro[2] = bmi088_raw_temp * BMI088_GYRO_SEN;
 1860              		.loc 1 410 9 is_stmt 1 view .LVU538
 410:control-base/devices/src/bmi088driver.c ****         gyro[2] = bmi088_raw_temp * BMI088_GYRO_SEN;
 1861              		.loc 1 410 41 is_stmt 0 view .LVU539
 1862 0140 9DF80730 		ldrb	r3, [sp, #7]	@ zero_extendqisi2
 1863              	.LVL264:
 410:control-base/devices/src/bmi088driver.c ****         gyro[2] = bmi088_raw_temp * BMI088_GYRO_SEN;
 1864              		.loc 1 410 27 view .LVU540
 1865 0144 1B02     		lsls	r3, r3, #8
 1866 0146 1BB2     		sxth	r3, r3
 410:control-base/devices/src/bmi088driver.c ****         gyro[2] = bmi088_raw_temp * BMI088_GYRO_SEN;
 1867              		.loc 1 410 57 view .LVU541
 1868 0148 9DF80620 		ldrb	r2, [sp, #6]	@ zero_extendqisi2
 410:control-base/devices/src/bmi088driver.c ****         gyro[2] = bmi088_raw_temp * BMI088_GYRO_SEN;
 1869              		.loc 1 410 25 view .LVU542
 1870 014c 1343     		orrs	r3, r3, r2
 1871 014e 07EE903A 		vmov	s15, r3	@ int
 1872              	.LVL265:
 411:control-base/devices/src/bmi088driver.c ****     }
 1873              		.loc 1 411 9 is_stmt 1 view .LVU543
 411:control-base/devices/src/bmi088driver.c ****     }
 1874              		.loc 1 411 35 is_stmt 0 view .LVU544
 1875 0152 F8EEE77A 		vcvt.f32.s32	s15, s15
 1876              	.LVL266:
 411:control-base/devices/src/bmi088driver.c ****     }
 1877              		.loc 1 411 35 view .LVU545
 1878 0156 67EE877A 		vmul.f32	s15, s15, s14
 411:control-base/devices/src/bmi088driver.c ****     }
 1879              		.loc 1 411 17 view .LVU546
 1880 015a C6ED027A 		vstr.32	s15, [r6, #8]
 1881 015e A3E7     		b	.L76
 1882              	.L81:
 1883              		.align	2
 1884              	.L80:
 1885 0160 00000000 		.word	BMI088_ACCEL_SEN
 1886 0164 00000000 		.word	BMI088_GYRO_SEN
 1887              		.cfi_endproc
 1888              	.LFE144:
 1890              		.section	.text.get_BMI088_sensor_time,"ax",%progbits
 1891              		.align	1
 1892              		.global	get_BMI088_sensor_time
 1893              		.syntax unified
 1894              		.thumb
ARM GAS  /var/folders/sg/pxk9dyzj7jz_x3889hx3b3dw0000gn/T//ccLxPCKZ.s 			page 52


 1895              		.thumb_func
 1897              	get_BMI088_sensor_time:
 1898              	.LFB145:
 426:control-base/devices/src/bmi088driver.c ****     uint32_t sensor_time = 0;
 1899              		.loc 1 426 1 is_stmt 1 view -0
 1900              		.cfi_startproc
 1901              		@ args = 0, pretend = 0, frame = 8
 1902              		@ frame_needed = 0, uses_anonymous_args = 0
 1903 0000 00B5     		push	{lr}
 1904              	.LCFI29:
 1905              		.cfi_def_cfa_offset 4
 1906              		.cfi_offset 14, -4
 1907 0002 83B0     		sub	sp, sp, #12
 1908              	.LCFI30:
 1909              		.cfi_def_cfa_offset 16
 427:control-base/devices/src/bmi088driver.c ****     uint8_t buf[3];
 1910              		.loc 1 427 5 view .LVU548
 1911              	.LVL267:
 428:control-base/devices/src/bmi088driver.c ****     BMI088_accel_read_muli_reg(BMI088_SENSORTIME_DATA_L, buf, 3);
 1912              		.loc 1 428 5 view .LVU549
 429:control-base/devices/src/bmi088driver.c **** 
 1913              		.loc 1 429 5 view .LVU550
 1914 0004 FFF7FEFF 		bl	BMI088_ACCEL_NS_L
 1915              	.LVL268:
 429:control-base/devices/src/bmi088driver.c **** 
 1916              		.loc 1 429 5 discriminator 1 view .LVU551
 1917 0008 9820     		movs	r0, #152
 1918 000a FFF7FEFF 		bl	BMI088_read_write_byte
 1919              	.LVL269:
 429:control-base/devices/src/bmi088driver.c **** 
 1920              		.loc 1 429 5 discriminator 2 view .LVU552
 1921 000e 0322     		movs	r2, #3
 1922 0010 01A9     		add	r1, sp, #4
 1923 0012 1820     		movs	r0, #24
 1924 0014 FFF7FEFF 		bl	BMI088_read_muli_reg
 1925              	.LVL270:
 429:control-base/devices/src/bmi088driver.c **** 
 1926              		.loc 1 429 5 discriminator 3 view .LVU553
 1927 0018 FFF7FEFF 		bl	BMI088_ACCEL_NS_H
 1928              	.LVL271:
 429:control-base/devices/src/bmi088driver.c **** 
 1929              		.loc 1 429 65 discriminator 4 view .LVU554
 431:control-base/devices/src/bmi088driver.c **** 
 1930              		.loc 1 431 5 view .LVU555
 431:control-base/devices/src/bmi088driver.c **** 
 1931              		.loc 1 431 34 is_stmt 0 view .LVU556
 1932 001c 9DF80620 		ldrb	r2, [sp, #6]	@ zero_extendqisi2
 431:control-base/devices/src/bmi088driver.c **** 
 1933              		.loc 1 431 51 view .LVU557
 1934 0020 9DF80530 		ldrb	r3, [sp, #5]	@ zero_extendqisi2
 431:control-base/devices/src/bmi088driver.c **** 
 1935              		.loc 1 431 55 view .LVU558
 1936 0024 1B02     		lsls	r3, r3, #8
 431:control-base/devices/src/bmi088driver.c **** 
 1937              		.loc 1 431 45 view .LVU559
 1938 0026 43EA0243 		orr	r3, r3, r2, lsl #16
 431:control-base/devices/src/bmi088driver.c **** 
ARM GAS  /var/folders/sg/pxk9dyzj7jz_x3889hx3b3dw0000gn/T//ccLxPCKZ.s 			page 53


 1939              		.loc 1 431 67 view .LVU560
 1940 002a 9DF80400 		ldrb	r0, [sp, #4]	@ zero_extendqisi2
 1941              	.LVL272:
 433:control-base/devices/src/bmi088driver.c **** }
 1942              		.loc 1 433 5 is_stmt 1 view .LVU561
 434:control-base/devices/src/bmi088driver.c **** 
 1943              		.loc 1 434 1 is_stmt 0 view .LVU562
 1944 002e 1843     		orrs	r0, r0, r3
 1945              	.LVL273:
 434:control-base/devices/src/bmi088driver.c **** 
 1946              		.loc 1 434 1 view .LVU563
 1947 0030 03B0     		add	sp, sp, #12
 1948              	.LCFI31:
 1949              		.cfi_def_cfa_offset 4
 1950              		@ sp needed
 1951 0032 5DF804FB 		ldr	pc, [sp], #4
 1952              		.cfi_endproc
 1953              	.LFE145:
 1955              		.section	.text.get_BMI088_temperate,"ax",%progbits
 1956              		.align	1
 1957              		.global	get_BMI088_temperate
 1958              		.syntax unified
 1959              		.thumb
 1960              		.thumb_func
 1962              	get_BMI088_temperate:
 1963              	.LFB146:
 437:control-base/devices/src/bmi088driver.c ****     uint8_t buf[2];
 1964              		.loc 1 437 1 is_stmt 1 view -0
 1965              		.cfi_startproc
 1966              		@ args = 0, pretend = 0, frame = 8
 1967              		@ frame_needed = 0, uses_anonymous_args = 0
 1968 0000 00B5     		push	{lr}
 1969              	.LCFI32:
 1970              		.cfi_def_cfa_offset 4
 1971              		.cfi_offset 14, -4
 1972 0002 83B0     		sub	sp, sp, #12
 1973              	.LCFI33:
 1974              		.cfi_def_cfa_offset 16
 438:control-base/devices/src/bmi088driver.c ****     float temperate;
 1975              		.loc 1 438 5 view .LVU565
 439:control-base/devices/src/bmi088driver.c ****     int16_t temperate_raw_temp;
 1976              		.loc 1 439 5 view .LVU566
 440:control-base/devices/src/bmi088driver.c **** 
 1977              		.loc 1 440 5 view .LVU567
 442:control-base/devices/src/bmi088driver.c **** 
 1978              		.loc 1 442 5 view .LVU568
 1979 0004 FFF7FEFF 		bl	BMI088_ACCEL_NS_L
 1980              	.LVL274:
 442:control-base/devices/src/bmi088driver.c **** 
 1981              		.loc 1 442 5 discriminator 1 view .LVU569
 1982 0008 A220     		movs	r0, #162
 1983 000a FFF7FEFF 		bl	BMI088_read_write_byte
 1984              	.LVL275:
 442:control-base/devices/src/bmi088driver.c **** 
 1985              		.loc 1 442 5 discriminator 2 view .LVU570
 1986 000e 0222     		movs	r2, #2
 1987 0010 01A9     		add	r1, sp, #4
ARM GAS  /var/folders/sg/pxk9dyzj7jz_x3889hx3b3dw0000gn/T//ccLxPCKZ.s 			page 54


 1988 0012 2220     		movs	r0, #34
 1989 0014 FFF7FEFF 		bl	BMI088_read_muli_reg
 1990              	.LVL276:
 442:control-base/devices/src/bmi088driver.c **** 
 1991              		.loc 1 442 5 discriminator 3 view .LVU571
 1992 0018 FFF7FEFF 		bl	BMI088_ACCEL_NS_H
 1993              	.LVL277:
 442:control-base/devices/src/bmi088driver.c **** 
 1994              		.loc 1 442 54 discriminator 4 view .LVU572
 444:control-base/devices/src/bmi088driver.c **** 
 1995              		.loc 1 444 5 view .LVU573
 444:control-base/devices/src/bmi088driver.c **** 
 1996              		.loc 1 444 40 is_stmt 0 view .LVU574
 1997 001c 9DF80420 		ldrb	r2, [sp, #4]	@ zero_extendqisi2
 444:control-base/devices/src/bmi088driver.c **** 
 1998              		.loc 1 444 56 view .LVU575
 1999 0020 9DF80530 		ldrb	r3, [sp, #5]	@ zero_extendqisi2
 444:control-base/devices/src/bmi088driver.c **** 
 2000              		.loc 1 444 26 view .LVU576
 2001 0024 5B09     		lsrs	r3, r3, #5
 444:control-base/devices/src/bmi088driver.c **** 
 2002              		.loc 1 444 24 view .LVU577
 2003 0026 43EAC203 		orr	r3, r3, r2, lsl #3
 2004              	.LVL278:
 446:control-base/devices/src/bmi088driver.c ****     {
 2005              		.loc 1 446 5 is_stmt 1 view .LVU578
 446:control-base/devices/src/bmi088driver.c ****     {
 2006              		.loc 1 446 8 is_stmt 0 view .LVU579
 2007 002a B3F5806F 		cmp	r3, #1024
 2008 002e 01DB     		blt	.L85
 448:control-base/devices/src/bmi088driver.c ****     }
 2009              		.loc 1 448 9 is_stmt 1 view .LVU580
 448:control-base/devices/src/bmi088driver.c ****     }
 2010              		.loc 1 448 28 is_stmt 0 view .LVU581
 2011 0030 A3F50063 		sub	r3, r3, #2048
 2012              	.LVL279:
 2013              	.L85:
 451:control-base/devices/src/bmi088driver.c **** 
 2014              		.loc 1 451 5 is_stmt 1 view .LVU582
 451:control-base/devices/src/bmi088driver.c **** 
 2015              		.loc 1 451 36 is_stmt 0 view .LVU583
 2016 0034 07EE903A 		vmov	s15, r3	@ int
 2017 0038 F8EEE77A 		vcvt.f32.s32	s15, s15
 2018 003c B4EE007A 		vmov.f32	s14, #1.25e-1
 2019 0040 67EE877A 		vmul.f32	s15, s15, s14
 2020              	.LVL280:
 453:control-base/devices/src/bmi088driver.c **** }
 2021              		.loc 1 453 5 is_stmt 1 view .LVU584
 454:control-base/devices/src/bmi088driver.c **** 
 2022              		.loc 1 454 1 is_stmt 0 view .LVU585
 2023 0044 B3EE070A 		vmov.f32	s0, #2.3e+1
 2024 0048 37EE800A 		vadd.f32	s0, s15, s0
 2025              	.LVL281:
 454:control-base/devices/src/bmi088driver.c **** 
 2026              		.loc 1 454 1 view .LVU586
 2027 004c 03B0     		add	sp, sp, #12
 2028              	.LCFI34:
ARM GAS  /var/folders/sg/pxk9dyzj7jz_x3889hx3b3dw0000gn/T//ccLxPCKZ.s 			page 55


 2029              		.cfi_def_cfa_offset 4
 2030              		@ sp needed
 2031 004e 5DF804FB 		ldr	pc, [sp], #4
 2032              		.cfi_endproc
 2033              	.LFE146:
 2035              		.section	.text.get_BMI088_gyro,"ax",%progbits
 2036              		.align	1
 2037              		.global	get_BMI088_gyro
 2038              		.syntax unified
 2039              		.thumb
 2040              		.thumb_func
 2042              	get_BMI088_gyro:
 2043              	.LVL282:
 2044              	.LFB147:
 457:control-base/devices/src/bmi088driver.c ****     uint8_t buf[6] = {0, 0, 0, 0, 0, 0};
 2045              		.loc 1 457 1 is_stmt 1 view -0
 2046              		.cfi_startproc
 2047              		@ args = 0, pretend = 0, frame = 8
 2048              		@ frame_needed = 0, uses_anonymous_args = 0
 457:control-base/devices/src/bmi088driver.c ****     uint8_t buf[6] = {0, 0, 0, 0, 0, 0};
 2049              		.loc 1 457 1 is_stmt 0 view .LVU588
 2050 0000 30B5     		push	{r4, r5, lr}
 2051              	.LCFI35:
 2052              		.cfi_def_cfa_offset 12
 2053              		.cfi_offset 4, -12
 2054              		.cfi_offset 5, -8
 2055              		.cfi_offset 14, -4
 2056 0002 83B0     		sub	sp, sp, #12
 2057              	.LCFI36:
 2058              		.cfi_def_cfa_offset 24
 2059 0004 0446     		mov	r4, r0
 458:control-base/devices/src/bmi088driver.c ****     int16_t gyro_raw_temp;
 2060              		.loc 1 458 5 is_stmt 1 view .LVU589
 458:control-base/devices/src/bmi088driver.c ****     int16_t gyro_raw_temp;
 2061              		.loc 1 458 13 is_stmt 0 view .LVU590
 2062 0006 0023     		movs	r3, #0
 2063 0008 0093     		str	r3, [sp]
 2064 000a ADF80430 		strh	r3, [sp, #4]	@ movhi
 459:control-base/devices/src/bmi088driver.c **** 
 2065              		.loc 1 459 5 is_stmt 1 view .LVU591
 461:control-base/devices/src/bmi088driver.c **** 
 2066              		.loc 1 461 5 view .LVU592
 2067 000e FFF7FEFF 		bl	BMI088_GYRO_NS_L
 2068              	.LVL283:
 461:control-base/devices/src/bmi088driver.c **** 
 2069              		.loc 1 461 5 discriminator 1 view .LVU593
 2070 0012 0622     		movs	r2, #6
 2071 0014 6946     		mov	r1, sp
 2072 0016 0220     		movs	r0, #2
 2073 0018 FFF7FEFF 		bl	BMI088_read_muli_reg
 2074              	.LVL284:
 461:control-base/devices/src/bmi088driver.c **** 
 2075              		.loc 1 461 5 discriminator 2 view .LVU594
 2076 001c FFF7FEFF 		bl	BMI088_GYRO_NS_H
 2077              	.LVL285:
 461:control-base/devices/src/bmi088driver.c **** 
 2078              		.loc 1 461 55 discriminator 3 view .LVU595
ARM GAS  /var/folders/sg/pxk9dyzj7jz_x3889hx3b3dw0000gn/T//ccLxPCKZ.s 			page 56


 463:control-base/devices/src/bmi088driver.c ****     gyro[0] = gyro_raw_temp ;
 2079              		.loc 1 463 5 view .LVU596
 463:control-base/devices/src/bmi088driver.c ****     gyro[0] = gyro_raw_temp ;
 2080              		.loc 1 463 35 is_stmt 0 view .LVU597
 2081 0020 9DF80130 		ldrb	r3, [sp, #1]	@ zero_extendqisi2
 463:control-base/devices/src/bmi088driver.c ****     gyro[0] = gyro_raw_temp ;
 2082              		.loc 1 463 21 view .LVU598
 2083 0024 1B02     		lsls	r3, r3, #8
 2084 0026 1BB2     		sxth	r3, r3
 463:control-base/devices/src/bmi088driver.c ****     gyro[0] = gyro_raw_temp ;
 2085              		.loc 1 463 51 view .LVU599
 2086 0028 9DF80020 		ldrb	r2, [sp]	@ zero_extendqisi2
 463:control-base/devices/src/bmi088driver.c ****     gyro[0] = gyro_raw_temp ;
 2087              		.loc 1 463 19 view .LVU600
 2088 002c 1343     		orrs	r3, r3, r2
 2089              	.LVL286:
 464:control-base/devices/src/bmi088driver.c ****     gyro_raw_temp = (int16_t)((buf[3]) << 8) | buf[2];
 2090              		.loc 1 464 5 is_stmt 1 view .LVU601
 464:control-base/devices/src/bmi088driver.c ****     gyro_raw_temp = (int16_t)((buf[3]) << 8) | buf[2];
 2091              		.loc 1 464 13 is_stmt 0 view .LVU602
 2092 002e 2380     		strh	r3, [r4]	@ movhi
 465:control-base/devices/src/bmi088driver.c ****     gyro[1] = gyro_raw_temp ;
 2093              		.loc 1 465 5 is_stmt 1 view .LVU603
 465:control-base/devices/src/bmi088driver.c ****     gyro[1] = gyro_raw_temp ;
 2094              		.loc 1 465 35 is_stmt 0 view .LVU604
 2095 0030 9DF80330 		ldrb	r3, [sp, #3]	@ zero_extendqisi2
 2096              	.LVL287:
 465:control-base/devices/src/bmi088driver.c ****     gyro[1] = gyro_raw_temp ;
 2097              		.loc 1 465 21 view .LVU605
 2098 0034 1B02     		lsls	r3, r3, #8
 2099 0036 1BB2     		sxth	r3, r3
 465:control-base/devices/src/bmi088driver.c ****     gyro[1] = gyro_raw_temp ;
 2100              		.loc 1 465 51 view .LVU606
 2101 0038 9DF80220 		ldrb	r2, [sp, #2]	@ zero_extendqisi2
 465:control-base/devices/src/bmi088driver.c ****     gyro[1] = gyro_raw_temp ;
 2102              		.loc 1 465 19 view .LVU607
 2103 003c 1343     		orrs	r3, r3, r2
 2104              	.LVL288:
 466:control-base/devices/src/bmi088driver.c ****     gyro_raw_temp = (int16_t)((buf[5]) << 8) | buf[4];
 2105              		.loc 1 466 5 is_stmt 1 view .LVU608
 466:control-base/devices/src/bmi088driver.c ****     gyro_raw_temp = (int16_t)((buf[5]) << 8) | buf[4];
 2106              		.loc 1 466 13 is_stmt 0 view .LVU609
 2107 003e 6380     		strh	r3, [r4, #2]	@ movhi
 467:control-base/devices/src/bmi088driver.c ****     gyro[2] = gyro_raw_temp ;
 2108              		.loc 1 467 5 is_stmt 1 view .LVU610
 467:control-base/devices/src/bmi088driver.c ****     gyro[2] = gyro_raw_temp ;
 2109              		.loc 1 467 35 is_stmt 0 view .LVU611
 2110 0040 9DF80530 		ldrb	r3, [sp, #5]	@ zero_extendqisi2
 2111              	.LVL289:
 467:control-base/devices/src/bmi088driver.c ****     gyro[2] = gyro_raw_temp ;
 2112              		.loc 1 467 21 view .LVU612
 2113 0044 1B02     		lsls	r3, r3, #8
 2114 0046 1BB2     		sxth	r3, r3
 467:control-base/devices/src/bmi088driver.c ****     gyro[2] = gyro_raw_temp ;
 2115              		.loc 1 467 51 view .LVU613
 2116 0048 9DF80420 		ldrb	r2, [sp, #4]	@ zero_extendqisi2
 467:control-base/devices/src/bmi088driver.c ****     gyro[2] = gyro_raw_temp ;
ARM GAS  /var/folders/sg/pxk9dyzj7jz_x3889hx3b3dw0000gn/T//ccLxPCKZ.s 			page 57


 2117              		.loc 1 467 19 view .LVU614
 2118 004c 1343     		orrs	r3, r3, r2
 2119              	.LVL290:
 468:control-base/devices/src/bmi088driver.c **** }
 2120              		.loc 1 468 5 is_stmt 1 view .LVU615
 468:control-base/devices/src/bmi088driver.c **** }
 2121              		.loc 1 468 13 is_stmt 0 view .LVU616
 2122 004e A380     		strh	r3, [r4, #4]	@ movhi
 469:control-base/devices/src/bmi088driver.c **** 
 2123              		.loc 1 469 1 view .LVU617
 2124 0050 03B0     		add	sp, sp, #12
 2125              	.LCFI37:
 2126              		.cfi_def_cfa_offset 12
 2127              		@ sp needed
 2128 0052 30BD     		pop	{r4, r5, pc}
 469:control-base/devices/src/bmi088driver.c **** 
 2129              		.loc 1 469 1 view .LVU618
 2130              		.cfi_endproc
 2131              	.LFE147:
 2133              		.section	.text.get_BMI088_accel,"ax",%progbits
 2134              		.align	1
 2135              		.global	get_BMI088_accel
 2136              		.syntax unified
 2137              		.thumb
 2138              		.thumb_func
 2140              	get_BMI088_accel:
 2141              	.LVL291:
 2142              	.LFB148:
 472:control-base/devices/src/bmi088driver.c ****     uint8_t buf[6] = {0, 0, 0, 0, 0, 0};
 2143              		.loc 1 472 1 is_stmt 1 view -0
 2144              		.cfi_startproc
 2145              		@ args = 0, pretend = 0, frame = 8
 2146              		@ frame_needed = 0, uses_anonymous_args = 0
 472:control-base/devices/src/bmi088driver.c ****     uint8_t buf[6] = {0, 0, 0, 0, 0, 0};
 2147              		.loc 1 472 1 is_stmt 0 view .LVU620
 2148 0000 30B5     		push	{r4, r5, lr}
 2149              	.LCFI38:
 2150              		.cfi_def_cfa_offset 12
 2151              		.cfi_offset 4, -12
 2152              		.cfi_offset 5, -8
 2153              		.cfi_offset 14, -4
 2154 0002 83B0     		sub	sp, sp, #12
 2155              	.LCFI39:
 2156              		.cfi_def_cfa_offset 24
 2157 0004 0446     		mov	r4, r0
 473:control-base/devices/src/bmi088driver.c ****     int16_t accel_raw_temp;
 2158              		.loc 1 473 5 is_stmt 1 view .LVU621
 473:control-base/devices/src/bmi088driver.c ****     int16_t accel_raw_temp;
 2159              		.loc 1 473 13 is_stmt 0 view .LVU622
 2160 0006 0023     		movs	r3, #0
 2161 0008 0093     		str	r3, [sp]
 2162 000a ADF80430 		strh	r3, [sp, #4]	@ movhi
 474:control-base/devices/src/bmi088driver.c **** 
 2163              		.loc 1 474 5 is_stmt 1 view .LVU623
 476:control-base/devices/src/bmi088driver.c **** 
 2164              		.loc 1 476 5 view .LVU624
 2165 000e FFF7FEFF 		bl	BMI088_ACCEL_NS_L
ARM GAS  /var/folders/sg/pxk9dyzj7jz_x3889hx3b3dw0000gn/T//ccLxPCKZ.s 			page 58


 2166              	.LVL292:
 476:control-base/devices/src/bmi088driver.c **** 
 2167              		.loc 1 476 5 discriminator 1 view .LVU625
 2168 0012 9220     		movs	r0, #146
 2169 0014 FFF7FEFF 		bl	BMI088_read_write_byte
 2170              	.LVL293:
 476:control-base/devices/src/bmi088driver.c **** 
 2171              		.loc 1 476 5 discriminator 2 view .LVU626
 2172 0018 0622     		movs	r2, #6
 2173 001a 6946     		mov	r1, sp
 2174 001c 1220     		movs	r0, #18
 2175 001e FFF7FEFF 		bl	BMI088_read_muli_reg
 2176              	.LVL294:
 476:control-base/devices/src/bmi088driver.c **** 
 2177              		.loc 1 476 5 discriminator 3 view .LVU627
 2178 0022 FFF7FEFF 		bl	BMI088_ACCEL_NS_H
 2179              	.LVL295:
 476:control-base/devices/src/bmi088driver.c **** 
 2180              		.loc 1 476 60 discriminator 4 view .LVU628
 478:control-base/devices/src/bmi088driver.c ****     accel[0] = accel_raw_temp * BMI088_ACCEL_SEN;
 2181              		.loc 1 478 5 view .LVU629
 478:control-base/devices/src/bmi088driver.c ****     accel[0] = accel_raw_temp * BMI088_ACCEL_SEN;
 2182              		.loc 1 478 36 is_stmt 0 view .LVU630
 2183 0026 9DF80130 		ldrb	r3, [sp, #1]	@ zero_extendqisi2
 478:control-base/devices/src/bmi088driver.c ****     accel[0] = accel_raw_temp * BMI088_ACCEL_SEN;
 2184              		.loc 1 478 22 view .LVU631
 2185 002a 1B02     		lsls	r3, r3, #8
 2186 002c 1BB2     		sxth	r3, r3
 478:control-base/devices/src/bmi088driver.c ****     accel[0] = accel_raw_temp * BMI088_ACCEL_SEN;
 2187              		.loc 1 478 52 view .LVU632
 2188 002e 9DF80020 		ldrb	r2, [sp]	@ zero_extendqisi2
 478:control-base/devices/src/bmi088driver.c ****     accel[0] = accel_raw_temp * BMI088_ACCEL_SEN;
 2189              		.loc 1 478 20 view .LVU633
 2190 0032 1343     		orrs	r3, r3, r2
 2191 0034 07EE903A 		vmov	s15, r3	@ int
 2192              	.LVL296:
 479:control-base/devices/src/bmi088driver.c ****     accel_raw_temp = (int16_t)((buf[3]) << 8) | buf[2];
 2193              		.loc 1 479 5 is_stmt 1 view .LVU634
 479:control-base/devices/src/bmi088driver.c ****     accel_raw_temp = (int16_t)((buf[3]) << 8) | buf[2];
 2194              		.loc 1 479 31 is_stmt 0 view .LVU635
 2195 0038 F8EEE77A 		vcvt.f32.s32	s15, s15
 2196              	.LVL297:
 479:control-base/devices/src/bmi088driver.c ****     accel_raw_temp = (int16_t)((buf[3]) << 8) | buf[2];
 2197              		.loc 1 479 31 view .LVU636
 2198 003c 144A     		ldr	r2, .L91
 2199 003e 92ED007A 		vldr.32	s14, [r2]
 2200 0042 67EE877A 		vmul.f32	s15, s15, s14
 479:control-base/devices/src/bmi088driver.c ****     accel_raw_temp = (int16_t)((buf[3]) << 8) | buf[2];
 2201              		.loc 1 479 14 view .LVU637
 2202 0046 C4ED007A 		vstr.32	s15, [r4]
 480:control-base/devices/src/bmi088driver.c ****     accel[1] = accel_raw_temp * BMI088_ACCEL_SEN;
 2203              		.loc 1 480 5 is_stmt 1 view .LVU638
 480:control-base/devices/src/bmi088driver.c ****     accel[1] = accel_raw_temp * BMI088_ACCEL_SEN;
 2204              		.loc 1 480 36 is_stmt 0 view .LVU639
 2205 004a 9DF80330 		ldrb	r3, [sp, #3]	@ zero_extendqisi2
 2206              	.LVL298:
 480:control-base/devices/src/bmi088driver.c ****     accel[1] = accel_raw_temp * BMI088_ACCEL_SEN;
ARM GAS  /var/folders/sg/pxk9dyzj7jz_x3889hx3b3dw0000gn/T//ccLxPCKZ.s 			page 59


 2207              		.loc 1 480 22 view .LVU640
 2208 004e 1B02     		lsls	r3, r3, #8
 2209 0050 1BB2     		sxth	r3, r3
 480:control-base/devices/src/bmi088driver.c ****     accel[1] = accel_raw_temp * BMI088_ACCEL_SEN;
 2210              		.loc 1 480 52 view .LVU641
 2211 0052 9DF80210 		ldrb	r1, [sp, #2]	@ zero_extendqisi2
 480:control-base/devices/src/bmi088driver.c ****     accel[1] = accel_raw_temp * BMI088_ACCEL_SEN;
 2212              		.loc 1 480 20 view .LVU642
 2213 0056 0B43     		orrs	r3, r3, r1
 2214 0058 07EE903A 		vmov	s15, r3	@ int
 2215              	.LVL299:
 481:control-base/devices/src/bmi088driver.c ****     accel_raw_temp = (int16_t)((buf[5]) << 8) | buf[4];
 2216              		.loc 1 481 5 is_stmt 1 view .LVU643
 481:control-base/devices/src/bmi088driver.c ****     accel_raw_temp = (int16_t)((buf[5]) << 8) | buf[4];
 2217              		.loc 1 481 31 is_stmt 0 view .LVU644
 2218 005c 92ED007A 		vldr.32	s14, [r2]
 2219 0060 F8EEE77A 		vcvt.f32.s32	s15, s15
 2220              	.LVL300:
 481:control-base/devices/src/bmi088driver.c ****     accel_raw_temp = (int16_t)((buf[5]) << 8) | buf[4];
 2221              		.loc 1 481 31 view .LVU645
 2222 0064 67EE877A 		vmul.f32	s15, s15, s14
 481:control-base/devices/src/bmi088driver.c ****     accel_raw_temp = (int16_t)((buf[5]) << 8) | buf[4];
 2223              		.loc 1 481 14 view .LVU646
 2224 0068 C4ED017A 		vstr.32	s15, [r4, #4]
 482:control-base/devices/src/bmi088driver.c ****     accel[2] = accel_raw_temp * BMI088_ACCEL_SEN;
 2225              		.loc 1 482 5 is_stmt 1 view .LVU647
 482:control-base/devices/src/bmi088driver.c ****     accel[2] = accel_raw_temp * BMI088_ACCEL_SEN;
 2226              		.loc 1 482 36 is_stmt 0 view .LVU648
 2227 006c 9DF80530 		ldrb	r3, [sp, #5]	@ zero_extendqisi2
 2228              	.LVL301:
 482:control-base/devices/src/bmi088driver.c ****     accel[2] = accel_raw_temp * BMI088_ACCEL_SEN;
 2229              		.loc 1 482 22 view .LVU649
 2230 0070 1B02     		lsls	r3, r3, #8
 2231 0072 1BB2     		sxth	r3, r3
 482:control-base/devices/src/bmi088driver.c ****     accel[2] = accel_raw_temp * BMI088_ACCEL_SEN;
 2232              		.loc 1 482 52 view .LVU650
 2233 0074 9DF80420 		ldrb	r2, [sp, #4]	@ zero_extendqisi2
 482:control-base/devices/src/bmi088driver.c ****     accel[2] = accel_raw_temp * BMI088_ACCEL_SEN;
 2234              		.loc 1 482 20 view .LVU651
 2235 0078 1343     		orrs	r3, r3, r2
 2236 007a 07EE903A 		vmov	s15, r3	@ int
 2237              	.LVL302:
 483:control-base/devices/src/bmi088driver.c **** }
 2238              		.loc 1 483 5 is_stmt 1 view .LVU652
 483:control-base/devices/src/bmi088driver.c **** }
 2239              		.loc 1 483 31 is_stmt 0 view .LVU653
 2240 007e F8EEE77A 		vcvt.f32.s32	s15, s15
 2241              	.LVL303:
 483:control-base/devices/src/bmi088driver.c **** }
 2242              		.loc 1 483 31 view .LVU654
 2243 0082 67EE877A 		vmul.f32	s15, s15, s14
 483:control-base/devices/src/bmi088driver.c **** }
 2244              		.loc 1 483 14 view .LVU655
 2245 0086 C4ED027A 		vstr.32	s15, [r4, #8]
 484:control-base/devices/src/bmi088driver.c **** 
 2246              		.loc 1 484 1 view .LVU656
 2247 008a 03B0     		add	sp, sp, #12
ARM GAS  /var/folders/sg/pxk9dyzj7jz_x3889hx3b3dw0000gn/T//ccLxPCKZ.s 			page 60


 2248              	.LCFI40:
 2249              		.cfi_def_cfa_offset 12
 2250              		@ sp needed
 2251 008c 30BD     		pop	{r4, r5, pc}
 2252              	.LVL304:
 2253              	.L92:
 484:control-base/devices/src/bmi088driver.c **** 
 2254              		.loc 1 484 1 view .LVU657
 2255 008e 00BF     		.align	2
 2256              	.L91:
 2257 0090 00000000 		.word	BMI088_ACCEL_SEN
 2258              		.cfi_endproc
 2259              	.LFE148:
 2261              		.section	.rodata.write_BMI088_ACCEL_self_test_Reg_Data_Error.0,"a"
 2262              		.align	2
 2265              	write_BMI088_ACCEL_self_test_Reg_Data_Error.0:
 2266 0000 40AC03   		.ascii	"@\254\003"
 2267 0003 7D0401   		.ascii	"}\004\001"
 2268 0006 410305   		.ascii	"A\003\005"
 2269 0009 7C0002   		.ascii	"|\000\002"
 2270 000c 6D0D02   		.ascii	"m\015\002"
 2271 000f 6D0902   		.ascii	"m\011\002"
 2272              		.section	.rodata.write_BMI088_gyro_reg_data_error,"a"
 2273              		.align	2
 2276              	write_BMI088_gyro_reg_data_error:
 2277 0000 0F0008   		.ascii	"\017\000\010"
 2278 0003 108209   		.ascii	"\020\202\011"
 2279 0006 11000A   		.ascii	"\021\000\012"
 2280 0009 15800B   		.ascii	"\025\200\013"
 2281 000c 16000C   		.ascii	"\026\000\014"
 2282 000f 18010D   		.ascii	"\030\001\015"
 2283              		.section	.rodata.write_BMI088_accel_reg_data_error,"a"
 2284              		.align	2
 2287              	write_BMI088_accel_reg_data_error:
 2288 0000 7D0401   		.ascii	"}\004\001"
 2289 0003 7C0002   		.ascii	"|\000\002"
 2290 0006 40AB03   		.ascii	"@\253\003"
 2291 0009 410005   		.ascii	"A\000\005"
 2292 000c 530806   		.ascii	"S\010\006"
 2293 000f 580407   		.ascii	"X\004\007"
 2294              		.global	BMI088_GYRO_SEN
 2295              		.section	.data.BMI088_GYRO_SEN,"aw"
 2296              		.align	2
 2299              	BMI088_GYRO_SEN:
 2300 0000 58A08B3A 		.word	982229080
 2301              		.global	BMI088_ACCEL_SEN
 2302              		.section	.data.BMI088_ACCEL_SEN,"aw"
 2303              		.align	2
 2306              	BMI088_ACCEL_SEN:
 2307 0000 E7416B3A 		.word	980107751
 2308              		.text
 2309              	.Letext0:
 2310              		.file 2 "/Applications/ArmGNUToolchain/14.3.rel1/arm-none-eabi/arm-none-eabi/include/machine/_defa
 2311              		.file 3 "/Applications/ArmGNUToolchain/14.3.rel1/arm-none-eabi/arm-none-eabi/include/sys/_stdint.h
 2312              		.file 4 "control-base/devices/inc/bmi088middleware.h"
 2313              		.file 5 "control-base/devices/inc/bmi088driver.h"
ARM GAS  /var/folders/sg/pxk9dyzj7jz_x3889hx3b3dw0000gn/T//ccLxPCKZ.s 			page 61

