ARM GAS  /var/folders/sg/pxk9dyzj7jz_x3889hx3b3dw0000gn/T//ccn8YfzL.s 			page 1


   1              		.cpu cortex-m4
   2              		.arch armv7e-m
   3              		.fpu fpv4-sp-d16
   4              		.eabi_attribute 27, 1
   5              		.eabi_attribute 28, 1
   6              		.eabi_attribute 20, 1
   7              		.eabi_attribute 21, 1
   8              		.eabi_attribute 23, 3
   9              		.eabi_attribute 24, 1
  10              		.eabi_attribute 25, 1
  11              		.eabi_attribute 26, 1
  12              		.eabi_attribute 30, 1
  13              		.eabi_attribute 34, 1
  14              		.eabi_attribute 18, 4
  15              		.file	"bsp_crc.c"
  16              		.text
  17              	.Ltext0:
  18              		.cfi_sections	.debug_frame
  19              		.file 1 "control-base/bsp/src/bsp_crc.c"
  20              		.section	.text.Get_CRC8_Check_Sum,"ax",%progbits
  21              		.align	1
  22              		.global	Get_CRC8_Check_Sum
  23              		.syntax unified
  24              		.thumb
  25              		.thumb_func
  27              	Get_CRC8_Check_Sum:
  28              	.LVL0:
  29              	.LFB3:
   1:control-base/bsp/src/bsp_crc.c **** /**
   2:control-base/bsp/src/bsp_crc.c ****  * @file CRC_Verification.c
   3:control-base/bsp/src/bsp_crc.c ****  * @author Leo Liu
   4:control-base/bsp/src/bsp_crc.c ****  * @brief CRC Verification for referee system (provided by Robomaster)
   5:control-base/bsp/src/bsp_crc.c ****  * @version 1.0
   6:control-base/bsp/src/bsp_crc.c ****  * @date 2022-07-19
   7:control-base/bsp/src/bsp_crc.c ****  * 
   8:control-base/bsp/src/bsp_crc.c ****  * @copyright Copyright (c) 2022
   9:control-base/bsp/src/bsp_crc.c ****  * 
  10:control-base/bsp/src/bsp_crc.c ****  */
  11:control-base/bsp/src/bsp_crc.c **** #include "bsp_crc.h"
  12:control-base/bsp/src/bsp_crc.c **** 
  13:control-base/bsp/src/bsp_crc.c **** unsigned char Get_CRC8_Check_Sum(unsigned char *pchMessage, unsigned int dwLength, unsigned char uc
  14:control-base/bsp/src/bsp_crc.c **** unsigned int Verify_CRC8_Check_Sum(unsigned char *pchMessage, unsigned int dwLength);
  15:control-base/bsp/src/bsp_crc.c **** void Append_CRC8_Check_Sum(unsigned char *pchMessage, unsigned int dwLength);
  16:control-base/bsp/src/bsp_crc.c **** uint16_t Get_CRC16_Check_Sum(uint8_t *pchMessage, uint32_t dwLength, uint16_t wCRC);
  17:control-base/bsp/src/bsp_crc.c **** uint32_t Verify_CRC16_Check_Sum(uint8_t *pchMessage, uint32_t dwLength);
  18:control-base/bsp/src/bsp_crc.c **** void Append_CRC16_Check_Sum(uint8_t *pchMessage, uint32_t dwLength);
  19:control-base/bsp/src/bsp_crc.c **** 
  20:control-base/bsp/src/bsp_crc.c **** //crc8 generator polynomial:G(x)=x8+x5+x4+1
  21:control-base/bsp/src/bsp_crc.c **** const unsigned char CRC8_INIT = 0xff;
  22:control-base/bsp/src/bsp_crc.c **** const unsigned char CRC8_TAB[256] =
  23:control-base/bsp/src/bsp_crc.c **** {
  24:control-base/bsp/src/bsp_crc.c **** 	0x00, 0x5e, 0xbc, 0xe2, 0x61, 0x3f, 0xdd, 0x83, 0xc2, 0x9c, 0x7e, 0x20, 0xa3, 0xfd, 0x1f, 0x41,
  25:control-base/bsp/src/bsp_crc.c **** 	0x9d, 0xc3, 0x21, 0x7f, 0xfc, 0xa2, 0x40, 0x1e, 0x5f, 0x01, 0xe3, 0xbd, 0x3e, 0x60, 0x82, 0xdc,
  26:control-base/bsp/src/bsp_crc.c **** 	0x23, 0x7d, 0x9f, 0xc1, 0x42, 0x1c, 0xfe, 0xa0, 0xe1, 0xbf, 0x5d, 0x03, 0x80, 0xde, 0x3c, 0x62,
  27:control-base/bsp/src/bsp_crc.c **** 	0xbe, 0xe0, 0x02, 0x5c, 0xdf, 0x81, 0x63, 0x3d, 0x7c, 0x22, 0xc0, 0x9e, 0x1d, 0x43, 0xa1, 0xff,
  28:control-base/bsp/src/bsp_crc.c **** 	0x46, 0x18, 0xfa, 0xa4, 0x27, 0x79, 0x9b, 0xc5, 0x84, 0xda, 0x38, 0x66, 0xe5, 0xbb, 0x59, 0x07,
  29:control-base/bsp/src/bsp_crc.c **** 	0xdb, 0x85, 0x67, 0x39, 0xba, 0xe4, 0x06, 0x58, 0x19, 0x47, 0xa5, 0xfb, 0x78, 0x26, 0xc4, 0x9a,
ARM GAS  /var/folders/sg/pxk9dyzj7jz_x3889hx3b3dw0000gn/T//ccn8YfzL.s 			page 2


  30:control-base/bsp/src/bsp_crc.c **** 	0x65, 0x3b, 0xd9, 0x87, 0x04, 0x5a, 0xb8, 0xe6, 0xa7, 0xf9, 0x1b, 0x45, 0xc6, 0x98, 0x7a, 0x24,
  31:control-base/bsp/src/bsp_crc.c **** 	0xf8, 0xa6, 0x44, 0x1a, 0x99, 0xc7, 0x25, 0x7b, 0x3a, 0x64, 0x86, 0xd8, 0x5b, 0x05, 0xe7, 0xb9,
  32:control-base/bsp/src/bsp_crc.c **** 	0x8c, 0xd2, 0x30, 0x6e, 0xed, 0xb3, 0x51, 0x0f, 0x4e, 0x10, 0xf2, 0xac, 0x2f, 0x71, 0x93, 0xcd,
  33:control-base/bsp/src/bsp_crc.c **** 	0x11, 0x4f, 0xad, 0xf3, 0x70, 0x2e, 0xcc, 0x92, 0xd3, 0x8d, 0x6f, 0x31, 0xb2, 0xec, 0x0e, 0x50,
  34:control-base/bsp/src/bsp_crc.c **** 	0xaf, 0xf1, 0x13, 0x4d, 0xce, 0x90, 0x72, 0x2c, 0x6d, 0x33, 0xd1, 0x8f, 0x0c, 0x52, 0xb0, 0xee,
  35:control-base/bsp/src/bsp_crc.c **** 	0x32, 0x6c, 0x8e, 0xd0, 0x53, 0x0d, 0xef, 0xb1, 0xf0, 0xae, 0x4c, 0x12, 0x91, 0xcf, 0x2d, 0x73,
  36:control-base/bsp/src/bsp_crc.c **** 	0xca, 0x94, 0x76, 0x28, 0xab, 0xf5, 0x17, 0x49, 0x08, 0x56, 0xb4, 0xea, 0x69, 0x37, 0xd5, 0x8b,
  37:control-base/bsp/src/bsp_crc.c **** 	0x57, 0x09, 0xeb, 0xb5, 0x36, 0x68, 0x8a, 0xd4, 0x95, 0xcb, 0x29, 0x77, 0xf4, 0xaa, 0x48, 0x16,
  38:control-base/bsp/src/bsp_crc.c **** 	0xe9, 0xb7, 0x55, 0x0b, 0x88, 0xd6, 0x34, 0x6a, 0x2b, 0x75, 0x97, 0xc9, 0x4a, 0x14, 0xf6, 0xa8,
  39:control-base/bsp/src/bsp_crc.c **** 	0x74, 0x2a, 0xc8, 0x96, 0x15, 0x4b, 0xa9, 0xf7, 0xb6, 0xe8, 0x0a, 0x54, 0xd7, 0x89, 0x6b, 0x35,
  40:control-base/bsp/src/bsp_crc.c **** };
  41:control-base/bsp/src/bsp_crc.c **** 
  42:control-base/bsp/src/bsp_crc.c **** unsigned char Get_CRC8_Check_Sum(unsigned char *pchMessage,unsigned int dwLength,unsigned char ucCR
  43:control-base/bsp/src/bsp_crc.c **** {
  30              		.loc 1 43 1 view -0
  31              		.cfi_startproc
  32              		@ args = 0, pretend = 0, frame = 0
  33              		@ frame_needed = 0, uses_anonymous_args = 0
  34              		@ link register save eliminated.
  35              		.loc 1 43 1 is_stmt 0 view .LVU1
  36 0000 0346     		mov	r3, r0
  37 0002 1046     		mov	r0, r2
  38              	.LVL1:
  44:control-base/bsp/src/bsp_crc.c **** 	unsigned char ucIndex;
  39              		.loc 1 44 2 is_stmt 1 view .LVU2
  45:control-base/bsp/src/bsp_crc.c **** 	while (dwLength--)
  40              		.loc 1 45 2 view .LVU3
  41              		.loc 1 45 8 is_stmt 0 view .LVU4
  42 0004 05E0     		b	.L2
  43              	.LVL2:
  44              	.L3:
  46:control-base/bsp/src/bsp_crc.c **** 	{
  47:control-base/bsp/src/bsp_crc.c **** 		ucIndex = ucCRC8^(*pchMessage++);
  45              		.loc 1 47 3 is_stmt 1 view .LVU5
  46              		.loc 1 47 21 is_stmt 0 view .LVU6
  47 0006 13F8011B 		ldrb	r1, [r3], #1	@ zero_extendqisi2
  48              	.LVL3:
  49              		.loc 1 47 11 view .LVU7
  50 000a 4140     		eors	r1, r1, r0
  51              	.LVL4:
  48:control-base/bsp/src/bsp_crc.c **** 		ucCRC8 = CRC8_TAB[ucIndex];
  52              		.loc 1 48 3 is_stmt 1 view .LVU8
  53              		.loc 1 48 10 is_stmt 0 view .LVU9
  54 000c 0348     		ldr	r0, .L4
  55              	.LVL5:
  56              		.loc 1 48 10 view .LVU10
  57 000e 405C     		ldrb	r0, [r0, r1]	@ zero_extendqisi2
  58              	.LVL6:
  45:control-base/bsp/src/bsp_crc.c **** 	while (dwLength--)
  59              		.loc 1 45 17 view .LVU11
  60 0010 1146     		mov	r1, r2
  61              	.LVL7:
  62              	.L2:
  45:control-base/bsp/src/bsp_crc.c **** 	while (dwLength--)
  63              		.loc 1 45 9 is_stmt 1 view .LVU12
  45:control-base/bsp/src/bsp_crc.c **** 	while (dwLength--)
  64              		.loc 1 45 17 is_stmt 0 view .LVU13
ARM GAS  /var/folders/sg/pxk9dyzj7jz_x3889hx3b3dw0000gn/T//ccn8YfzL.s 			page 3


  65 0012 4A1E     		subs	r2, r1, #1
  66              	.LVL8:
  45:control-base/bsp/src/bsp_crc.c **** 	while (dwLength--)
  67              		.loc 1 45 9 view .LVU14
  68 0014 0029     		cmp	r1, #0
  69 0016 F6D1     		bne	.L3
  49:control-base/bsp/src/bsp_crc.c **** 	}
  50:control-base/bsp/src/bsp_crc.c **** 	return(ucCRC8);
  70              		.loc 1 50 2 is_stmt 1 view .LVU15
  51:control-base/bsp/src/bsp_crc.c **** }
  71              		.loc 1 51 1 is_stmt 0 view .LVU16
  72 0018 7047     		bx	lr
  73              	.L5:
  74 001a 00BF     		.align	2
  75              	.L4:
  76 001c 00000000 		.word	CRC8_TAB
  77              		.cfi_endproc
  78              	.LFE3:
  80              		.section	.text.Verify_CRC8_Check_Sum,"ax",%progbits
  81              		.align	1
  82              		.global	Verify_CRC8_Check_Sum
  83              		.syntax unified
  84              		.thumb
  85              		.thumb_func
  87              	Verify_CRC8_Check_Sum:
  88              	.LVL9:
  89              	.LFB4:
  52:control-base/bsp/src/bsp_crc.c **** 
  53:control-base/bsp/src/bsp_crc.c **** /*
  54:control-base/bsp/src/bsp_crc.c **** ** Descriptions: CRC8 Verify function
  55:control-base/bsp/src/bsp_crc.c **** ** Input: Data to Verify,Stream length = Data + checksum
  56:control-base/bsp/src/bsp_crc.c **** ** Output: True or False (CRC Verify Result)
  57:control-base/bsp/src/bsp_crc.c **** */
  58:control-base/bsp/src/bsp_crc.c **** unsigned int Verify_CRC8_Check_Sum(unsigned char *pchMessage, unsigned int dwLength)
  59:control-base/bsp/src/bsp_crc.c **** {
  90              		.loc 1 59 1 is_stmt 1 view -0
  91              		.cfi_startproc
  92              		@ args = 0, pretend = 0, frame = 0
  93              		@ frame_needed = 0, uses_anonymous_args = 0
  60:control-base/bsp/src/bsp_crc.c **** 	unsigned char ucExpected = 0;
  94              		.loc 1 60 2 view .LVU18
  61:control-base/bsp/src/bsp_crc.c **** 	if ((pchMessage == 0) || (dwLength <= 2)) return 0;
  95              		.loc 1 61 2 view .LVU19
  96              		.loc 1 61 5 is_stmt 0 view .LVU20
  97 0000 70B1     		cbz	r0, .L8
  59:control-base/bsp/src/bsp_crc.c **** 	unsigned char ucExpected = 0;
  98              		.loc 1 59 1 view .LVU21
  99 0002 38B5     		push	{r3, r4, r5, lr}
 100              	.LCFI0:
 101              		.cfi_def_cfa_offset 16
 102              		.cfi_offset 3, -16
 103              		.cfi_offset 4, -12
 104              		.cfi_offset 5, -8
 105              		.cfi_offset 14, -4
 106 0004 0546     		mov	r5, r0
 107              		.loc 1 61 24 discriminator 2 view .LVU22
 108 0006 0229     		cmp	r1, #2
ARM GAS  /var/folders/sg/pxk9dyzj7jz_x3889hx3b3dw0000gn/T//ccn8YfzL.s 			page 4


 109 0008 0CD9     		bls	.L9
  62:control-base/bsp/src/bsp_crc.c **** 	ucExpected = Get_CRC8_Check_Sum (pchMessage, dwLength-1, CRC8_INIT);
 110              		.loc 1 62 2 is_stmt 1 view .LVU23
 111              		.loc 1 62 15 is_stmt 0 view .LVU24
 112 000a 4C1E     		subs	r4, r1, #1
 113 000c FF22     		movs	r2, #255
 114 000e 2146     		mov	r1, r4
 115              	.LVL10:
 116              		.loc 1 62 15 view .LVU25
 117 0010 FFF7FEFF 		bl	Get_CRC8_Check_Sum
 118              	.LVL11:
  63:control-base/bsp/src/bsp_crc.c **** 	return ( ucExpected == pchMessage[dwLength-1] );
 119              		.loc 1 63 2 is_stmt 1 view .LVU26
 120              		.loc 1 63 35 is_stmt 0 view .LVU27
 121 0014 2B5D     		ldrb	r3, [r5, r4]	@ zero_extendqisi2
 122              		.loc 1 63 22 view .LVU28
 123 0016 8342     		cmp	r3, r0
 124 0018 14BF     		ite	ne
 125 001a 0020     		movne	r0, #0
 126              	.LVL12:
 127              		.loc 1 63 22 view .LVU29
 128 001c 0120     		moveq	r0, #1
 129              	.LVL13:
 130              	.L6:
  64:control-base/bsp/src/bsp_crc.c **** }
 131              		.loc 1 64 1 view .LVU30
 132 001e 38BD     		pop	{r3, r4, r5, pc}
 133              	.LVL14:
 134              	.L8:
 135              	.LCFI1:
 136              		.cfi_def_cfa_offset 0
 137              		.cfi_restore 3
 138              		.cfi_restore 4
 139              		.cfi_restore 5
 140              		.cfi_restore 14
  61:control-base/bsp/src/bsp_crc.c **** 	ucExpected = Get_CRC8_Check_Sum (pchMessage, dwLength-1, CRC8_INIT);
 141              		.loc 1 61 51 discriminator 3 view .LVU31
 142 0020 0020     		movs	r0, #0
 143              	.LVL15:
 144              		.loc 1 64 1 view .LVU32
 145 0022 7047     		bx	lr
 146              	.LVL16:
 147              	.L9:
 148              	.LCFI2:
 149              		.cfi_def_cfa_offset 16
 150              		.cfi_offset 3, -16
 151              		.cfi_offset 4, -12
 152              		.cfi_offset 5, -8
 153              		.cfi_offset 14, -4
  61:control-base/bsp/src/bsp_crc.c **** 	ucExpected = Get_CRC8_Check_Sum (pchMessage, dwLength-1, CRC8_INIT);
 154              		.loc 1 61 51 discriminator 3 view .LVU33
 155 0024 0020     		movs	r0, #0
 156              	.LVL17:
  61:control-base/bsp/src/bsp_crc.c **** 	ucExpected = Get_CRC8_Check_Sum (pchMessage, dwLength-1, CRC8_INIT);
 157              		.loc 1 61 51 discriminator 3 view .LVU34
 158 0026 FAE7     		b	.L6
 159              		.cfi_endproc
ARM GAS  /var/folders/sg/pxk9dyzj7jz_x3889hx3b3dw0000gn/T//ccn8YfzL.s 			page 5


 160              	.LFE4:
 162              		.section	.text.Append_CRC8_Check_Sum,"ax",%progbits
 163              		.align	1
 164              		.global	Append_CRC8_Check_Sum
 165              		.syntax unified
 166              		.thumb
 167              		.thumb_func
 169              	Append_CRC8_Check_Sum:
 170              	.LVL18:
 171              	.LFB5:
  65:control-base/bsp/src/bsp_crc.c **** 
  66:control-base/bsp/src/bsp_crc.c **** /*
  67:control-base/bsp/src/bsp_crc.c **** ** Descriptions: append CRC8 to the end of data
  68:control-base/bsp/src/bsp_crc.c **** ** Input: Data to CRC and append,Stream length = Data + checksum
  69:control-base/bsp/src/bsp_crc.c **** ** Output: True or False (CRC Verify Result)
  70:control-base/bsp/src/bsp_crc.c **** */
  71:control-base/bsp/src/bsp_crc.c **** void Append_CRC8_Check_Sum(unsigned char *pchMessage, unsigned int dwLength)
  72:control-base/bsp/src/bsp_crc.c **** {
 172              		.loc 1 72 1 is_stmt 1 view -0
 173              		.cfi_startproc
 174              		@ args = 0, pretend = 0, frame = 0
 175              		@ frame_needed = 0, uses_anonymous_args = 0
  73:control-base/bsp/src/bsp_crc.c **** 	unsigned char ucCRC = 0;
 176              		.loc 1 73 2 view .LVU36
  74:control-base/bsp/src/bsp_crc.c **** 	if ((pchMessage == 0) || (dwLength <= 2)) return;
 177              		.loc 1 74 2 view .LVU37
 178              		.loc 1 74 5 is_stmt 0 view .LVU38
 179 0000 50B1     		cbz	r0, .L17
  72:control-base/bsp/src/bsp_crc.c **** 	unsigned char ucCRC = 0;
 180              		.loc 1 72 1 view .LVU39
 181 0002 38B5     		push	{r3, r4, r5, lr}
 182              	.LCFI3:
 183              		.cfi_def_cfa_offset 16
 184              		.cfi_offset 3, -16
 185              		.cfi_offset 4, -12
 186              		.cfi_offset 5, -8
 187              		.cfi_offset 14, -4
 188 0004 0546     		mov	r5, r0
 189              		.loc 1 74 24 discriminator 2 view .LVU40
 190 0006 0229     		cmp	r1, #2
 191 0008 05D9     		bls	.L14
  75:control-base/bsp/src/bsp_crc.c **** 	ucCRC = Get_CRC8_Check_Sum ( (unsigned char *)pchMessage, dwLength-1, CRC8_INIT);
 192              		.loc 1 75 2 is_stmt 1 view .LVU41
 193              		.loc 1 75 10 is_stmt 0 view .LVU42
 194 000a 4C1E     		subs	r4, r1, #1
 195 000c FF22     		movs	r2, #255
 196 000e 2146     		mov	r1, r4
 197              	.LVL19:
 198              		.loc 1 75 10 view .LVU43
 199 0010 FFF7FEFF 		bl	Get_CRC8_Check_Sum
 200              	.LVL20:
  76:control-base/bsp/src/bsp_crc.c **** 	pchMessage[dwLength-1] = ucCRC;
 201              		.loc 1 76 2 is_stmt 1 view .LVU44
 202              		.loc 1 76 25 is_stmt 0 view .LVU45
 203 0014 2855     		strb	r0, [r5, r4]
 204              	.LVL21:
 205              	.L14:
ARM GAS  /var/folders/sg/pxk9dyzj7jz_x3889hx3b3dw0000gn/T//ccn8YfzL.s 			page 6


  77:control-base/bsp/src/bsp_crc.c **** }
 206              		.loc 1 77 1 view .LVU46
 207 0016 38BD     		pop	{r3, r4, r5, pc}
 208              	.LVL22:
 209              	.L17:
 210              	.LCFI4:
 211              		.cfi_def_cfa_offset 0
 212              		.cfi_restore 3
 213              		.cfi_restore 4
 214              		.cfi_restore 5
 215              		.cfi_restore 14
 216              		.loc 1 77 1 view .LVU47
 217 0018 7047     		bx	lr
 218              		.cfi_endproc
 219              	.LFE5:
 221              		.section	.text.Get_CRC16_Check_Sum,"ax",%progbits
 222              		.align	1
 223              		.global	Get_CRC16_Check_Sum
 224              		.syntax unified
 225              		.thumb
 226              		.thumb_func
 228              	Get_CRC16_Check_Sum:
 229              	.LVL23:
 230              	.LFB6:
  78:control-base/bsp/src/bsp_crc.c **** 
  79:control-base/bsp/src/bsp_crc.c **** uint16_t CRC_INIT = 0xffff;
  80:control-base/bsp/src/bsp_crc.c **** const uint16_t wCRC_Table[256] =
  81:control-base/bsp/src/bsp_crc.c **** {
  82:control-base/bsp/src/bsp_crc.c **** 	0x0000, 0x1189, 0x2312, 0x329b, 0x4624, 0x57ad, 0x6536, 0x74bf,
  83:control-base/bsp/src/bsp_crc.c **** 	0x8c48, 0x9dc1, 0xaf5a, 0xbed3, 0xca6c, 0xdbe5, 0xe97e, 0xf8f7,
  84:control-base/bsp/src/bsp_crc.c **** 	0x1081, 0x0108, 0x3393, 0x221a, 0x56a5, 0x472c, 0x75b7, 0x643e,
  85:control-base/bsp/src/bsp_crc.c **** 	0x9cc9, 0x8d40, 0xbfdb, 0xae52, 0xdaed, 0xcb64, 0xf9ff, 0xe876,
  86:control-base/bsp/src/bsp_crc.c **** 	0x2102, 0x308b, 0x0210, 0x1399, 0x6726, 0x76af, 0x4434, 0x55bd,
  87:control-base/bsp/src/bsp_crc.c **** 	0xad4a, 0xbcc3, 0x8e58, 0x9fd1, 0xeb6e, 0xfae7, 0xc87c, 0xd9f5,
  88:control-base/bsp/src/bsp_crc.c **** 	0x3183, 0x200a, 0x1291, 0x0318, 0x77a7, 0x662e, 0x54b5, 0x453c,
  89:control-base/bsp/src/bsp_crc.c **** 	0xbdcb, 0xac42, 0x9ed9, 0x8f50, 0xfbef, 0xea66, 0xd8fd, 0xc974,
  90:control-base/bsp/src/bsp_crc.c **** 	0x4204, 0x538d, 0x6116, 0x709f, 0x0420, 0x15a9, 0x2732, 0x36bb,
  91:control-base/bsp/src/bsp_crc.c **** 	0xce4c, 0xdfc5, 0xed5e, 0xfcd7, 0x8868, 0x99e1, 0xab7a, 0xbaf3,
  92:control-base/bsp/src/bsp_crc.c **** 	0x5285, 0x430c, 0x7197, 0x601e, 0x14a1, 0x0528, 0x37b3, 0x263a,
  93:control-base/bsp/src/bsp_crc.c **** 	0xdecd, 0xcf44, 0xfddf, 0xec56, 0x98e9, 0x8960, 0xbbfb, 0xaa72,
  94:control-base/bsp/src/bsp_crc.c **** 	0x6306, 0x728f, 0x4014, 0x519d, 0x2522, 0x34ab, 0x0630, 0x17b9,
  95:control-base/bsp/src/bsp_crc.c **** 	0xef4e, 0xfec7, 0xcc5c, 0xddd5, 0xa96a, 0xb8e3, 0x8a78, 0x9bf1,
  96:control-base/bsp/src/bsp_crc.c **** 	0x7387, 0x620e, 0x5095, 0x411c, 0x35a3, 0x242a, 0x16b1, 0x0738,
  97:control-base/bsp/src/bsp_crc.c **** 	0xffcf, 0xee46, 0xdcdd, 0xcd54, 0xb9eb, 0xa862, 0x9af9, 0x8b70,
  98:control-base/bsp/src/bsp_crc.c **** 	0x8408, 0x9581, 0xa71a, 0xb693, 0xc22c, 0xd3a5, 0xe13e, 0xf0b7,
  99:control-base/bsp/src/bsp_crc.c **** 	0x0840, 0x19c9, 0x2b52, 0x3adb, 0x4e64, 0x5fed, 0x6d76, 0x7cff,
 100:control-base/bsp/src/bsp_crc.c **** 	0x9489, 0x8500, 0xb79b, 0xa612, 0xd2ad, 0xc324, 0xf1bf, 0xe036,
 101:control-base/bsp/src/bsp_crc.c **** 	0x18c1, 0x0948, 0x3bd3, 0x2a5a, 0x5ee5, 0x4f6c, 0x7df7, 0x6c7e,
 102:control-base/bsp/src/bsp_crc.c **** 	0xa50a, 0xb483, 0x8618, 0x9791, 0xe32e, 0xf2a7, 0xc03c, 0xd1b5,
 103:control-base/bsp/src/bsp_crc.c **** 	0x2942, 0x38cb, 0x0a50, 0x1bd9, 0x6f66, 0x7eef, 0x4c74, 0x5dfd,
 104:control-base/bsp/src/bsp_crc.c **** 	0xb58b, 0xa402, 0x9699, 0x8710, 0xf3af, 0xe226, 0xd0bd, 0xc134,
 105:control-base/bsp/src/bsp_crc.c **** 	0x39c3, 0x284a, 0x1ad1, 0x0b58, 0x7fe7, 0x6e6e, 0x5cf5, 0x4d7c,
 106:control-base/bsp/src/bsp_crc.c **** 	0xc60c, 0xd785, 0xe51e, 0xf497, 0x8028, 0x91a1, 0xa33a, 0xb2b3,
 107:control-base/bsp/src/bsp_crc.c **** 	0x4a44, 0x5bcd, 0x6956, 0x78df, 0x0c60, 0x1de9, 0x2f72, 0x3efb,
 108:control-base/bsp/src/bsp_crc.c **** 	0xd68d, 0xc704, 0xf59f, 0xe416, 0x90a9, 0x8120, 0xb3bb, 0xa232,
 109:control-base/bsp/src/bsp_crc.c **** 	0x5ac5, 0x4b4c, 0x79d7, 0x685e, 0x1ce1, 0x0d68, 0x3ff3, 0x2e7a,
 110:control-base/bsp/src/bsp_crc.c **** 	0xe70e, 0xf687, 0xc41c, 0xd595, 0xa12a, 0xb0a3, 0x8238, 0x93b1,
ARM GAS  /var/folders/sg/pxk9dyzj7jz_x3889hx3b3dw0000gn/T//ccn8YfzL.s 			page 7


 111:control-base/bsp/src/bsp_crc.c **** 	0x6b46, 0x7acf, 0x4854, 0x59dd, 0x2d62, 0x3ceb, 0x0e70, 0x1ff9,
 112:control-base/bsp/src/bsp_crc.c **** 	0xf78f, 0xe606, 0xd49d, 0xc514, 0xb1ab, 0xa022, 0x92b9, 0x8330,
 113:control-base/bsp/src/bsp_crc.c **** 	0x7bc7, 0x6a4e, 0x58d5, 0x495c, 0x3de3, 0x2c6a, 0x1ef1, 0x0f78
 114:control-base/bsp/src/bsp_crc.c **** };
 115:control-base/bsp/src/bsp_crc.c **** 
 116:control-base/bsp/src/bsp_crc.c **** /*
 117:control-base/bsp/src/bsp_crc.c **** ** Descriptions: CRC16 checksum function
 118:control-base/bsp/src/bsp_crc.c **** ** Input: Data to check,Stream length, initialized checksum
 119:control-base/bsp/src/bsp_crc.c **** ** Output: CRC checksum
 120:control-base/bsp/src/bsp_crc.c **** */
 121:control-base/bsp/src/bsp_crc.c **** uint16_t Get_CRC16_Check_Sum(uint8_t *pchMessage,uint32_t dwLength,uint16_t wCRC)
 122:control-base/bsp/src/bsp_crc.c **** {
 231              		.loc 1 122 1 is_stmt 1 view -0
 232              		.cfi_startproc
 233              		@ args = 0, pretend = 0, frame = 0
 234              		@ frame_needed = 0, uses_anonymous_args = 0
 235              		@ link register save eliminated.
 123:control-base/bsp/src/bsp_crc.c **** 	uint8_t chData;
 236              		.loc 1 123 2 view .LVU49
 124:control-base/bsp/src/bsp_crc.c **** 	if (pchMessage == NULL)
 237              		.loc 1 124 2 view .LVU50
 238              		.loc 1 124 5 is_stmt 0 view .LVU51
 239 0000 0346     		mov	r3, r0
 240 0002 98B1     		cbz	r0, .L30
 125:control-base/bsp/src/bsp_crc.c **** 	{
 126:control-base/bsp/src/bsp_crc.c **** 		return 0xFFFF;
 127:control-base/bsp/src/bsp_crc.c **** 	}
 128:control-base/bsp/src/bsp_crc.c **** 	while(dwLength--)
 241              		.loc 1 128 8 is_stmt 1 view .LVU52
 242              		.loc 1 128 16 is_stmt 0 view .LVU53
 243 0004 481E     		subs	r0, r1, #1
 244              	.LVL24:
 245              		.loc 1 128 8 view .LVU54
 246 0006 99B1     		cbz	r1, .L28
 122:control-base/bsp/src/bsp_crc.c **** 	uint8_t chData;
 247              		.loc 1 122 1 view .LVU55
 248 0008 10B4     		push	{r4}
 249              	.LCFI5:
 250              		.cfi_def_cfa_offset 4
 251              		.cfi_offset 4, -4
 252              	.L23:
 129:control-base/bsp/src/bsp_crc.c **** 	{
 130:control-base/bsp/src/bsp_crc.c **** 		chData = *pchMessage++;
 253              		.loc 1 130 3 is_stmt 1 view .LVU56
 254              	.LVL25:
 255              		.loc 1 130 10 is_stmt 0 view .LVU57
 256 000a 13F8011B 		ldrb	r1, [r3], #1	@ zero_extendqisi2
 257              	.LVL26:
 131:control-base/bsp/src/bsp_crc.c **** 		(wCRC) = ((uint16_t)(wCRC) >> 8) ^ wCRC_Table[((uint16_t)(wCRC) ^ (uint16_t)(chData)) &
 258              		.loc 1 131 3 is_stmt 1 view .LVU58
 259              		.loc 1 131 67 is_stmt 0 view .LVU59
 260 000e 5140     		eors	r1, r1, r2
 261              	.LVL27:
 262              		.loc 1 131 89 view .LVU60
 263 0010 C9B2     		uxtb	r1, r1
 264              		.loc 1 131 48 view .LVU61
 265 0012 084C     		ldr	r4, .L31
ARM GAS  /var/folders/sg/pxk9dyzj7jz_x3889hx3b3dw0000gn/T//ccn8YfzL.s 			page 8


 266 0014 34F81110 		ldrh	r1, [r4, r1, lsl #1]
 267              		.loc 1 131 10 view .LVU62
 268 0018 81EA1222 		eor	r2, r1, r2, lsr #8
 269              	.LVL28:
 128:control-base/bsp/src/bsp_crc.c **** 	{
 270              		.loc 1 128 16 view .LVU63
 271 001c 0146     		mov	r1, r0
 272              	.LVL29:
 128:control-base/bsp/src/bsp_crc.c **** 	{
 273              		.loc 1 128 8 is_stmt 1 view .LVU64
 128:control-base/bsp/src/bsp_crc.c **** 	{
 274              		.loc 1 128 16 is_stmt 0 view .LVU65
 275 001e 0138     		subs	r0, r0, #1
 276              	.LVL30:
 128:control-base/bsp/src/bsp_crc.c **** 	{
 277              		.loc 1 128 8 view .LVU66
 278 0020 0029     		cmp	r1, #0
 279 0022 F2D1     		bne	.L23
 132:control-base/bsp/src/bsp_crc.c **** 		0x00ff];
 133:control-base/bsp/src/bsp_crc.c **** 	}
 134:control-base/bsp/src/bsp_crc.c **** 	return wCRC;
 135:control-base/bsp/src/bsp_crc.c **** }
 280              		.loc 1 135 1 view .LVU67
 281 0024 1046     		mov	r0, r2
 282              	.LVL31:
 283              		.loc 1 135 1 view .LVU68
 284 0026 5DF8044B 		ldr	r4, [sp], #4
 285              	.LCFI6:
 286              		.cfi_restore 4
 287              		.cfi_def_cfa_offset 0
 288 002a 7047     		bx	lr
 289              	.LVL32:
 290              	.L30:
 126:control-base/bsp/src/bsp_crc.c **** 	}
 291              		.loc 1 126 10 view .LVU69
 292 002c 4FF6FF72 		movw	r2, #65535
 293              	.LVL33:
 294              	.L28:
 295              		.loc 1 135 1 view .LVU70
 296 0030 1046     		mov	r0, r2
 297 0032 7047     		bx	lr
 298              	.L32:
 299              		.align	2
 300              	.L31:
 301 0034 00000000 		.word	wCRC_Table
 302              		.cfi_endproc
 303              	.LFE6:
 305              		.section	.text.Verify_CRC16_Check_Sum,"ax",%progbits
 306              		.align	1
 307              		.global	Verify_CRC16_Check_Sum
 308              		.syntax unified
 309              		.thumb
 310              		.thumb_func
 312              	Verify_CRC16_Check_Sum:
 313              	.LVL34:
 314              	.LFB7:
 136:control-base/bsp/src/bsp_crc.c **** 
ARM GAS  /var/folders/sg/pxk9dyzj7jz_x3889hx3b3dw0000gn/T//ccn8YfzL.s 			page 9


 137:control-base/bsp/src/bsp_crc.c **** /*
 138:control-base/bsp/src/bsp_crc.c **** ** Descriptions: CRC16 Verify function
 139:control-base/bsp/src/bsp_crc.c **** ** Input: Data to Verify,Stream length = Data + checksum
 140:control-base/bsp/src/bsp_crc.c **** ** Output: True or False (CRC Verify Result)
 141:control-base/bsp/src/bsp_crc.c **** */
 142:control-base/bsp/src/bsp_crc.c **** uint32_t Verify_CRC16_Check_Sum(uint8_t *pchMessage, uint32_t dwLength)
 143:control-base/bsp/src/bsp_crc.c **** {
 315              		.loc 1 143 1 is_stmt 1 view -0
 316              		.cfi_startproc
 317              		@ args = 0, pretend = 0, frame = 0
 318              		@ frame_needed = 0, uses_anonymous_args = 0
 144:control-base/bsp/src/bsp_crc.c **** 	uint16_t wExpected = 0;
 319              		.loc 1 144 2 view .LVU72
 145:control-base/bsp/src/bsp_crc.c **** 	if ((pchMessage == NULL) || (dwLength <= 2))
 320              		.loc 1 145 2 view .LVU73
 321              		.loc 1 145 5 is_stmt 0 view .LVU74
 322 0000 D8B1     		cbz	r0, .L36
 143:control-base/bsp/src/bsp_crc.c **** 	uint16_t wExpected = 0;
 323              		.loc 1 143 1 view .LVU75
 324 0002 70B5     		push	{r4, r5, r6, lr}
 325              	.LCFI7:
 326              		.cfi_def_cfa_offset 16
 327              		.cfi_offset 4, -16
 328              		.cfi_offset 5, -12
 329              		.cfi_offset 6, -8
 330              		.cfi_offset 14, -4
 331 0004 0C46     		mov	r4, r1
 332 0006 0646     		mov	r6, r0
 333              		.loc 1 145 27 discriminator 1 view .LVU76
 334 0008 0229     		cmp	r1, #2
 335 000a 18D9     		bls	.L37
 146:control-base/bsp/src/bsp_crc.c **** 	{
 147:control-base/bsp/src/bsp_crc.c **** 		return false;
 148:control-base/bsp/src/bsp_crc.c **** 	}
 149:control-base/bsp/src/bsp_crc.c **** 	wExpected = Get_CRC16_Check_Sum ( pchMessage, dwLength - 2, CRC_INIT);
 336              		.loc 1 149 2 is_stmt 1 view .LVU77
 337              		.loc 1 149 14 is_stmt 0 view .LVU78
 338 000c 8D1E     		subs	r5, r1, #2
 339 000e 0D4B     		ldr	r3, .L45
 340 0010 1A88     		ldrh	r2, [r3]
 341 0012 2946     		mov	r1, r5
 342              	.LVL35:
 343              		.loc 1 149 14 view .LVU79
 344 0014 FFF7FEFF 		bl	Get_CRC16_Check_Sum
 345              	.LVL36:
 150:control-base/bsp/src/bsp_crc.c **** 	return ((wExpected & 0xff) == pchMessage[dwLength - 2] && ((wExpected >> 8) & 0xff) == pchMessage[
 346              		.loc 1 150 2 is_stmt 1 view .LVU80
 347              		.loc 1 150 42 is_stmt 0 view .LVU81
 348 0018 725D     		ldrb	r2, [r6, r5]	@ zero_extendqisi2
 349              		.loc 1 150 57 view .LVU82
 350 001a C3B2     		uxtb	r3, r0
 351 001c 9A42     		cmp	r2, r3
 352 001e 01D0     		beq	.L44
 353              		.loc 1 150 57 discriminator 4 view .LVU83
 354 0020 0020     		movs	r0, #0
 355              	.LVL37:
 356              	.L33:
ARM GAS  /var/folders/sg/pxk9dyzj7jz_x3889hx3b3dw0000gn/T//ccn8YfzL.s 			page 10


 151:control-base/bsp/src/bsp_crc.c **** }
 357              		.loc 1 151 1 view .LVU84
 358 0022 70BD     		pop	{r4, r5, r6, pc}
 359              	.LVL38:
 360              	.L44:
 150:control-base/bsp/src/bsp_crc.c **** 	return ((wExpected & 0xff) == pchMessage[dwLength - 2] && ((wExpected >> 8) & 0xff) == pchMessage[
 361              		.loc 1 150 78 discriminator 1 view .LVU85
 362 0024 C0F30F20 		ubfx	r0, r0, #8, #16
 363              	.LVL39:
 150:control-base/bsp/src/bsp_crc.c **** 	return ((wExpected & 0xff) == pchMessage[dwLength - 2] && ((wExpected >> 8) & 0xff) == pchMessage[
 364              		.loc 1 150 99 discriminator 1 view .LVU86
 365 0028 3319     		adds	r3, r6, r4
 366 002a 13F8013C 		ldrb	r3, [r3, #-1]	@ zero_extendqisi2
 150:control-base/bsp/src/bsp_crc.c **** 	return ((wExpected & 0xff) == pchMessage[dwLength - 2] && ((wExpected >> 8) & 0xff) == pchMessage[
 367              		.loc 1 150 57 discriminator 1 view .LVU87
 368 002e 9842     		cmp	r0, r3
 369 0030 01D0     		beq	.L39
 150:control-base/bsp/src/bsp_crc.c **** 	return ((wExpected & 0xff) == pchMessage[dwLength - 2] && ((wExpected >> 8) & 0xff) == pchMessage[
 370              		.loc 1 150 57 discriminator 4 view .LVU88
 371 0032 0020     		movs	r0, #0
 372 0034 F5E7     		b	.L33
 373              	.L39:
 150:control-base/bsp/src/bsp_crc.c **** 	return ((wExpected & 0xff) == pchMessage[dwLength - 2] && ((wExpected >> 8) & 0xff) == pchMessage[
 374              		.loc 1 150 57 discriminator 3 view .LVU89
 375 0036 0120     		movs	r0, #1
 150:control-base/bsp/src/bsp_crc.c **** 	return ((wExpected & 0xff) == pchMessage[dwLength - 2] && ((wExpected >> 8) & 0xff) == pchMessage[
 376              		.loc 1 150 57 view .LVU90
 377 0038 F3E7     		b	.L33
 378              	.LVL40:
 379              	.L36:
 380              	.LCFI8:
 381              		.cfi_def_cfa_offset 0
 382              		.cfi_restore 4
 383              		.cfi_restore 5
 384              		.cfi_restore 6
 385              		.cfi_restore 14
 147:control-base/bsp/src/bsp_crc.c **** 	}
 386              		.loc 1 147 10 view .LVU91
 387 003a 0020     		movs	r0, #0
 388              	.LVL41:
 389              		.loc 1 151 1 view .LVU92
 390 003c 7047     		bx	lr
 391              	.LVL42:
 392              	.L37:
 393              	.LCFI9:
 394              		.cfi_def_cfa_offset 16
 395              		.cfi_offset 4, -16
 396              		.cfi_offset 5, -12
 397              		.cfi_offset 6, -8
 398              		.cfi_offset 14, -4
 147:control-base/bsp/src/bsp_crc.c **** 	}
 399              		.loc 1 147 10 view .LVU93
 400 003e 0020     		movs	r0, #0
 401              	.LVL43:
 147:control-base/bsp/src/bsp_crc.c **** 	}
 402              		.loc 1 147 10 view .LVU94
 403 0040 EFE7     		b	.L33
ARM GAS  /var/folders/sg/pxk9dyzj7jz_x3889hx3b3dw0000gn/T//ccn8YfzL.s 			page 11


 404              	.L46:
 405 0042 00BF     		.align	2
 406              	.L45:
 407 0044 00000000 		.word	CRC_INIT
 408              		.cfi_endproc
 409              	.LFE7:
 411              		.section	.text.Append_CRC16_Check_Sum,"ax",%progbits
 412              		.align	1
 413              		.global	Append_CRC16_Check_Sum
 414              		.syntax unified
 415              		.thumb
 416              		.thumb_func
 418              	Append_CRC16_Check_Sum:
 419              	.LVL44:
 420              	.LFB8:
 152:control-base/bsp/src/bsp_crc.c **** 
 153:control-base/bsp/src/bsp_crc.c **** /*
 154:control-base/bsp/src/bsp_crc.c **** ** Descriptions: append CRC16 to the end of data
 155:control-base/bsp/src/bsp_crc.c **** ** Input: Data to CRC and append,Stream length = Data + checksum
 156:control-base/bsp/src/bsp_crc.c **** ** Output: True or False (CRC Verify Result)
 157:control-base/bsp/src/bsp_crc.c **** */
 158:control-base/bsp/src/bsp_crc.c **** void Append_CRC16_Check_Sum(uint8_t * pchMessage,uint32_t dwLength)
 159:control-base/bsp/src/bsp_crc.c **** {
 421              		.loc 1 159 1 is_stmt 1 view -0
 422              		.cfi_startproc
 423              		@ args = 0, pretend = 0, frame = 0
 424              		@ frame_needed = 0, uses_anonymous_args = 0
 160:control-base/bsp/src/bsp_crc.c **** 	uint16_t wCRC = 0;
 425              		.loc 1 160 2 view .LVU96
 161:control-base/bsp/src/bsp_crc.c **** 	if ((pchMessage == NULL) || (dwLength <= 2))
 426              		.loc 1 161 2 view .LVU97
 427              		.loc 1 161 5 is_stmt 0 view .LVU98
 428 0000 80B1     		cbz	r0, .L50
 159:control-base/bsp/src/bsp_crc.c **** 	uint16_t wCRC = 0;
 429              		.loc 1 159 1 view .LVU99
 430 0002 70B5     		push	{r4, r5, r6, lr}
 431              	.LCFI10:
 432              		.cfi_def_cfa_offset 16
 433              		.cfi_offset 4, -16
 434              		.cfi_offset 5, -12
 435              		.cfi_offset 6, -8
 436              		.cfi_offset 14, -4
 437 0004 0C46     		mov	r4, r1
 438 0006 0546     		mov	r5, r0
 439              		.loc 1 161 27 discriminator 1 view .LVU100
 440 0008 0229     		cmp	r1, #2
 441 000a 0AD9     		bls	.L47
 162:control-base/bsp/src/bsp_crc.c **** 	{
 163:control-base/bsp/src/bsp_crc.c **** 		return;
 164:control-base/bsp/src/bsp_crc.c **** 	}
 165:control-base/bsp/src/bsp_crc.c **** 	wCRC = Get_CRC16_Check_Sum ((uint8_t *)pchMessage, dwLength-2, CRC_INIT );
 442              		.loc 1 165 2 is_stmt 1 view .LVU101
 443              		.loc 1 165 9 is_stmt 0 view .LVU102
 444 000c 8E1E     		subs	r6, r1, #2
 445 000e 064B     		ldr	r3, .L53
 446 0010 1A88     		ldrh	r2, [r3]
 447 0012 3146     		mov	r1, r6
ARM GAS  /var/folders/sg/pxk9dyzj7jz_x3889hx3b3dw0000gn/T//ccn8YfzL.s 			page 12


 448              	.LVL45:
 449              		.loc 1 165 9 view .LVU103
 450 0014 FFF7FEFF 		bl	Get_CRC16_Check_Sum
 451              	.LVL46:
 166:control-base/bsp/src/bsp_crc.c **** 	pchMessage[dwLength-2] = (uint8_t)(wCRC & 0x00ff);
 452              		.loc 1 166 2 is_stmt 1 view .LVU104
 453              		.loc 1 166 25 is_stmt 0 view .LVU105
 454 0018 A855     		strb	r0, [r5, r6]
 167:control-base/bsp/src/bsp_crc.c **** 	pchMessage[dwLength-1] = (uint8_t)((wCRC >> 8)& 0x00ff);
 455              		.loc 1 167 2 is_stmt 1 view .LVU106
 456              		.loc 1 167 12 is_stmt 0 view .LVU107
 457 001a 013C     		subs	r4, r4, #1
 458              	.LVL47:
 459              		.loc 1 167 27 view .LVU108
 460 001c C0F30720 		ubfx	r0, r0, #8, #8
 461              	.LVL48:
 462              		.loc 1 167 25 view .LVU109
 463 0020 2855     		strb	r0, [r5, r4]
 464              	.LVL49:
 465              	.L47:
 168:control-base/bsp/src/bsp_crc.c **** }...
 466              		.loc 1 168 1 view .LVU110
 467 0022 70BD     		pop	{r4, r5, r6, pc}
 468              	.LVL50:
 469              	.L50:
 470              	.LCFI11:
 471              		.cfi_def_cfa_offset 0
 472              		.cfi_restore 4
 473              		.cfi_restore 5
 474              		.cfi_restore 6
 475              		.cfi_restore 14
 476              		.loc 1 168 1 view .LVU111
 477 0024 7047     		bx	lr
 478              	.L54:
 479 0026 00BF     		.align	2
 480              	.L53:
 481 0028 00000000 		.word	CRC_INIT
 482              		.cfi_endproc
 483              	.LFE8:
 485              		.global	wCRC_Table
 486              		.section	.rodata.wCRC_Table,"a"
 487              		.align	2
 490              	wCRC_Table:
 491 0000 0000     		.short	0
 492 0002 8911     		.short	4489
 493 0004 1223     		.short	8978
 494 0006 9B32     		.short	12955
 495 0008 2446     		.short	17956
 496 000a AD57     		.short	22445
 497 000c 3665     		.short	25910
 498 000e BF74     		.short	29887
 499 0010 488C     		.short	-29624
 500 0012 C19D     		.short	-25151
 501 0014 5AAF     		.short	-20646
 502 0016 D3BE     		.short	-16685
 503 0018 6CCA     		.short	-13716
 504 001a E5DB     		.short	-9243
ARM GAS  /var/folders/sg/pxk9dyzj7jz_x3889hx3b3dw0000gn/T//ccn8YfzL.s 			page 13


 505 001c 7EE9     		.short	-5762
 506 001e F7F8     		.short	-1801
 507 0020 8110     		.short	4225
 508 0022 0801     		.short	264
 509 0024 9333     		.short	13203
 510 0026 1A22     		.short	8730
 511 0028 A556     		.short	22181
 512 002a 2C47     		.short	18220
 513 002c B775     		.short	30135
 514 002e 3E64     		.short	25662
 515 0030 C99C     		.short	-25399
 516 0032 408D     		.short	-29376
 517 0034 DBBF     		.short	-16421
 518 0036 52AE     		.short	-20910
 519 0038 EDDA     		.short	-9491
 520 003a 64CB     		.short	-13468
 521 003c FFF9     		.short	-1537
 522 003e 76E8     		.short	-6026
 523 0040 0221     		.short	8450
 524 0042 8B30     		.short	12427
 525 0044 1002     		.short	528
 526 0046 9913     		.short	5017
 527 0048 2667     		.short	26406
 528 004a AF76     		.short	30383
 529 004c 3444     		.short	17460
 530 004e BD55     		.short	21949
 531 0050 4AAD     		.short	-21174
 532 0052 C3BC     		.short	-17213
 533 0054 588E     		.short	-29096
 534 0056 D19F     		.short	-24623
 535 0058 6EEB     		.short	-5266
 536 005a E7FA     		.short	-1305
 537 005c 7CC8     		.short	-14212
 538 005e F5D9     		.short	-9739
 539 0060 8331     		.short	12675
 540 0062 0A20     		.short	8202
 541 0064 9112     		.short	4753
 542 0066 1803     		.short	792
 543 0068 A777     		.short	30631
 544 006a 2E66     		.short	26158
 545 006c B554     		.short	21685
 546 006e 3C45     		.short	17724
 547 0070 CBBD     		.short	-16949
 548 0072 42AC     		.short	-21438
 549 0074 D99E     		.short	-24871
 550 0076 508F     		.short	-28848
 551 0078 EFFB     		.short	-1041
 552 007a 66EA     		.short	-5530
 553 007c FDD8     		.short	-9987
 554 007e 74C9     		.short	-13964
 555 0080 0442     		.short	16900
 556 0082 8D53     		.short	21389
 557 0084 1661     		.short	24854
 558 0086 9F70     		.short	28831
 559 0088 2004     		.short	1056
 560 008a A915     		.short	5545
 561 008c 3227     		.short	10034
ARM GAS  /var/folders/sg/pxk9dyzj7jz_x3889hx3b3dw0000gn/T//ccn8YfzL.s 			page 14


 562 008e BB36     		.short	14011
 563 0090 4CCE     		.short	-12724
 564 0092 C5DF     		.short	-8251
 565 0094 5EED     		.short	-4770
 566 0096 D7FC     		.short	-809
 567 0098 6888     		.short	-30616
 568 009a E199     		.short	-26143
 569 009c 7AAB     		.short	-21638
 570 009e F3BA     		.short	-17677
 571 00a0 8552     		.short	21125
 572 00a2 0C43     		.short	17164
 573 00a4 9771     		.short	29079
 574 00a6 1E60     		.short	24606
 575 00a8 A114     		.short	5281
 576 00aa 2805     		.short	1320
 577 00ac B337     		.short	14259
 578 00ae 3A26     		.short	9786
 579 00b0 CDDE     		.short	-8499
 580 00b2 44CF     		.short	-12476
 581 00b4 DFFD     		.short	-545
 582 00b6 56EC     		.short	-5034
 583 00b8 E998     		.short	-26391
 584 00ba 6089     		.short	-30368
 585 00bc FBBB     		.short	-17413
 586 00be 72AA     		.short	-21902
 587 00c0 0663     		.short	25350
 588 00c2 8F72     		.short	29327
 589 00c4 1440     		.short	16404
 590 00c6 9D51     		.short	20893
 591 00c8 2225     		.short	9506
 592 00ca AB34     		.short	13483
 593 00cc 3006     		.short	1584
 594 00ce B917     		.short	6073
 595 00d0 4EEF     		.short	-4274
 596 00d2 C7FE     		.short	-313
 597 00d4 5CCC     		.short	-13220
 598 00d6 D5DD     		.short	-8747
 599 00d8 6AA9     		.short	-22166
 600 00da E3B8     		.short	-18205
 601 00dc 788A     		.short	-30088
 602 00de F19B     		.short	-25615
 603 00e0 8773     		.short	29575
 604 00e2 0E62     		.short	25102
 605 00e4 9550     		.short	20629
 606 00e6 1C41     		.short	16668
 607 00e8 A335     		.short	13731
 608 00ea 2A24     		.short	9258
 609 00ec B116     		.short	5809
 610 00ee 3807     		.short	1848
 611 00f0 CFFF     		.short	-49
 612 00f2 46EE     		.short	-4538
 613 00f4 DDDC     		.short	-8995
 614 00f6 54CD     		.short	-12972
 615 00f8 EBB9     		.short	-17941
 616 00fa 62A8     		.short	-22430
 617 00fc F99A     		.short	-25863
 618 00fe 708B     		.short	-29840
ARM GAS  /var/folders/sg/pxk9dyzj7jz_x3889hx3b3dw0000gn/T//ccn8YfzL.s 			page 15


 619 0100 0884     		.short	-31736
 620 0102 8195     		.short	-27263
 621 0104 1AA7     		.short	-22758
 622 0106 93B6     		.short	-18797
 623 0108 2CC2     		.short	-15828
 624 010a A5D3     		.short	-11355
 625 010c 3EE1     		.short	-7874
 626 010e B7F0     		.short	-3913
 627 0110 4008     		.short	2112
 628 0112 C919     		.short	6601
 629 0114 522B     		.short	11090
 630 0116 DB3A     		.short	15067
 631 0118 644E     		.short	20068
 632 011a ED5F     		.short	24557
 633 011c 766D     		.short	28022
 634 011e FF7C     		.short	31999
 635 0120 8994     		.short	-27511
 636 0122 0085     		.short	-31488
 637 0124 9BB7     		.short	-18533
 638 0126 12A6     		.short	-23022
 639 0128 ADD2     		.short	-11603
 640 012a 24C3     		.short	-15580
 641 012c BFF1     		.short	-3649
 642 012e 36E0     		.short	-8138
 643 0130 C118     		.short	6337
 644 0132 4809     		.short	2376
 645 0134 D33B     		.short	15315
 646 0136 5A2A     		.short	10842
 647 0138 E55E     		.short	24293
 648 013a 6C4F     		.short	20332
 649 013c F77D     		.short	32247
 650 013e 7E6C     		.short	27774
 651 0140 0AA5     		.short	-23286
 652 0142 83B4     		.short	-19325
 653 0144 1886     		.short	-31208
 654 0146 9197     		.short	-26735
 655 0148 2EE3     		.short	-7378
 656 014a A7F2     		.short	-3417
 657 014c 3CC0     		.short	-16324
 658 014e B5D1     		.short	-11851
 659 0150 4229     		.short	10562
 660 0152 CB38     		.short	14539
 661 0154 500A     		.short	2640
 662 0156 D91B     		.short	7129
 663 0158 666F     		.short	28518
 664 015a EF7E     		.short	32495
 665 015c 744C     		.short	19572
 666 015e FD5D     		.short	24061
 667 0160 8BB5     		.short	-19061
 668 0162 02A4     		.short	-23550
 669 0164 9996     		.short	-26983
 670 0166 1087     		.short	-30960
 671 0168 AFF3     		.short	-3153
 672 016a 26E2     		.short	-7642
 673 016c BDD0     		.short	-12099
 674 016e 34C1     		.short	-16076
 675 0170 C339     		.short	14787
ARM GAS  /var/folders/sg/pxk9dyzj7jz_x3889hx3b3dw0000gn/T//ccn8YfzL.s 			page 16


 676 0172 4A28     		.short	10314
 677 0174 D11A     		.short	6865
 678 0176 580B     		.short	2904
 679 0178 E77F     		.short	32743
 680 017a 6E6E     		.short	28270
 681 017c F55C     		.short	23797
 682 017e 7C4D     		.short	19836
 683 0180 0CC6     		.short	-14836
 684 0182 85D7     		.short	-10363
 685 0184 1EE5     		.short	-6882
 686 0186 97F4     		.short	-2921
 687 0188 2880     		.short	-32728
 688 018a A191     		.short	-28255
 689 018c 3AA3     		.short	-23750
 690 018e B3B2     		.short	-19789
 691 0190 444A     		.short	19012
 692 0192 CD5B     		.short	23501
 693 0194 5669     		.short	26966
 694 0196 DF78     		.short	30943
 695 0198 600C     		.short	3168
 696 019a E91D     		.short	7657
 697 019c 722F     		.short	12146
 698 019e FB3E     		.short	16123
 699 01a0 8DD6     		.short	-10611
 700 01a2 04C7     		.short	-14588
 701 01a4 9FF5     		.short	-2657
 702 01a6 16E4     		.short	-7146
 703 01a8 A990     		.short	-28503
 704 01aa 2081     		.short	-32480
 705 01ac BBB3     		.short	-19525
 706 01ae 32A2     		.short	-24014
 707 01b0 C55A     		.short	23237
 708 01b2 4C4B     		.short	19276
 709 01b4 D779     		.short	31191
 710 01b6 5E68     		.short	26718
 711 01b8 E11C     		.short	7393
 712 01ba 680D     		.short	3432
 713 01bc F33F     		.short	16371
 714 01be 7A2E     		.short	11898
 715 01c0 0EE7     		.short	-6386
 716 01c2 87F6     		.short	-2425
 717 01c4 1CC4     		.short	-15332
 718 01c6 95D5     		.short	-10859
 719 01c8 2AA1     		.short	-24278
 720 01ca A3B0     		.short	-20317
 721 01cc 3882     		.short	-32200
 722 01ce B193     		.short	-27727
 723 01d0 466B     		.short	27462
 724 01d2 CF7A     		.short	31439
 725 01d4 5448     		.short	18516
 726 01d6 DD59     		.short	23005
 727 01d8 622D     		.short	11618
 728 01da EB3C     		.short	15595
 729 01dc 700E     		.short	3696
 730 01de F91F     		.short	8185
 731 01e0 8FF7     		.short	-2161
 732 01e2 06E6     		.short	-6650
ARM GAS  /var/folders/sg/pxk9dyzj7jz_x3889hx3b3dw0000gn/T//ccn8YfzL.s 			page 17


 733 01e4 9DD4     		.short	-11107
 734 01e6 14C5     		.short	-15084
 735 01e8 ABB1     		.short	-20053
 736 01ea 22A0     		.short	-24542
 737 01ec B992     		.short	-27975
 738 01ee 3083     		.short	-31952
 739 01f0 C77B     		.short	31687
 740 01f2 4E6A     		.short	27214
 741 01f4 D558     		.short	22741
 742 01f6 5C49     		.short	18780
 743 01f8 E33D     		.short	15843
 744 01fa 6A2C     		.short	11370
 745 01fc F11E     		.short	7921
 746 01fe 780F     		.short	3960
 747              		.global	CRC_INIT
 748              		.section	.data.CRC_INIT,"aw"
 749              		.align	1
 752              	CRC_INIT:
 753 0000 FFFF     		.short	-1
 754              		.global	CRC8_TAB
 755              		.section	.rodata.CRC8_TAB,"a"
 756              		.align	2
 759              	CRC8_TAB:
 760 0000 005EBCE2 		.ascii	"\000^\274\342a?\335\203\302\234~ \243\375\037A\235\303"
 760      613FDD83 
 760      C29C7E20 
 760      A3FD1F41 
 760      9DC3
 761 0012 217FFCA2 		.ascii	"!\177\374\242@\036_\001\343\275>`\202\334#}\237\301"
 761      401E5F01 
 761      E3BD3E60 
 761      82DC237D 
 761      9FC1
 762 0024 421CFEA0 		.ascii	"B\034\376\240\341\277]\003\200\336<b\276\340\002\\\337"
 762      E1BF5D03 
 762      80DE3C62 
 762      BEE0025C 
 762      DF
 763 0035 81633D7C 		.ascii	"\201c=|\"\300\236\035C\241\377F\030\372\244'y\233\305"
 763      22C09E1D 
 763      43A1FF46 
 763      18FAA427 
 763      799BC5
 764 0048 84DA3866 		.ascii	"\204\3328f\345\273Y\007\333\205g9\272\344\006X\031G"
 764      E5BB5907 
 764      DB856739 
 764      BAE40658 
 764      1947
 765 005a A5FB7826 		.ascii	"\245\373x&\304\232e;\331\207\004Z\270\346\247\371\033"
 765      C49A653B 
 765      D987045A 
 765      B8E6A7F9 
 765      1B
 766 006b 45C6987A 		.ascii	"E\306\230z$\370\246D\032\231\307%{:d\206\330[\005\347"
 766      24F8A644 
 766      1A99C725 
 766      7B3A6486 
ARM GAS  /var/folders/sg/pxk9dyzj7jz_x3889hx3b3dw0000gn/T//ccn8YfzL.s 			page 18


 766      D85B05E7 
 767 007f B98CD230 		.ascii	"\271\214\3220n\355\263Q\017N\020\362\254/q\223\315\021"
 767      6EEDB351 
 767      0F4E10F2 
 767      AC2F7193 
 767      CD11
 768 0091 4FADF370 		.ascii	"O\255\363p.\314\222\323\215o1\262\354\016P\257\361\023"
 768      2ECC92D3 
 768      8D6F31B2 
 768      EC0E50AF 
 768      F113
 769 00a3 4DCE9072 		.ascii	"M\316\220r,m3\321\217\014R\260\3562l\216\320S\015\357"
 769      2C6D33D1 
 769      8F0C52B0 
 769      EE326C8E 
 769      D0530DEF 
 770 00b7 B1F0AE4C 		.ascii	"\261\360\256L\022\221\317-s\312\224v(\253\365\027I\010"
 770      1291CF2D 
 770      73CA9476 
 770      28ABF517 
 770      4908
 771 00c9 56B4EA69 		.ascii	"V\264\352i7\325\213W\011\353\2656h\212\324\225\313)"
 771      37D58B57 
 771      09EBB536 
 771      688AD495 
 771      CB29
 772 00db 77F4AA48 		.ascii	"w\364\252H\026\351\267U\013\210\3264j+u\227\311J\024"
 772      16E9B755 
 772      0B88D634 
 772      6A2B7597 
 772      C94A14
 773 00ee F6A8742A 		.ascii	"\366\250t*\310\226\025K\251\367\266\350\012T\327\211"
 773      C896154B 
 773      A9F7B6E8 
 773      0A54D789 
 774 00fe 6B35     		.ascii	"k5"
 775              		.global	CRC8_INIT
 776              		.section	.rodata.CRC8_INIT,"a"
 779              	CRC8_INIT:
 780 0000 FF       		.byte	-1
 781              		.text
 782              	.Letext0:
 783              		.file 2 "/Applications/ArmGNUToolchain/14.3.rel1/arm-none-eabi/arm-none-eabi/include/machine/_defa
 784              		.file 3 "/Applications/ArmGNUToolchain/14.3.rel1/arm-none-eabi/arm-none-eabi/include/sys/_stdint.h
ARM GAS  /var/folders/sg/pxk9dyzj7jz_x3889hx3b3dw0000gn/T//ccn8YfzL.s 			page 19

