ARM GAS  /var/folders/sg/pxk9dyzj7jz_x3889hx3b3dw0000gn/T//ccr4bVx0.s 			page 1


   1              		.cpu cortex-m4
   2              		.arch armv7e-m
   3              		.fpu fpv4-sp-d16
   4              		.eabi_attribute 27, 1
   5              		.eabi_attribute 28, 1
   6              		.eabi_attribute 20, 1
   7              		.eabi_attribute 21, 1
   8              		.eabi_attribute 23, 3
   9              		.eabi_attribute 24, 1
  10              		.eabi_attribute 25, 1
  11              		.eabi_attribute 26, 1
  12              		.eabi_attribute 30, 1
  13              		.eabi_attribute 34, 1
  14              		.eabi_attribute 18, 4
  15              		.file	"buzzer.c"
  16              		.text
  17              	.Ltext0:
  18              		.cfi_sections	.debug_frame
  19              		.file 1 "control-base/devices/src/buzzer.c"
  20              		.section	.text.Buzzer_Init,"ax",%progbits
  21              		.align	1
  22              		.global	Buzzer_Init
  23              		.syntax unified
  24              		.thumb
  25              		.thumb_func
  27              	Buzzer_Init:
  28              	.LFB134:
   1:control-base/devices/src/buzzer.c **** #include "buzzer.h"
   2:control-base/devices/src/buzzer.c **** 
   3:control-base/devices/src/buzzer.c **** #define MAX_BUZZER_NUM (1)
   4:control-base/devices/src/buzzer.c **** Buzzzer_Instance_t g_buzzer;
   5:control-base/devices/src/buzzer.c **** PWM_Instance_t *g_buzzer_uart_ptr;
   6:control-base/devices/src/buzzer.c **** uint8_t g_buzzer_count = 0;
   7:control-base/devices/src/buzzer.c **** 
   8:control-base/devices/src/buzzer.c **** void Buzzer_Init()
   9:control-base/devices/src/buzzer.c **** {
  29              		.loc 1 9 1 view -0
  30              		.cfi_startproc
  31              		@ args = 0, pretend = 0, frame = 24
  32              		@ frame_needed = 0, uses_anonymous_args = 0
  33 0000 00B5     		push	{lr}
  34              	.LCFI0:
  35              		.cfi_def_cfa_offset 4
  36              		.cfi_offset 14, -4
  37 0002 87B0     		sub	sp, sp, #28
  38              	.LCFI1:
  39              		.cfi_def_cfa_offset 32
  10:control-base/devices/src/buzzer.c ****     PWM_Config_t buzzer_config = {
  40              		.loc 1 10 5 view .LVU1
  41              		.loc 1 10 18 is_stmt 0 view .LVU2
  42 0004 01A8     		add	r0, sp, #4
  43 0006 0023     		movs	r3, #0
  44 0008 0193     		str	r3, [sp, #4]
  45 000a 4360     		str	r3, [r0, #4]
  46 000c 8360     		str	r3, [r0, #8]
  47 000e C360     		str	r3, [r0, #12]
  48 0010 0361     		str	r3, [r0, #16]
ARM GAS  /var/folders/sg/pxk9dyzj7jz_x3889hx3b3dw0000gn/T//ccr4bVx0.s 			page 2


  49 0012 064B     		ldr	r3, .L3
  50 0014 0193     		str	r3, [sp, #4]
  51 0016 0823     		movs	r3, #8
  52 0018 0293     		str	r3, [sp, #8]
  53 001a 054B     		ldr	r3, .L3+4
  54 001c 0393     		str	r3, [sp, #12]	@ float
  11:control-base/devices/src/buzzer.c ****         .htim = &htim4,
  12:control-base/devices/src/buzzer.c ****         .channel = TIM_CHANNEL_3,
  13:control-base/devices/src/buzzer.c ****         .dutyratio = 0,
  14:control-base/devices/src/buzzer.c ****         .period = 0.001,
  15:control-base/devices/src/buzzer.c ****     };
  16:control-base/devices/src/buzzer.c ****     g_buzzer_uart_ptr = PWM_Register(&buzzer_config);
  55              		.loc 1 16 5 is_stmt 1 view .LVU3
  56              		.loc 1 16 25 is_stmt 0 view .LVU4
  57 001e FFF7FEFF 		bl	PWM_Register
  58              	.LVL0:
  59              		.loc 1 16 23 discriminator 1 view .LVU5
  60 0022 044B     		ldr	r3, .L3+8
  61 0024 1860     		str	r0, [r3]
  17:control-base/devices/src/buzzer.c **** }
  62              		.loc 1 17 1 view .LVU6
  63 0026 07B0     		add	sp, sp, #28
  64              	.LCFI2:
  65              		.cfi_def_cfa_offset 4
  66              		@ sp needed
  67 0028 5DF804FB 		ldr	pc, [sp], #4
  68              	.L4:
  69              		.align	2
  70              	.L3:
  71 002c 00000000 		.word	htim4
  72 0030 6F12833A 		.word	981668463
  73 0034 00000000 		.word	g_buzzer_uart_ptr
  74              		.cfi_endproc
  75              	.LFE134:
  77              		.section	.text.Buzzer_Set_Loudness,"ax",%progbits
  78              		.align	1
  79              		.global	Buzzer_Set_Loudness
  80              		.syntax unified
  81              		.thumb
  82              		.thumb_func
  84              	Buzzer_Set_Loudness:
  85              	.LVL1:
  86              	.LFB135:
  18:control-base/devices/src/buzzer.c **** 
  19:control-base/devices/src/buzzer.c **** void Buzzer_Set_Loudness(Buzzzer_Instance_t *buzzer, float loudness)
  20:control-base/devices/src/buzzer.c **** {
  87              		.loc 1 20 1 is_stmt 1 view -0
  88              		.cfi_startproc
  89              		@ args = 0, pretend = 0, frame = 0
  90              		@ frame_needed = 0, uses_anonymous_args = 0
  91              		.loc 1 20 1 is_stmt 0 view .LVU8
  92 0000 08B5     		push	{r3, lr}
  93              	.LCFI3:
  94              		.cfi_def_cfa_offset 8
  95              		.cfi_offset 3, -8
  96              		.cfi_offset 14, -4
  21:control-base/devices/src/buzzer.c ****     buzzer->loudness = loudness;
ARM GAS  /var/folders/sg/pxk9dyzj7jz_x3889hx3b3dw0000gn/T//ccr4bVx0.s 			page 3


  97              		.loc 1 21 5 is_stmt 1 view .LVU9
  98              		.loc 1 21 22 is_stmt 0 view .LVU10
  99 0002 80ED010A 		vstr.32	s0, [r0, #4]
  22:control-base/devices/src/buzzer.c ****     PWM_Set_Duty_Ratio(g_buzzer_uart_ptr, buzzer->loudness);
 100              		.loc 1 22 5 is_stmt 1 view .LVU11
 101 0006 024B     		ldr	r3, .L7
 102 0008 1868     		ldr	r0, [r3]
 103              	.LVL2:
 104              		.loc 1 22 5 is_stmt 0 view .LVU12
 105 000a FFF7FEFF 		bl	PWM_Set_Duty_Ratio
 106              	.LVL3:
  23:control-base/devices/src/buzzer.c **** }
 107              		.loc 1 23 1 view .LVU13
 108 000e 08BD     		pop	{r3, pc}
 109              	.L8:
 110              		.align	2
 111              	.L7:
 112 0010 00000000 		.word	g_buzzer_uart_ptr
 113              		.cfi_endproc
 114              	.LFE135:
 116              		.section	.text.Buzzer_Set_Note,"ax",%progbits
 117              		.align	1
 118              		.global	Buzzer_Set_Note
 119              		.syntax unified
 120              		.thumb
 121              		.thumb_func
 123              	Buzzer_Set_Note:
 124              	.LVL4:
 125              	.LFB136:
  24:control-base/devices/src/buzzer.c **** 
  25:control-base/devices/src/buzzer.c **** void Buzzer_Set_Note(Buzzzer_Instance_t *buzzer)
  26:control-base/devices/src/buzzer.c **** {
 126              		.loc 1 26 1 is_stmt 1 view -0
 127              		.cfi_startproc
 128              		@ args = 0, pretend = 0, frame = 0
 129              		@ frame_needed = 0, uses_anonymous_args = 0
 130              		.loc 1 26 1 is_stmt 0 view .LVU15
 131 0000 38B5     		push	{r3, r4, r5, lr}
 132              	.LCFI4:
 133              		.cfi_def_cfa_offset 16
 134              		.cfi_offset 3, -16
 135              		.cfi_offset 4, -12
 136              		.cfi_offset 5, -8
 137              		.cfi_offset 14, -4
 138 0002 0446     		mov	r4, r0
  27:control-base/devices/src/buzzer.c ****     PWM_Set_Frequency(g_buzzer_uart_ptr, buzzer->frequency);
 139              		.loc 1 27 5 is_stmt 1 view .LVU16
 140              		.loc 1 27 48 is_stmt 0 view .LVU17
 141 0004 0388     		ldrh	r3, [r0]
 142 0006 00EE103A 		vmov	s0, r3	@ int
 143              		.loc 1 27 5 view .LVU18
 144 000a 064D     		ldr	r5, .L11
 145 000c B8EE400A 		vcvt.f32.u32	s0, s0
 146 0010 2868     		ldr	r0, [r5]
 147              	.LVL5:
 148              		.loc 1 27 5 view .LVU19
 149 0012 FFF7FEFF 		bl	PWM_Set_Frequency
ARM GAS  /var/folders/sg/pxk9dyzj7jz_x3889hx3b3dw0000gn/T//ccr4bVx0.s 			page 4


 150              	.LVL6:
  28:control-base/devices/src/buzzer.c ****     PWM_Set_Duty_Ratio(g_buzzer_uart_ptr, buzzer->loudness);
 151              		.loc 1 28 5 is_stmt 1 view .LVU20
 152 0016 94ED010A 		vldr.32	s0, [r4, #4]
 153 001a 2868     		ldr	r0, [r5]
 154 001c FFF7FEFF 		bl	PWM_Set_Duty_Ratio
 155              	.LVL7:
  29:control-base/devices/src/buzzer.c **** }
 156              		.loc 1 29 1 is_stmt 0 view .LVU21
 157 0020 38BD     		pop	{r3, r4, r5, pc}
 158              	.LVL8:
 159              	.L12:
 160              		.loc 1 29 1 view .LVU22
 161 0022 00BF     		.align	2
 162              	.L11:
 163 0024 00000000 		.word	g_buzzer_uart_ptr
 164              		.cfi_endproc
 165              	.LFE136:
 167              		.section	.text.Buzzer_Play_Melody,"ax",%progbits
 168              		.align	1
 169              		.global	Buzzer_Play_Melody
 170              		.syntax unified
 171              		.thumb
 172              		.thumb_func
 174              	Buzzer_Play_Melody:
 175              	.LFB137:
  30:control-base/devices/src/buzzer.c **** 
  31:control-base/devices/src/buzzer.c **** void Buzzer_Play_Melody(Melody_t melody)
  32:control-base/devices/src/buzzer.c **** {
 176              		.loc 1 32 1 is_stmt 1 view -0
 177              		.cfi_startproc
 178              		@ args = 408, pretend = 16, frame = 0
 179              		@ frame_needed = 0, uses_anonymous_args = 0
 180 0000 84B0     		sub	sp, sp, #16
 181              	.LCFI5:
 182              		.cfi_def_cfa_offset 16
 183 0002 10B5     		push	{r4, lr}
 184              	.LCFI6:
 185              		.cfi_def_cfa_offset 24
 186              		.cfi_offset 4, -24
 187              		.cfi_offset 14, -20
 188 0004 2DED028B 		vpush.64	{d8}
 189              	.LCFI7:
 190              		.cfi_def_cfa_offset 32
 191              		.cfi_offset 80, -32
 192              		.cfi_offset 81, -28
 193 0008 04AC     		add	r4, sp, #16
 194 000a 84E80F00 		stm	r4, {r0, r1, r2, r3}
  33:control-base/devices/src/buzzer.c ****     for (int i = 0; i < melody.note_num; i++)
 195              		.loc 1 33 5 view .LVU24
 196              	.LBB2:
 197              		.loc 1 33 10 view .LVU25
 198              	.LVL9:
 199              		.loc 1 33 14 is_stmt 0 view .LVU26
 200 000e 0024     		movs	r4, #0
 201              		.loc 1 33 5 view .LVU27
 202 0010 1DE0     		b	.L14
ARM GAS  /var/folders/sg/pxk9dyzj7jz_x3889hx3b3dw0000gn/T//ccr4bVx0.s 			page 5


 203              	.LVL10:
 204              	.L15:
  34:control-base/devices/src/buzzer.c ****     {
  35:control-base/devices/src/buzzer.c ****         g_buzzer.frequency = melody.notes[i][0];
  36:control-base/devices/src/buzzer.c ****         g_buzzer.loudness = melody.loudness;
  37:control-base/devices/src/buzzer.c ****         if (g_buzzer.frequency != 0) {
  38:control-base/devices/src/buzzer.c ****             Buzzer_Set_Note(&g_buzzer);
  39:control-base/devices/src/buzzer.c ****         }
  40:control-base/devices/src/buzzer.c ****         HAL_Delay((uint32_t)(melody.notes[i][1]));
 205              		.loc 1 40 9 is_stmt 1 view .LVU28
 206              		.loc 1 40 45 is_stmt 0 view .LVU29
 207 0012 04AB     		add	r3, sp, #16
 208 0014 03EBC403 		add	r3, r3, r4, lsl #3
 209 0018 93ED018A 		vldr.32	s16, [r3, #4]
 210              		.loc 1 40 9 view .LVU30
 211 001c FCEEC87A 		vcvt.u32.f32	s15, s16
 212 0020 17EE900A 		vmov	r0, s15	@ int
 213 0024 FFF7FEFF 		bl	HAL_Delay
 214              	.LVL11:
  41:control-base/devices/src/buzzer.c ****         Buzzer_Set_Loudness(&g_buzzer, 0);
 215              		.loc 1 41 9 is_stmt 1 view .LVU31
 216 0028 9FED1B0A 		vldr.32	s0, .L19+8
 217 002c 1B48     		ldr	r0, .L19+12
 218 002e FFF7FEFF 		bl	Buzzer_Set_Loudness
 219              	.LVL12:
  42:control-base/devices/src/buzzer.c ****         HAL_Delay((uint32_t)(melody.notes[i][1] * 0.3));
 220              		.loc 1 42 9 view .LVU32
 221              		.loc 1 42 45 is_stmt 0 view .LVU33
 222 0032 18EE100A 		vmov	r0, s16
 223 0036 FFF7FEFF 		bl	__aeabi_f2d
 224              	.LVL13:
 225              		.loc 1 42 49 view .LVU34
 226 003a 15A3     		adr	r3, .L19
 227 003c D3E90023 		ldrd	r2, [r3]
 228 0040 FFF7FEFF 		bl	__aeabi_dmul
 229              	.LVL14:
 230              		.loc 1 42 9 view .LVU35
 231 0044 FFF7FEFF 		bl	__aeabi_d2uiz
 232              	.LVL15:
 233 0048 FFF7FEFF 		bl	HAL_Delay
 234              	.LVL16:
  33:control-base/devices/src/buzzer.c ****     {
 235              		.loc 1 33 43 is_stmt 1 discriminator 2 view .LVU36
 236 004c 0134     		adds	r4, r4, #1
 237              	.LVL17:
 238              	.L14:
  33:control-base/devices/src/buzzer.c ****     {
 239              		.loc 1 33 23 discriminator 1 view .LVU37
  33:control-base/devices/src/buzzer.c ****     {
 240              		.loc 1 33 31 is_stmt 0 discriminator 1 view .LVU38
 241 004e BDF8A431 		ldrh	r3, [sp, #420]
  33:control-base/devices/src/buzzer.c ****     {
 242              		.loc 1 33 23 discriminator 1 view .LVU39
 243 0052 A342     		cmp	r3, r4
 244 0054 13DD     		ble	.L18
  35:control-base/devices/src/buzzer.c ****         g_buzzer.loudness = melody.loudness;
 245              		.loc 1 35 9 is_stmt 1 view .LVU40
ARM GAS  /var/folders/sg/pxk9dyzj7jz_x3889hx3b3dw0000gn/T//ccr4bVx0.s 			page 6


  35:control-base/devices/src/buzzer.c ****         g_buzzer.loudness = melody.loudness;
 246              		.loc 1 35 45 is_stmt 0 view .LVU41
 247 0056 04AB     		add	r3, sp, #16
 248 0058 03EBC403 		add	r3, r3, r4, lsl #3
 249 005c D3ED007A 		vldr.32	s15, [r3]
  35:control-base/devices/src/buzzer.c ****         g_buzzer.loudness = melody.loudness;
 250              		.loc 1 35 28 view .LVU42
 251 0060 FCEEE77A 		vcvt.u32.f32	s15, s15
 252 0064 17EE903A 		vmov	r3, s15	@ int
 253 0068 9BB2     		uxth	r3, r3
 254 006a 0C4A     		ldr	r2, .L19+12
 255 006c 1380     		strh	r3, [r2]	@ movhi
  36:control-base/devices/src/buzzer.c ****         if (g_buzzer.frequency != 0) {
 256              		.loc 1 36 9 is_stmt 1 view .LVU43
  36:control-base/devices/src/buzzer.c ****         if (g_buzzer.frequency != 0) {
 257              		.loc 1 36 35 is_stmt 0 view .LVU44
 258 006e 6899     		ldr	r1, [sp, #416]	@ float
  36:control-base/devices/src/buzzer.c ****         if (g_buzzer.frequency != 0) {
 259              		.loc 1 36 27 view .LVU45
 260 0070 5160     		str	r1, [r2, #4]	@ float
  37:control-base/devices/src/buzzer.c ****             Buzzer_Set_Note(&g_buzzer);
 261              		.loc 1 37 9 is_stmt 1 view .LVU46
  37:control-base/devices/src/buzzer.c ****             Buzzer_Set_Note(&g_buzzer);
 262              		.loc 1 37 12 is_stmt 0 view .LVU47
 263 0072 002B     		cmp	r3, #0
 264 0074 CDD0     		beq	.L15
  38:control-base/devices/src/buzzer.c ****         }
 265              		.loc 1 38 13 is_stmt 1 view .LVU48
 266 0076 1046     		mov	r0, r2
 267 0078 FFF7FEFF 		bl	Buzzer_Set_Note
 268              	.LVL18:
 269 007c C9E7     		b	.L15
 270              	.L18:
 271              	.LBE2:
  43:control-base/devices/src/buzzer.c ****     }
  44:control-base/devices/src/buzzer.c **** }
 272              		.loc 1 44 1 is_stmt 0 view .LVU49
 273 007e BDEC028B 		vldm	sp!, {d8}
 274              	.LCFI8:
 275              		.cfi_restore 80
 276              		.cfi_restore 81
 277              		.cfi_def_cfa_offset 24
 278 0082 BDE81040 		pop	{r4, lr}
 279              	.LCFI9:
 280              		.cfi_restore 14
 281              		.cfi_restore 4
 282              		.cfi_def_cfa_offset 16
 283              	.LVL19:
 284              		.loc 1 44 1 view .LVU50
 285 0086 04B0     		add	sp, sp, #16
 286              	.LCFI10:
 287              		.cfi_def_cfa_offset 0
 288 0088 7047     		bx	lr
 289              	.L20:
 290 008a 00BFAFF3 		.align	3
 290      0080
 291              	.L19:
ARM GAS  /var/folders/sg/pxk9dyzj7jz_x3889hx3b3dw0000gn/T//ccr4bVx0.s 			page 7


 292 0090 33333333 		.word	858993459
 293 0094 3333D33F 		.word	1070805811
 294 0098 00000000 		.word	0
 295 009c 00000000 		.word	g_buzzer
 296              		.cfi_endproc
 297              	.LFE137:
 299              		.global	g_buzzer_count
 300              		.section	.bss.g_buzzer_count,"aw",%nobits
 303              	g_buzzer_count:
 304 0000 00       		.space	1
 305              		.global	g_buzzer_uart_ptr
 306              		.section	.bss.g_buzzer_uart_ptr,"aw",%nobits
 307              		.align	2
 310              	g_buzzer_uart_ptr:
 311 0000 00000000 		.space	4
 312              		.global	g_buzzer
 313              		.section	.bss.g_buzzer,"aw",%nobits
 314              		.align	2
 317              	g_buzzer:
 318 0000 00000000 		.space	8
 318      00000000 
 319              		.text
 320              	.Letext0:
 321              		.file 2 "/Applications/ArmGNUToolchain/14.3.rel1/arm-none-eabi/arm-none-eabi/include/machine/_defa
 322              		.file 3 "/Applications/ArmGNUToolchain/14.3.rel1/arm-none-eabi/arm-none-eabi/include/sys/_stdint.h
 323              		.file 4 "control-base/typec-board-base/Drivers/CMSIS/Device/ST/STM32F4xx/Include/stm32f407xx.h"
 324              		.file 5 "control-base/typec-board-base/Drivers/STM32F4xx_HAL_Driver/Inc/stm32f4xx_hal_def.h"
 325              		.file 6 "control-base/typec-board-base/Drivers/STM32F4xx_HAL_Driver/Inc/stm32f4xx_hal_dma.h"
 326              		.file 7 "control-base/typec-board-base/Drivers/STM32F4xx_HAL_Driver/Inc/stm32f4xx_hal_tim.h"
 327              		.file 8 "control-base/bsp/inc/bsp_pwm.h"
 328              		.file 9 "control-base/devices/inc/buzzer.h"
 329              		.file 10 "control-base/typec-board-base/Core/Inc/tim.h"
 330              		.file 11 "control-base/typec-board-base/Drivers/STM32F4xx_HAL_Driver/Inc/stm32f4xx_hal.h"
ARM GAS  /var/folders/sg/pxk9dyzj7jz_x3889hx3b3dw0000gn/T//ccr4bVx0.s 			page 8

