ARM GAS  /var/folders/sg/pxk9dyzj7jz_x3889hx3b3dw0000gn/T//ccETsTGM.s 			page 1


   1              		.cpu cortex-m4
   2              		.arch armv7e-m
   3              		.fpu fpv4-sp-d16
   4              		.eabi_attribute 27, 1
   5              		.eabi_attribute 28, 1
   6              		.eabi_attribute 20, 1
   7              		.eabi_attribute 21, 1
   8              		.eabi_attribute 23, 3
   9              		.eabi_attribute 24, 1
  10              		.eabi_attribute 25, 1
  11              		.eabi_attribute 26, 1
  12              		.eabi_attribute 30, 1
  13              		.eabi_attribute 34, 1
  14              		.eabi_attribute 18, 4
  15              		.file	"freertos.c"
  16              		.text
  17              	.Ltext0:
  18              		.cfi_sections	.debug_frame
  19              		.file 1 "control-base/typec-board-base/Core/Src/freertos.c"
  20              		.section	.text.StartDefaultTask,"ax",%progbits
  21              		.align	1
  22              		.global	StartDefaultTask
  23              		.syntax unified
  24              		.thumb
  25              		.thumb_func
  27              	StartDefaultTask:
  28              	.LFB144:
   1:control-base/typec-board-base/Core/Src/freertos.c **** /* USER CODE BEGIN Header */
   2:control-base/typec-board-base/Core/Src/freertos.c **** /**
   3:control-base/typec-board-base/Core/Src/freertos.c ****  ******************************************************************************
   4:control-base/typec-board-base/Core/Src/freertos.c ****  * File Name          : freertos.c
   5:control-base/typec-board-base/Core/Src/freertos.c ****  * Description        : Code for freertos applications
   6:control-base/typec-board-base/Core/Src/freertos.c ****  ******************************************************************************
   7:control-base/typec-board-base/Core/Src/freertos.c ****  * @attention
   8:control-base/typec-board-base/Core/Src/freertos.c ****  *
   9:control-base/typec-board-base/Core/Src/freertos.c ****  * Copyright (c) 2023 STMicroelectronics.
  10:control-base/typec-board-base/Core/Src/freertos.c ****  * All rights reserved.
  11:control-base/typec-board-base/Core/Src/freertos.c ****  *
  12:control-base/typec-board-base/Core/Src/freertos.c ****  * This software is licensed under terms that can be found in the LICENSE file
  13:control-base/typec-board-base/Core/Src/freertos.c ****  * in the root directory of this software component.
  14:control-base/typec-board-base/Core/Src/freertos.c ****  * If no LICENSE file comes with this software, it is provided AS-IS.
  15:control-base/typec-board-base/Core/Src/freertos.c ****  *
  16:control-base/typec-board-base/Core/Src/freertos.c ****  ******************************************************************************
  17:control-base/typec-board-base/Core/Src/freertos.c ****  */
  18:control-base/typec-board-base/Core/Src/freertos.c **** /* USER CODE END Header */
  19:control-base/typec-board-base/Core/Src/freertos.c **** 
  20:control-base/typec-board-base/Core/Src/freertos.c **** /* Includes ------------------------------------------------------------------*/
  21:control-base/typec-board-base/Core/Src/freertos.c **** #include "FreeRTOS.h"
  22:control-base/typec-board-base/Core/Src/freertos.c **** #include "task.h"
  23:control-base/typec-board-base/Core/Src/freertos.c **** #include "main.h"
  24:control-base/typec-board-base/Core/Src/freertos.c **** #include "cmsis_os.h"
  25:control-base/typec-board-base/Core/Src/freertos.c **** 
  26:control-base/typec-board-base/Core/Src/freertos.c **** /* Private includes ----------------------------------------------------------*/
  27:control-base/typec-board-base/Core/Src/freertos.c **** /* USER CODE BEGIN Includes */
  28:control-base/typec-board-base/Core/Src/freertos.c **** #include "tim.h"
  29:control-base/typec-board-base/Core/Src/freertos.c **** /* USER CODE END Includes */
  30:control-base/typec-board-base/Core/Src/freertos.c **** 
ARM GAS  /var/folders/sg/pxk9dyzj7jz_x3889hx3b3dw0000gn/T//ccETsTGM.s 			page 2


  31:control-base/typec-board-base/Core/Src/freertos.c **** /* Private typedef -----------------------------------------------------------*/
  32:control-base/typec-board-base/Core/Src/freertos.c **** /* USER CODE BEGIN PTD */
  33:control-base/typec-board-base/Core/Src/freertos.c **** 
  34:control-base/typec-board-base/Core/Src/freertos.c **** /* USER CODE END PTD */
  35:control-base/typec-board-base/Core/Src/freertos.c **** 
  36:control-base/typec-board-base/Core/Src/freertos.c **** /* Private define ------------------------------------------------------------*/
  37:control-base/typec-board-base/Core/Src/freertos.c **** /* USER CODE BEGIN PD */
  38:control-base/typec-board-base/Core/Src/freertos.c **** 
  39:control-base/typec-board-base/Core/Src/freertos.c **** /* USER CODE END PD */
  40:control-base/typec-board-base/Core/Src/freertos.c **** 
  41:control-base/typec-board-base/Core/Src/freertos.c **** /* Private macro -------------------------------------------------------------*/
  42:control-base/typec-board-base/Core/Src/freertos.c **** /* USER CODE BEGIN PM */
  43:control-base/typec-board-base/Core/Src/freertos.c **** 
  44:control-base/typec-board-base/Core/Src/freertos.c **** /* USER CODE END PM */
  45:control-base/typec-board-base/Core/Src/freertos.c **** 
  46:control-base/typec-board-base/Core/Src/freertos.c **** /* Private variables ---------------------------------------------------------*/
  47:control-base/typec-board-base/Core/Src/freertos.c **** /* USER CODE BEGIN Variables */
  48:control-base/typec-board-base/Core/Src/freertos.c **** osThreadId imu_TaskHandle;
  49:control-base/typec-board-base/Core/Src/freertos.c **** /* USER CODE END Variables */
  50:control-base/typec-board-base/Core/Src/freertos.c **** osThreadId defaultTaskHandle;
  51:control-base/typec-board-base/Core/Src/freertos.c **** 
  52:control-base/typec-board-base/Core/Src/freertos.c **** /* Private function prototypes -----------------------------------------------*/
  53:control-base/typec-board-base/Core/Src/freertos.c **** /* USER CODE BEGIN FunctionPrototypes */
  54:control-base/typec-board-base/Core/Src/freertos.c **** void Global_Init(void);
  55:control-base/typec-board-base/Core/Src/freertos.c **** /* USER CODE END FunctionPrototypes */
  56:control-base/typec-board-base/Core/Src/freertos.c **** 
  57:control-base/typec-board-base/Core/Src/freertos.c **** void StartDefaultTask(void const * argument);
  58:control-base/typec-board-base/Core/Src/freertos.c **** 
  59:control-base/typec-board-base/Core/Src/freertos.c **** void MX_FREERTOS_Init(void); /* (MISRA C 2004 rule 8.1) */
  60:control-base/typec-board-base/Core/Src/freertos.c **** 
  61:control-base/typec-board-base/Core/Src/freertos.c **** /* GetIdleTaskMemory prototype (linked to static allocation support) */
  62:control-base/typec-board-base/Core/Src/freertos.c **** void vApplicationGetIdleTaskMemory( StaticTask_t **ppxIdleTaskTCBBuffer, StackType_t **ppxIdleTaskS
  63:control-base/typec-board-base/Core/Src/freertos.c **** 
  64:control-base/typec-board-base/Core/Src/freertos.c **** /* GetTimerTaskMemory prototype (linked to static allocation support) */
  65:control-base/typec-board-base/Core/Src/freertos.c **** void vApplicationGetTimerTaskMemory( StaticTask_t **ppxTimerTaskTCBBuffer, StackType_t **ppxTimerTa
  66:control-base/typec-board-base/Core/Src/freertos.c **** 
  67:control-base/typec-board-base/Core/Src/freertos.c **** /* Hook prototypes */
  68:control-base/typec-board-base/Core/Src/freertos.c **** void configureTimerForRunTimeStats(void);
  69:control-base/typec-board-base/Core/Src/freertos.c **** unsigned long getRunTimeCounterValue(void);
  70:control-base/typec-board-base/Core/Src/freertos.c **** 
  71:control-base/typec-board-base/Core/Src/freertos.c **** /* USER CODE BEGIN 1 */
  72:control-base/typec-board-base/Core/Src/freertos.c **** /* Functions needed when configGENERATE_RUN_TIME_STATS is on */
  73:control-base/typec-board-base/Core/Src/freertos.c **** __weak void configureTimerForRunTimeStats(void)
  74:control-base/typec-board-base/Core/Src/freertos.c **** {
  75:control-base/typec-board-base/Core/Src/freertos.c ****   // HAL_TIM_Base_Start(&htim3); // This is initialized in tim.h
  76:control-base/typec-board-base/Core/Src/freertos.c **** }
  77:control-base/typec-board-base/Core/Src/freertos.c **** 
  78:control-base/typec-board-base/Core/Src/freertos.c **** __weak unsigned long getRunTimeCounterValue(void)
  79:control-base/typec-board-base/Core/Src/freertos.c **** {
  80:control-base/typec-board-base/Core/Src/freertos.c **** return __HAL_TIM_GET_COUNTER(&htim3);
  81:control-base/typec-board-base/Core/Src/freertos.c **** }
  82:control-base/typec-board-base/Core/Src/freertos.c **** /* USER CODE END 1 */
  83:control-base/typec-board-base/Core/Src/freertos.c **** 
  84:control-base/typec-board-base/Core/Src/freertos.c **** /* USER CODE BEGIN GET_IDLE_TASK_MEMORY */
  85:control-base/typec-board-base/Core/Src/freertos.c **** static StaticTask_t xIdleTaskTCBBuffer;
  86:control-base/typec-board-base/Core/Src/freertos.c **** static StackType_t xIdleStack[configMINIMAL_STACK_SIZE];
  87:control-base/typec-board-base/Core/Src/freertos.c **** 
ARM GAS  /var/folders/sg/pxk9dyzj7jz_x3889hx3b3dw0000gn/T//ccETsTGM.s 			page 3


  88:control-base/typec-board-base/Core/Src/freertos.c **** void vApplicationGetIdleTaskMemory(StaticTask_t **ppxIdleTaskTCBBuffer, StackType_t **ppxIdleTaskSt
  89:control-base/typec-board-base/Core/Src/freertos.c **** {
  90:control-base/typec-board-base/Core/Src/freertos.c ****   *ppxIdleTaskTCBBuffer = &xIdleTaskTCBBuffer;
  91:control-base/typec-board-base/Core/Src/freertos.c ****   *ppxIdleTaskStackBuffer = &xIdleStack[0];
  92:control-base/typec-board-base/Core/Src/freertos.c ****   *pulIdleTaskStackSize = configMINIMAL_STACK_SIZE;
  93:control-base/typec-board-base/Core/Src/freertos.c ****   /* place for user code */
  94:control-base/typec-board-base/Core/Src/freertos.c **** }
  95:control-base/typec-board-base/Core/Src/freertos.c **** /* USER CODE END GET_IDLE_TASK_MEMORY */
  96:control-base/typec-board-base/Core/Src/freertos.c **** 
  97:control-base/typec-board-base/Core/Src/freertos.c **** /* USER CODE BEGIN GET_TIMER_TASK_MEMORY */
  98:control-base/typec-board-base/Core/Src/freertos.c **** static StaticTask_t xTimerTaskTCBBuffer;
  99:control-base/typec-board-base/Core/Src/freertos.c **** static StackType_t xTimerStack[configTIMER_TASK_STACK_DEPTH];
 100:control-base/typec-board-base/Core/Src/freertos.c **** 
 101:control-base/typec-board-base/Core/Src/freertos.c **** void vApplicationGetTimerTaskMemory(StaticTask_t **ppxTimerTaskTCBBuffer, StackType_t **ppxTimerTas
 102:control-base/typec-board-base/Core/Src/freertos.c **** {
 103:control-base/typec-board-base/Core/Src/freertos.c ****   *ppxTimerTaskTCBBuffer = &xTimerTaskTCBBuffer;
 104:control-base/typec-board-base/Core/Src/freertos.c ****   *ppxTimerTaskStackBuffer = &xTimerStack[0];
 105:control-base/typec-board-base/Core/Src/freertos.c ****   *pulTimerTaskStackSize = configTIMER_TASK_STACK_DEPTH;
 106:control-base/typec-board-base/Core/Src/freertos.c ****   /* place for user code */
 107:control-base/typec-board-base/Core/Src/freertos.c **** }
 108:control-base/typec-board-base/Core/Src/freertos.c **** /* USER CODE END GET_TIMER_TASK_MEMORY */
 109:control-base/typec-board-base/Core/Src/freertos.c **** 
 110:control-base/typec-board-base/Core/Src/freertos.c **** /**
 111:control-base/typec-board-base/Core/Src/freertos.c ****   * @brief  FreeRTOS initialization
 112:control-base/typec-board-base/Core/Src/freertos.c ****   * @param  None
 113:control-base/typec-board-base/Core/Src/freertos.c ****   * @retval None
 114:control-base/typec-board-base/Core/Src/freertos.c ****   */
 115:control-base/typec-board-base/Core/Src/freertos.c **** void MX_FREERTOS_Init(void) {
 116:control-base/typec-board-base/Core/Src/freertos.c ****   /* USER CODE BEGIN Init */
 117:control-base/typec-board-base/Core/Src/freertos.c **** 
 118:control-base/typec-board-base/Core/Src/freertos.c ****   /* USER CODE END Init */
 119:control-base/typec-board-base/Core/Src/freertos.c **** 
 120:control-base/typec-board-base/Core/Src/freertos.c ****   /* USER CODE BEGIN RTOS_MUTEX */
 121:control-base/typec-board-base/Core/Src/freertos.c ****   /* add mutexes, ... */
 122:control-base/typec-board-base/Core/Src/freertos.c ****   /* USER CODE END RTOS_MUTEX */
 123:control-base/typec-board-base/Core/Src/freertos.c **** 
 124:control-base/typec-board-base/Core/Src/freertos.c ****   /* USER CODE BEGIN RTOS_SEMAPHORES */
 125:control-base/typec-board-base/Core/Src/freertos.c ****   /* add semaphores, ... */
 126:control-base/typec-board-base/Core/Src/freertos.c ****   /* USER CODE END RTOS_SEMAPHORES */
 127:control-base/typec-board-base/Core/Src/freertos.c **** 
 128:control-base/typec-board-base/Core/Src/freertos.c ****   /* USER CODE BEGIN RTOS_TIMERS */
 129:control-base/typec-board-base/Core/Src/freertos.c ****   /* start timers, add new ones, ... */
 130:control-base/typec-board-base/Core/Src/freertos.c ****   /* USER CODE END RTOS_TIMERS */
 131:control-base/typec-board-base/Core/Src/freertos.c **** 
 132:control-base/typec-board-base/Core/Src/freertos.c ****   /* USER CODE BEGIN RTOS_QUEUES */
 133:control-base/typec-board-base/Core/Src/freertos.c ****   /* add queues, ... */
 134:control-base/typec-board-base/Core/Src/freertos.c ****   /* USER CODE END RTOS_QUEUES */
 135:control-base/typec-board-base/Core/Src/freertos.c **** 
 136:control-base/typec-board-base/Core/Src/freertos.c ****   /* Create the thread(s) */
 137:control-base/typec-board-base/Core/Src/freertos.c ****   /* definition and creation of defaultTask */
 138:control-base/typec-board-base/Core/Src/freertos.c ****   osThreadDef(defaultTask, StartDefaultTask, osPriorityNormal, 0, 128);
 139:control-base/typec-board-base/Core/Src/freertos.c ****   defaultTaskHandle = osThreadCreate(osThread(defaultTask), NULL);
 140:control-base/typec-board-base/Core/Src/freertos.c **** 
 141:control-base/typec-board-base/Core/Src/freertos.c ****   /* USER CODE BEGIN RTOS_THREADS */
 142:control-base/typec-board-base/Core/Src/freertos.c **** 
 143:control-base/typec-board-base/Core/Src/freertos.c ****   /* USER CODE END RTOS_THREADS */
 144:control-base/typec-board-base/Core/Src/freertos.c **** 
ARM GAS  /var/folders/sg/pxk9dyzj7jz_x3889hx3b3dw0000gn/T//ccETsTGM.s 			page 4


 145:control-base/typec-board-base/Core/Src/freertos.c **** }
 146:control-base/typec-board-base/Core/Src/freertos.c **** 
 147:control-base/typec-board-base/Core/Src/freertos.c **** /* USER CODE BEGIN Header_StartDefaultTask */
 148:control-base/typec-board-base/Core/Src/freertos.c **** /**
 149:control-base/typec-board-base/Core/Src/freertos.c ****   * @brief  Function implementing the defaultTask thread.
 150:control-base/typec-board-base/Core/Src/freertos.c ****   * @param  argument: Not used
 151:control-base/typec-board-base/Core/Src/freertos.c ****   * @retval None
 152:control-base/typec-board-base/Core/Src/freertos.c ****   */
 153:control-base/typec-board-base/Core/Src/freertos.c **** /* USER CODE END Header_StartDefaultTask */
 154:control-base/typec-board-base/Core/Src/freertos.c **** void StartDefaultTask(void const * argument)
 155:control-base/typec-board-base/Core/Src/freertos.c **** {
  29              		.loc 1 155 1 view -0
  30              		.cfi_startproc
  31              		@ Volatile: function does not return.
  32              		@ args = 0, pretend = 0, frame = 0
  33              		@ frame_needed = 0, uses_anonymous_args = 0
  34              	.LVL0:
  35              		.loc 1 155 1 is_stmt 0 view .LVU1
  36 0000 08B5     		push	{r3, lr}
  37              	.LCFI0:
  38              		.cfi_def_cfa_offset 8
  39              		.cfi_offset 3, -8
  40              		.cfi_offset 14, -4
  41              	.LVL1:
  42              	.L2:
 156:control-base/typec-board-base/Core/Src/freertos.c ****   /* USER CODE BEGIN StartDefaultTask */
 157:control-base/typec-board-base/Core/Src/freertos.c ****   /* Infinite loop */
 158:control-base/typec-board-base/Core/Src/freertos.c ****   for(;;)
  43              		.loc 1 158 3 is_stmt 1 view .LVU2
 159:control-base/typec-board-base/Core/Src/freertos.c ****   {
 160:control-base/typec-board-base/Core/Src/freertos.c ****     osDelay(1);
  44              		.loc 1 160 5 discriminator 1 view .LVU3
  45 0002 0120     		movs	r0, #1
  46 0004 FFF7FEFF 		bl	osDelay
  47              	.LVL2:
 158:control-base/typec-board-base/Core/Src/freertos.c ****   {
  48              		.loc 1 158 3 view .LVU4
  49 0008 FBE7     		b	.L2
  50              		.cfi_endproc
  51              	.LFE144:
  53              		.section	.text.configureTimerForRunTimeStats,"ax",%progbits
  54              		.align	1
  55              		.weak	configureTimerForRunTimeStats
  56              		.syntax unified
  57              		.thumb
  58              		.thumb_func
  60              	configureTimerForRunTimeStats:
  61              	.LFB139:
  74:control-base/typec-board-base/Core/Src/freertos.c ****   // HAL_TIM_Base_Start(&htim3); // This is initialized in tim.h
  62              		.loc 1 74 1 view -0
  63              		.cfi_startproc
  64              		@ args = 0, pretend = 0, frame = 0
  65              		@ frame_needed = 0, uses_anonymous_args = 0
  66              		@ link register save eliminated.
  76:control-base/typec-board-base/Core/Src/freertos.c **** 
  67              		.loc 1 76 1 view .LVU6
  68 0000 7047     		bx	lr
ARM GAS  /var/folders/sg/pxk9dyzj7jz_x3889hx3b3dw0000gn/T//ccETsTGM.s 			page 5


  69              		.cfi_endproc
  70              	.LFE139:
  72              		.section	.text.getRunTimeCounterValue,"ax",%progbits
  73              		.align	1
  74              		.weak	getRunTimeCounterValue
  75              		.syntax unified
  76              		.thumb
  77              		.thumb_func
  79              	getRunTimeCounterValue:
  80              	.LFB140:
  79:control-base/typec-board-base/Core/Src/freertos.c **** return __HAL_TIM_GET_COUNTER(&htim3);
  81              		.loc 1 79 1 view -0
  82              		.cfi_startproc
  83              		@ args = 0, pretend = 0, frame = 0
  84              		@ frame_needed = 0, uses_anonymous_args = 0
  85              		@ link register save eliminated.
  80:control-base/typec-board-base/Core/Src/freertos.c **** }
  86              		.loc 1 80 1 view .LVU8
  80:control-base/typec-board-base/Core/Src/freertos.c **** }
  87              		.loc 1 80 8 is_stmt 0 view .LVU9
  88 0000 014B     		ldr	r3, .L6
  89 0002 1B68     		ldr	r3, [r3]
  90 0004 586A     		ldr	r0, [r3, #36]
  81:control-base/typec-board-base/Core/Src/freertos.c **** /* USER CODE END 1 */
  91              		.loc 1 81 1 view .LVU10
  92 0006 7047     		bx	lr
  93              	.L7:
  94              		.align	2
  95              	.L6:
  96 0008 00000000 		.word	htim3
  97              		.cfi_endproc
  98              	.LFE140:
 100              		.section	.text.vApplicationGetIdleTaskMemory,"ax",%progbits
 101              		.align	1
 102              		.global	vApplicationGetIdleTaskMemory
 103              		.syntax unified
 104              		.thumb
 105              		.thumb_func
 107              	vApplicationGetIdleTaskMemory:
 108              	.LVL3:
 109              	.LFB141:
  89:control-base/typec-board-base/Core/Src/freertos.c ****   *ppxIdleTaskTCBBuffer = &xIdleTaskTCBBuffer;
 110              		.loc 1 89 1 is_stmt 1 view -0
 111              		.cfi_startproc
 112              		@ args = 0, pretend = 0, frame = 0
 113              		@ frame_needed = 0, uses_anonymous_args = 0
 114              		@ link register save eliminated.
  90:control-base/typec-board-base/Core/Src/freertos.c ****   *ppxIdleTaskStackBuffer = &xIdleStack[0];
 115              		.loc 1 90 3 view .LVU12
  90:control-base/typec-board-base/Core/Src/freertos.c ****   *ppxIdleTaskStackBuffer = &xIdleStack[0];
 116              		.loc 1 90 25 is_stmt 0 view .LVU13
 117 0000 034B     		ldr	r3, .L9
 118 0002 0360     		str	r3, [r0]
  91:control-base/typec-board-base/Core/Src/freertos.c ****   *pulIdleTaskStackSize = configMINIMAL_STACK_SIZE;
 119              		.loc 1 91 3 is_stmt 1 view .LVU14
  91:control-base/typec-board-base/Core/Src/freertos.c ****   *pulIdleTaskStackSize = configMINIMAL_STACK_SIZE;
 120              		.loc 1 91 27 is_stmt 0 view .LVU15
ARM GAS  /var/folders/sg/pxk9dyzj7jz_x3889hx3b3dw0000gn/T//ccETsTGM.s 			page 6


 121 0004 034B     		ldr	r3, .L9+4
 122 0006 0B60     		str	r3, [r1]
  92:control-base/typec-board-base/Core/Src/freertos.c ****   /* place for user code */
 123              		.loc 1 92 3 is_stmt 1 view .LVU16
  92:control-base/typec-board-base/Core/Src/freertos.c ****   /* place for user code */
 124              		.loc 1 92 25 is_stmt 0 view .LVU17
 125 0008 8023     		movs	r3, #128
 126 000a 1360     		str	r3, [r2]
  94:control-base/typec-board-base/Core/Src/freertos.c **** /* USER CODE END GET_IDLE_TASK_MEMORY */
 127              		.loc 1 94 1 view .LVU18
 128 000c 7047     		bx	lr
 129              	.L10:
 130 000e 00BF     		.align	2
 131              	.L9:
 132 0010 00000000 		.word	xIdleTaskTCBBuffer
 133 0014 00000000 		.word	xIdleStack
 134              		.cfi_endproc
 135              	.LFE141:
 137              		.section	.text.vApplicationGetTimerTaskMemory,"ax",%progbits
 138              		.align	1
 139              		.global	vApplicationGetTimerTaskMemory
 140              		.syntax unified
 141              		.thumb
 142              		.thumb_func
 144              	vApplicationGetTimerTaskMemory:
 145              	.LVL4:
 146              	.LFB142:
 102:control-base/typec-board-base/Core/Src/freertos.c ****   *ppxTimerTaskTCBBuffer = &xTimerTaskTCBBuffer;
 147              		.loc 1 102 1 is_stmt 1 view -0
 148              		.cfi_startproc
 149              		@ args = 0, pretend = 0, frame = 0
 150              		@ frame_needed = 0, uses_anonymous_args = 0
 151              		@ link register save eliminated.
 103:control-base/typec-board-base/Core/Src/freertos.c ****   *ppxTimerTaskStackBuffer = &xTimerStack[0];
 152              		.loc 1 103 3 view .LVU20
 103:control-base/typec-board-base/Core/Src/freertos.c ****   *ppxTimerTaskStackBuffer = &xTimerStack[0];
 153              		.loc 1 103 26 is_stmt 0 view .LVU21
 154 0000 034B     		ldr	r3, .L12
 155 0002 0360     		str	r3, [r0]
 104:control-base/typec-board-base/Core/Src/freertos.c ****   *pulTimerTaskStackSize = configTIMER_TASK_STACK_DEPTH;
 156              		.loc 1 104 3 is_stmt 1 view .LVU22
 104:control-base/typec-board-base/Core/Src/freertos.c ****   *pulTimerTaskStackSize = configTIMER_TASK_STACK_DEPTH;
 157              		.loc 1 104 28 is_stmt 0 view .LVU23
 158 0004 034B     		ldr	r3, .L12+4
 159 0006 0B60     		str	r3, [r1]
 105:control-base/typec-board-base/Core/Src/freertos.c ****   /* place for user code */
 160              		.loc 1 105 3 is_stmt 1 view .LVU24
 105:control-base/typec-board-base/Core/Src/freertos.c ****   /* place for user code */
 161              		.loc 1 105 26 is_stmt 0 view .LVU25
 162 0008 4FF48073 		mov	r3, #256
 163 000c 1360     		str	r3, [r2]
 107:control-base/typec-board-base/Core/Src/freertos.c **** /* USER CODE END GET_TIMER_TASK_MEMORY */
 164              		.loc 1 107 1 view .LVU26
 165 000e 7047     		bx	lr
 166              	.L13:
 167              		.align	2
 168              	.L12:
ARM GAS  /var/folders/sg/pxk9dyzj7jz_x3889hx3b3dw0000gn/T//ccETsTGM.s 			page 7


 169 0010 00000000 		.word	xTimerTaskTCBBuffer
 170 0014 00000000 		.word	xTimerStack
 171              		.cfi_endproc
 172              	.LFE142:
 174              		.section	.text.MX_FREERTOS_Init,"ax",%progbits
 175              		.align	1
 176              		.global	MX_FREERTOS_Init
 177              		.syntax unified
 178              		.thumb
 179              		.thumb_func
 181              	MX_FREERTOS_Init:
 182              	.LFB143:
 115:control-base/typec-board-base/Core/Src/freertos.c ****   /* USER CODE BEGIN Init */
 183              		.loc 1 115 29 is_stmt 1 view -0
 184              		.cfi_startproc
 185              		@ args = 0, pretend = 0, frame = 32
 186              		@ frame_needed = 0, uses_anonymous_args = 0
 187 0000 10B5     		push	{r4, lr}
 188              	.LCFI1:
 189              		.cfi_def_cfa_offset 8
 190              		.cfi_offset 4, -8
 191              		.cfi_offset 14, -4
 192 0002 88B0     		sub	sp, sp, #32
 193              	.LCFI2:
 194              		.cfi_def_cfa_offset 40
 138:control-base/typec-board-base/Core/Src/freertos.c ****   defaultTaskHandle = osThreadCreate(osThread(defaultTask), NULL);
 195              		.loc 1 138 3 view .LVU28
 196 0004 0DF1040C 		add	ip, sp, #4
 197 0008 074C     		ldr	r4, .L16
 198 000a 0FCC     		ldmia	r4!, {r0, r1, r2, r3}
 199 000c ACE80F00 		stmia	ip!, {r0, r1, r2, r3}
 200 0010 94E80700 		ldm	r4, {r0, r1, r2}
 201 0014 8CE80700 		stm	ip, {r0, r1, r2}
 139:control-base/typec-board-base/Core/Src/freertos.c **** 
 202              		.loc 1 139 3 view .LVU29
 139:control-base/typec-board-base/Core/Src/freertos.c **** 
 203              		.loc 1 139 23 is_stmt 0 view .LVU30
 204 0018 0021     		movs	r1, #0
 205 001a 01A8     		add	r0, sp, #4
 206 001c FFF7FEFF 		bl	osThreadCreate
 207              	.LVL5:
 139:control-base/typec-board-base/Core/Src/freertos.c **** 
 208              		.loc 1 139 21 discriminator 1 view .LVU31
 209 0020 024B     		ldr	r3, .L16+4
 210 0022 1860     		str	r0, [r3]
 145:control-base/typec-board-base/Core/Src/freertos.c **** 
 211              		.loc 1 145 1 view .LVU32
 212 0024 08B0     		add	sp, sp, #32
 213              	.LCFI3:
 214              		.cfi_def_cfa_offset 8
 215              		@ sp needed
 216 0026 10BD     		pop	{r4, pc}
 217              	.L17:
 218              		.align	2
 219              	.L16:
 220 0028 00000000 		.word	.LANCHOR0
 221 002c 00000000 		.word	defaultTaskHandle
ARM GAS  /var/folders/sg/pxk9dyzj7jz_x3889hx3b3dw0000gn/T//ccETsTGM.s 			page 8


 222              		.cfi_endproc
 223              	.LFE143:
 225              		.section	.rodata.str1.4,"aMS",%progbits,1
 226              		.align	2
 227              	.LC0:
 228 0000 64656661 		.ascii	"defaultTask\000"
 228      756C7454 
 228      61736B00 
 229              		.section	.bss.xTimerStack,"aw",%nobits
 230              		.align	2
 233              	xTimerStack:
 234 0000 00000000 		.space	1024
 234      00000000 
 234      00000000 
 234      00000000 
 234      00000000 
 235              		.section	.bss.xTimerTaskTCBBuffer,"aw",%nobits
 236              		.align	2
 239              	xTimerTaskTCBBuffer:
 240 0000 00000000 		.space	100
 240      00000000 
 240      00000000 
 240      00000000 
 240      00000000 
 241              		.section	.bss.xIdleStack,"aw",%nobits
 242              		.align	2
 245              	xIdleStack:
 246 0000 00000000 		.space	512
 246      00000000 
 246      00000000 
 246      00000000 
 246      00000000 
 247              		.section	.bss.xIdleTaskTCBBuffer,"aw",%nobits
 248              		.align	2
 251              	xIdleTaskTCBBuffer:
 252 0000 00000000 		.space	100
 252      00000000 
 252      00000000 
 252      00000000 
 252      00000000 
 253              		.global	defaultTaskHandle
 254              		.section	.bss.defaultTaskHandle,"aw",%nobits
 255              		.align	2
 258              	defaultTaskHandle:
 259 0000 00000000 		.space	4
 260              		.global	imu_TaskHandle
 261              		.section	.bss.imu_TaskHandle,"aw",%nobits
 262              		.align	2
 265              	imu_TaskHandle:
 266 0000 00000000 		.space	4
 267              		.section	.rodata
 268              		.align	2
 269              		.set	.LANCHOR0,. + 0
 270              	.LC2:
 271 0000 00000000 		.word	.LC0
 272 0004 00000000 		.word	StartDefaultTask
 273 0008 0000     		.short	0
ARM GAS  /var/folders/sg/pxk9dyzj7jz_x3889hx3b3dw0000gn/T//ccETsTGM.s 			page 9


 274 000a 0000     		.space	2
 275 000c 00000000 		.word	0
 276 0010 80000000 		.word	128
 277 0014 00000000 		.word	0
 278 0018 00000000 		.word	0
 279              		.text
 280              	.Letext0:
 281              		.file 2 "/Applications/ArmGNUToolchain/14.3.rel1/arm-none-eabi/arm-none-eabi/include/machine/_defa
 282              		.file 3 "/Applications/ArmGNUToolchain/14.3.rel1/arm-none-eabi/arm-none-eabi/include/sys/_stdint.h
 283              		.file 4 "control-base/typec-board-base/Middlewares/Third_Party/FreeRTOS/Source/portable/GCC/ARM_CM
 284              		.file 5 "control-base/typec-board-base/Middlewares/Third_Party/FreeRTOS/Source/include/FreeRTOS.h"
 285              		.file 6 "control-base/typec-board-base/Middlewares/Third_Party/FreeRTOS/Source/include/task.h"
 286              		.file 7 "control-base/typec-board-base/Drivers/CMSIS/Device/ST/STM32F4xx/Include/stm32f407xx.h"
 287              		.file 8 "control-base/typec-board-base/Drivers/STM32F4xx_HAL_Driver/Inc/stm32f4xx_hal_def.h"
 288              		.file 9 "control-base/typec-board-base/Drivers/STM32F4xx_HAL_Driver/Inc/stm32f4xx_hal_dma.h"
 289              		.file 10 "control-base/typec-board-base/Drivers/STM32F4xx_HAL_Driver/Inc/stm32f4xx_hal_tim.h"
 290              		.file 11 "control-base/typec-board-base/Middlewares/Third_Party/FreeRTOS/Source/CMSIS_RTOS/cmsis_o
 291              		.file 12 "control-base/typec-board-base/Core/Inc/tim.h"
ARM GAS  /var/folders/sg/pxk9dyzj7jz_x3889hx3b3dw0000gn/T//ccETsTGM.s 			page 10

