ARM GAS  /var/folders/sg/pxk9dyzj7jz_x3889hx3b3dw0000gn/T//ccZzGoZJ.s 			page 1


   1              		.cpu cortex-m4
   2              		.arch armv7e-m
   3              		.fpu fpv4-sp-d16
   4              		.eabi_attribute 27, 1
   5              		.eabi_attribute 28, 1
   6              		.eabi_attribute 20, 1
   7              		.eabi_attribute 21, 1
   8              		.eabi_attribute 23, 3
   9              		.eabi_attribute 24, 1
  10              		.eabi_attribute 25, 1
  11              		.eabi_attribute 26, 1
  12              		.eabi_attribute 30, 1
  13              		.eabi_attribute 34, 1
  14              		.eabi_attribute 18, 4
  15              		.file	"ist8310driver.c"
  16              		.text
  17              	.Ltext0:
  18              		.cfi_sections	.debug_frame
  19              		.file 1 "control-base/devices/src/ist8310driver.c"
  20              		.section	.text.ist8310_init,"ax",%progbits
  21              		.align	1
  22              		.global	ist8310_init
  23              		.syntax unified
  24              		.thumb
  25              		.thumb_func
  27              	ist8310_init:
  28              	.LFB0:
   1:control-base/devices/src/ist8310driver.c **** #include "ist8310driver.h"
   2:control-base/devices/src/ist8310driver.c **** #include "ist8310driver_middleware.h"
   3:control-base/devices/src/ist8310driver.c **** 
   4:control-base/devices/src/ist8310driver.c **** #define MAG_SEN 0.3f
   5:control-base/devices/src/ist8310driver.c **** 
   6:control-base/devices/src/ist8310driver.c **** #define IST8310_WHO_AM_I 0x00
   7:control-base/devices/src/ist8310driver.c **** #define IST8310_WHO_AM_I_VALUE 0x10
   8:control-base/devices/src/ist8310driver.c **** 
   9:control-base/devices/src/ist8310driver.c **** #define IST8310_WRITE_REG_NUM 4
  10:control-base/devices/src/ist8310driver.c **** 
  11:control-base/devices/src/ist8310driver.c **** static const uint8_t ist8310_write_reg_data_error[IST8310_WRITE_REG_NUM][3] =
  12:control-base/devices/src/ist8310driver.c ****     {
  13:control-base/devices/src/ist8310driver.c ****         {0x0B, 0x08, 0x01},
  14:control-base/devices/src/ist8310driver.c ****         {0x41, 0x09, 0x02},
  15:control-base/devices/src/ist8310driver.c ****         {0x42, 0xC0, 0x03},
  16:control-base/devices/src/ist8310driver.c ****         {0x0A, 0x0B, 0x04}};
  17:control-base/devices/src/ist8310driver.c **** 
  18:control-base/devices/src/ist8310driver.c **** uint8_t ist8310_init(void)
  19:control-base/devices/src/ist8310driver.c **** {
  29              		.loc 1 19 1 view -0
  30              		.cfi_startproc
  31              		@ args = 0, pretend = 0, frame = 0
  32              		@ frame_needed = 0, uses_anonymous_args = 0
  33 0000 70B5     		push	{r4, r5, r6, lr}
  34              	.LCFI0:
  35              		.cfi_def_cfa_offset 16
  36              		.cfi_offset 4, -16
  37              		.cfi_offset 5, -12
  38              		.cfi_offset 6, -8
  39              		.cfi_offset 14, -4
ARM GAS  /var/folders/sg/pxk9dyzj7jz_x3889hx3b3dw0000gn/T//ccZzGoZJ.s 			page 2


  20:control-base/devices/src/ist8310driver.c ****     static const uint8_t wait_time = 1;
  40              		.loc 1 20 5 view .LVU1
  21:control-base/devices/src/ist8310driver.c ****     static const uint8_t sleepTime = 50;
  41              		.loc 1 21 5 view .LVU2
  22:control-base/devices/src/ist8310driver.c ****     uint8_t res = 0;
  42              		.loc 1 22 5 view .LVU3
  43              	.LVL0:
  23:control-base/devices/src/ist8310driver.c ****     uint8_t writeNum = 0;
  44              		.loc 1 23 5 view .LVU4
  24:control-base/devices/src/ist8310driver.c **** 
  25:control-base/devices/src/ist8310driver.c ****     ist8310_GPIO_init();
  45              		.loc 1 25 5 view .LVU5
  46 0002 FFF7FEFF 		bl	ist8310_GPIO_init
  47              	.LVL1:
  26:control-base/devices/src/ist8310driver.c ****     ist8310_com_init();
  48              		.loc 1 26 5 view .LVU6
  49 0006 FFF7FEFF 		bl	ist8310_com_init
  50              	.LVL2:
  27:control-base/devices/src/ist8310driver.c **** 
  28:control-base/devices/src/ist8310driver.c ****     ist8310_RST_L();
  51              		.loc 1 28 5 view .LVU7
  52 000a FFF7FEFF 		bl	ist8310_RST_L
  53              	.LVL3:
  29:control-base/devices/src/ist8310driver.c ****     ist8310_delay_ms(sleepTime);
  54              		.loc 1 29 5 view .LVU8
  55 000e 3220     		movs	r0, #50
  56 0010 FFF7FEFF 		bl	ist8310_delay_ms
  57              	.LVL4:
  30:control-base/devices/src/ist8310driver.c ****     ist8310_RST_H();
  58              		.loc 1 30 5 view .LVU9
  59 0014 FFF7FEFF 		bl	ist8310_RST_H
  60              	.LVL5:
  31:control-base/devices/src/ist8310driver.c ****     ist8310_delay_ms(sleepTime);
  61              		.loc 1 31 5 view .LVU10
  62 0018 3220     		movs	r0, #50
  63 001a FFF7FEFF 		bl	ist8310_delay_ms
  64              	.LVL6:
  32:control-base/devices/src/ist8310driver.c **** 
  33:control-base/devices/src/ist8310driver.c ****     res = ist8310_IIC_read_single_reg(IST8310_WHO_AM_I);
  65              		.loc 1 33 5 view .LVU11
  66              		.loc 1 33 11 is_stmt 0 view .LVU12
  67 001e 0020     		movs	r0, #0
  68 0020 FFF7FEFF 		bl	ist8310_IIC_read_single_reg
  69              	.LVL7:
  34:control-base/devices/src/ist8310driver.c ****     if (res != IST8310_WHO_AM_I_VALUE)
  70              		.loc 1 34 5 is_stmt 1 view .LVU13
  71              		.loc 1 34 8 is_stmt 0 view .LVU14
  72 0024 1028     		cmp	r0, #16
  73 0026 01D0     		beq	.L8
  35:control-base/devices/src/ist8310driver.c ****     {
  36:control-base/devices/src/ist8310driver.c ****         return IST8310_NO_SENSOR;
  74              		.loc 1 36 16 view .LVU15
  75 0028 4020     		movs	r0, #64
  76              	.LVL8:
  77              	.L2:
  37:control-base/devices/src/ist8310driver.c ****     }
  38:control-base/devices/src/ist8310driver.c ****     ist8310_delay_ms(wait_time);
ARM GAS  /var/folders/sg/pxk9dyzj7jz_x3889hx3b3dw0000gn/T//ccZzGoZJ.s 			page 3


  39:control-base/devices/src/ist8310driver.c **** 
  40:control-base/devices/src/ist8310driver.c ****     for (writeNum = 0; writeNum < IST8310_WRITE_REG_NUM; writeNum++)
  41:control-base/devices/src/ist8310driver.c ****     {
  42:control-base/devices/src/ist8310driver.c ****         ist8310_IIC_write_single_reg(ist8310_write_reg_data_error[writeNum][0], ist8310_write_reg_d
  43:control-base/devices/src/ist8310driver.c ****         ist8310_delay_ms(wait_time);
  44:control-base/devices/src/ist8310driver.c ****         res = ist8310_IIC_read_single_reg(ist8310_write_reg_data_error[writeNum][0]);
  45:control-base/devices/src/ist8310driver.c ****         ist8310_delay_ms(wait_time);
  46:control-base/devices/src/ist8310driver.c ****         if (res != ist8310_write_reg_data_error[writeNum][1])
  47:control-base/devices/src/ist8310driver.c ****         {
  48:control-base/devices/src/ist8310driver.c ****             return ist8310_write_reg_data_error[writeNum][2];
  49:control-base/devices/src/ist8310driver.c ****         }
  50:control-base/devices/src/ist8310driver.c ****     }
  51:control-base/devices/src/ist8310driver.c **** 
  52:control-base/devices/src/ist8310driver.c ****     return IST8310_NO_ERROR;
  53:control-base/devices/src/ist8310driver.c **** }
  78              		.loc 1 53 1 view .LVU16
  79 002a 70BD     		pop	{r4, r5, r6, pc}
  80              	.LVL9:
  81              	.L8:
  38:control-base/devices/src/ist8310driver.c **** 
  82              		.loc 1 38 5 is_stmt 1 view .LVU17
  83 002c 0120     		movs	r0, #1
  84              	.LVL10:
  38:control-base/devices/src/ist8310driver.c **** 
  85              		.loc 1 38 5 is_stmt 0 view .LVU18
  86 002e FFF7FEFF 		bl	ist8310_delay_ms
  87              	.LVL11:
  40:control-base/devices/src/ist8310driver.c ****     {
  88              		.loc 1 40 5 is_stmt 1 view .LVU19
  40:control-base/devices/src/ist8310driver.c ****     {
  89              		.loc 1 40 19 is_stmt 0 view .LVU20
  90 0032 0024     		movs	r4, #0
  91              	.LVL12:
  92              	.L3:
  40:control-base/devices/src/ist8310driver.c ****     {
  93              		.loc 1 40 33 is_stmt 1 discriminator 1 view .LVU21
  94 0034 032C     		cmp	r4, #3
  95 0036 1ED8     		bhi	.L9
  42:control-base/devices/src/ist8310driver.c ****         ist8310_delay_ms(wait_time);
  96              		.loc 1 42 9 view .LVU22
  42:control-base/devices/src/ist8310driver.c ****         ist8310_delay_ms(wait_time);
  97              		.loc 1 42 76 is_stmt 0 view .LVU23
  98 0038 104A     		ldr	r2, .L11
  99 003a 04EB4403 		add	r3, r4, r4, lsl #1
 100 003e D118     		adds	r1, r2, r3
 101 0040 D55C     		ldrb	r5, [r2, r3]	@ zero_extendqisi2
  42:control-base/devices/src/ist8310driver.c ****         ist8310_delay_ms(wait_time);
 102              		.loc 1 42 119 view .LVU24
 103 0042 4E78     		ldrb	r6, [r1, #1]	@ zero_extendqisi2
  42:control-base/devices/src/ist8310driver.c ****         ist8310_delay_ms(wait_time);
 104              		.loc 1 42 9 view .LVU25
 105 0044 3146     		mov	r1, r6
 106 0046 2846     		mov	r0, r5
 107 0048 FFF7FEFF 		bl	ist8310_IIC_write_single_reg
 108              	.LVL13:
  43:control-base/devices/src/ist8310driver.c ****         res = ist8310_IIC_read_single_reg(ist8310_write_reg_data_error[writeNum][0]);
 109              		.loc 1 43 9 is_stmt 1 view .LVU26
ARM GAS  /var/folders/sg/pxk9dyzj7jz_x3889hx3b3dw0000gn/T//ccZzGoZJ.s 			page 4


 110 004c 0120     		movs	r0, #1
 111 004e FFF7FEFF 		bl	ist8310_delay_ms
 112              	.LVL14:
  44:control-base/devices/src/ist8310driver.c ****         ist8310_delay_ms(wait_time);
 113              		.loc 1 44 9 view .LVU27
  44:control-base/devices/src/ist8310driver.c ****         ist8310_delay_ms(wait_time);
 114              		.loc 1 44 15 is_stmt 0 view .LVU28
 115 0052 2846     		mov	r0, r5
 116 0054 FFF7FEFF 		bl	ist8310_IIC_read_single_reg
 117              	.LVL15:
 118 0058 0546     		mov	r5, r0
 119              	.LVL16:
  45:control-base/devices/src/ist8310driver.c ****         if (res != ist8310_write_reg_data_error[writeNum][1])
 120              		.loc 1 45 9 is_stmt 1 view .LVU29
 121 005a 0120     		movs	r0, #1
 122 005c FFF7FEFF 		bl	ist8310_delay_ms
 123              	.LVL17:
  46:control-base/devices/src/ist8310driver.c ****         {
 124              		.loc 1 46 9 view .LVU30
  46:control-base/devices/src/ist8310driver.c ****         {
 125              		.loc 1 46 12 is_stmt 0 view .LVU31
 126 0060 AE42     		cmp	r6, r5
 127 0062 02D1     		bne	.L10
  40:control-base/devices/src/ist8310driver.c ****     {
 128              		.loc 1 40 66 is_stmt 1 discriminator 2 view .LVU32
 129 0064 0134     		adds	r4, r4, #1
 130              	.LVL18:
  40:control-base/devices/src/ist8310driver.c ****     {
 131              		.loc 1 40 66 is_stmt 0 discriminator 2 view .LVU33
 132 0066 E4B2     		uxtb	r4, r4
 133              	.LVL19:
  40:control-base/devices/src/ist8310driver.c ****     {
 134              		.loc 1 40 66 discriminator 2 view .LVU34
 135 0068 E4E7     		b	.L3
 136              	.LVL20:
 137              	.L10:
  48:control-base/devices/src/ist8310driver.c ****         }
 138              		.loc 1 48 13 is_stmt 1 view .LVU35
  48:control-base/devices/src/ist8310driver.c ****         }
 139              		.loc 1 48 58 is_stmt 0 view .LVU36
 140 006a 04EB4404 		add	r4, r4, r4, lsl #1
 141              	.LVL21:
  48:control-base/devices/src/ist8310driver.c ****         }
 142              		.loc 1 48 58 view .LVU37
 143 006e 034B     		ldr	r3, .L11
 144 0070 2344     		add	r3, r3, r4
 145 0072 9878     		ldrb	r0, [r3, #2]	@ zero_extendqisi2
 146 0074 D9E7     		b	.L2
 147              	.LVL22:
 148              	.L9:
  52:control-base/devices/src/ist8310driver.c **** }
 149              		.loc 1 52 12 view .LVU38
 150 0076 0020     		movs	r0, #0
 151 0078 D7E7     		b	.L2
 152              	.L12:
 153 007a 00BF     		.align	2
 154              	.L11:
ARM GAS  /var/folders/sg/pxk9dyzj7jz_x3889hx3b3dw0000gn/T//ccZzGoZJ.s 			page 5


 155 007c 00000000 		.word	ist8310_write_reg_data_error
 156              		.cfi_endproc
 157              	.LFE0:
 159              		.section	.text.ist8310_read_over,"ax",%progbits
 160              		.align	1
 161              		.global	ist8310_read_over
 162              		.syntax unified
 163              		.thumb
 164              		.thumb_func
 166              	ist8310_read_over:
 167              	.LVL23:
 168              	.LFB1:
  54:control-base/devices/src/ist8310driver.c **** 
  55:control-base/devices/src/ist8310driver.c **** void ist8310_read_over(uint8_t *status_buf, IST8310_Raw_t *ist8310_real_data)
  56:control-base/devices/src/ist8310driver.c **** {
 169              		.loc 1 56 1 is_stmt 1 view -0
 170              		.cfi_startproc
 171              		@ args = 0, pretend = 0, frame = 0
 172              		@ frame_needed = 0, uses_anonymous_args = 0
 173              		@ link register save eliminated.
  57:control-base/devices/src/ist8310driver.c **** 
  58:control-base/devices/src/ist8310driver.c ****     if (status_buf[0] & 0x01)
 174              		.loc 1 58 5 view .LVU40
 175              		.loc 1 58 19 is_stmt 0 view .LVU41
 176 0000 0378     		ldrb	r3, [r0]	@ zero_extendqisi2
 177              		.loc 1 58 8 view .LVU42
 178 0002 13F0010F 		tst	r3, #1
 179 0006 2DD0     		beq	.L14
 180              	.LBB2:
  59:control-base/devices/src/ist8310driver.c ****     {
  60:control-base/devices/src/ist8310driver.c ****         int16_t temp_ist8310_data = 0;
 181              		.loc 1 60 9 is_stmt 1 view .LVU43
 182              	.LVL24:
  61:control-base/devices/src/ist8310driver.c ****         ist8310_real_data->status |= 1 << IST8310_DATA_READY_BIT;
 183              		.loc 1 61 9 view .LVU44
 184              		.loc 1 61 26 is_stmt 0 view .LVU45
 185 0008 0B78     		ldrb	r3, [r1]	@ zero_extendqisi2
 186              		.loc 1 61 35 view .LVU46
 187 000a 43F00403 		orr	r3, r3, #4
 188 000e 0B70     		strb	r3, [r1]
  62:control-base/devices/src/ist8310driver.c **** 
  63:control-base/devices/src/ist8310driver.c ****         temp_ist8310_data = (int16_t)((status_buf[2] << 8) | status_buf[1]);
 189              		.loc 1 63 9 is_stmt 1 view .LVU47
 190              		.loc 1 63 50 is_stmt 0 view .LVU48
 191 0010 8378     		ldrb	r3, [r0, #2]	@ zero_extendqisi2
 192              		.loc 1 63 29 view .LVU49
 193 0012 1B02     		lsls	r3, r3, #8
 194 0014 1BB2     		sxth	r3, r3
 195              		.loc 1 63 72 view .LVU50
 196 0016 4278     		ldrb	r2, [r0, #1]	@ zero_extendqisi2
 197              		.loc 1 63 27 view .LVU51
 198 0018 1343     		orrs	r3, r3, r2
 199 001a 07EE903A 		vmov	s15, r3	@ int
 200              	.LVL25:
  64:control-base/devices/src/ist8310driver.c ****         ist8310_real_data->mag[0] = MAG_SEN * temp_ist8310_data;
 201              		.loc 1 64 9 is_stmt 1 view .LVU52
 202              		.loc 1 64 45 is_stmt 0 view .LVU53
ARM GAS  /var/folders/sg/pxk9dyzj7jz_x3889hx3b3dw0000gn/T//ccZzGoZJ.s 			page 6


 203 001e F8EEE77A 		vcvt.f32.s32	s15, s15
 204              	.LVL26:
 205              		.loc 1 64 45 view .LVU54
 206 0022 9FED137A 		vldr.32	s14, .L16
 207 0026 67EE877A 		vmul.f32	s15, s15, s14
 208              		.loc 1 64 35 view .LVU55
 209 002a C1ED017A 		vstr.32	s15, [r1, #4]
  65:control-base/devices/src/ist8310driver.c ****         temp_ist8310_data = (int16_t)((status_buf[4] << 8) | status_buf[3]);
 210              		.loc 1 65 9 is_stmt 1 view .LVU56
 211              		.loc 1 65 50 is_stmt 0 view .LVU57
 212 002e 0379     		ldrb	r3, [r0, #4]	@ zero_extendqisi2
 213              	.LVL27:
 214              		.loc 1 65 29 view .LVU58
 215 0030 1B02     		lsls	r3, r3, #8
 216 0032 1BB2     		sxth	r3, r3
 217              		.loc 1 65 72 view .LVU59
 218 0034 C278     		ldrb	r2, [r0, #3]	@ zero_extendqisi2
 219              		.loc 1 65 27 view .LVU60
 220 0036 1343     		orrs	r3, r3, r2
 221 0038 07EE903A 		vmov	s15, r3	@ int
 222              	.LVL28:
  66:control-base/devices/src/ist8310driver.c ****         ist8310_real_data->mag[1] = MAG_SEN * temp_ist8310_data;
 223              		.loc 1 66 9 is_stmt 1 view .LVU61
 224              		.loc 1 66 45 is_stmt 0 view .LVU62
 225 003c F8EEE77A 		vcvt.f32.s32	s15, s15
 226              	.LVL29:
 227              		.loc 1 66 45 view .LVU63
 228 0040 67EE877A 		vmul.f32	s15, s15, s14
 229              		.loc 1 66 35 view .LVU64
 230 0044 C1ED027A 		vstr.32	s15, [r1, #8]
  67:control-base/devices/src/ist8310driver.c ****         temp_ist8310_data = (int16_t)((status_buf[6] << 8) | status_buf[5]);
 231              		.loc 1 67 9 is_stmt 1 view .LVU65
 232              		.loc 1 67 50 is_stmt 0 view .LVU66
 233 0048 8379     		ldrb	r3, [r0, #6]	@ zero_extendqisi2
 234              	.LVL30:
 235              		.loc 1 67 29 view .LVU67
 236 004a 1B02     		lsls	r3, r3, #8
 237 004c 1BB2     		sxth	r3, r3
 238              		.loc 1 67 72 view .LVU68
 239 004e 4279     		ldrb	r2, [r0, #5]	@ zero_extendqisi2
 240              		.loc 1 67 27 view .LVU69
 241 0050 1343     		orrs	r3, r3, r2
 242 0052 07EE903A 		vmov	s15, r3	@ int
 243              	.LVL31:
  68:control-base/devices/src/ist8310driver.c ****         ist8310_real_data->mag[2] = MAG_SEN * temp_ist8310_data;
 244              		.loc 1 68 9 is_stmt 1 view .LVU70
 245              		.loc 1 68 45 is_stmt 0 view .LVU71
 246 0056 F8EEE77A 		vcvt.f32.s32	s15, s15
 247              	.LVL32:
 248              		.loc 1 68 45 view .LVU72
 249 005a 67EE877A 		vmul.f32	s15, s15, s14
 250              		.loc 1 68 35 view .LVU73
 251 005e C1ED037A 		vstr.32	s15, [r1, #12]
 252              	.LBE2:
 253 0062 7047     		bx	lr
 254              	.LVL33:
 255              	.L14:
ARM GAS  /var/folders/sg/pxk9dyzj7jz_x3889hx3b3dw0000gn/T//ccZzGoZJ.s 			page 7


  69:control-base/devices/src/ist8310driver.c ****     }
  70:control-base/devices/src/ist8310driver.c ****     else
  71:control-base/devices/src/ist8310driver.c ****     {
  72:control-base/devices/src/ist8310driver.c ****         ist8310_real_data->status &= ~(1 << IST8310_DATA_READY_BIT);
 256              		.loc 1 72 9 is_stmt 1 view .LVU74
 257              		.loc 1 72 26 is_stmt 0 view .LVU75
 258 0064 0B78     		ldrb	r3, [r1]	@ zero_extendqisi2
 259              		.loc 1 72 35 view .LVU76
 260 0066 23F00403 		bic	r3, r3, #4
 261 006a 0B70     		strb	r3, [r1]
  73:control-base/devices/src/ist8310driver.c ****     }
  74:control-base/devices/src/ist8310driver.c **** }
 262              		.loc 1 74 1 view .LVU77
 263 006c 7047     		bx	lr
 264              	.L17:
 265 006e 00BF     		.align	2
 266              	.L16:
 267 0070 9A99993E 		.word	1050253722
 268              		.cfi_endproc
 269              	.LFE1:
 271              		.section	.text.ist8310_read_mag,"ax",%progbits
 272              		.align	1
 273              		.global	ist8310_read_mag
 274              		.syntax unified
 275              		.thumb
 276              		.thumb_func
 278              	ist8310_read_mag:
 279              	.LVL34:
 280              	.LFB2:
  75:control-base/devices/src/ist8310driver.c **** 
  76:control-base/devices/src/ist8310driver.c **** void ist8310_read_mag(float mag[3])
  77:control-base/devices/src/ist8310driver.c **** {
 281              		.loc 1 77 1 is_stmt 1 view -0
 282              		.cfi_startproc
 283              		@ args = 0, pretend = 0, frame = 8
 284              		@ frame_needed = 0, uses_anonymous_args = 0
 285              		.loc 1 77 1 is_stmt 0 view .LVU79
 286 0000 10B5     		push	{r4, lr}
 287              	.LCFI1:
 288              		.cfi_def_cfa_offset 8
 289              		.cfi_offset 4, -8
 290              		.cfi_offset 14, -4
 291 0002 82B0     		sub	sp, sp, #8
 292              	.LCFI2:
 293              		.cfi_def_cfa_offset 16
 294 0004 0446     		mov	r4, r0
  78:control-base/devices/src/ist8310driver.c ****     uint8_t buf[6];
 295              		.loc 1 78 5 is_stmt 1 view .LVU80
  79:control-base/devices/src/ist8310driver.c ****     int16_t temp_ist8310_data = 0;
 296              		.loc 1 79 5 view .LVU81
 297              	.LVL35:
  80:control-base/devices/src/ist8310driver.c ****     ist8310_IIC_read_muli_reg(0x03, buf, 6);
 298              		.loc 1 80 5 view .LVU82
 299 0006 0622     		movs	r2, #6
 300 0008 6946     		mov	r1, sp
 301 000a 0320     		movs	r0, #3
 302              	.LVL36:
ARM GAS  /var/folders/sg/pxk9dyzj7jz_x3889hx3b3dw0000gn/T//ccZzGoZJ.s 			page 8


 303              		.loc 1 80 5 is_stmt 0 view .LVU83
 304 000c FFF7FEFF 		bl	ist8310_IIC_read_muli_reg
 305              	.LVL37:
  81:control-base/devices/src/ist8310driver.c **** 
  82:control-base/devices/src/ist8310driver.c ****     temp_ist8310_data = (int16_t)((buf[1] << 8) | buf[0]);
 306              		.loc 1 82 5 is_stmt 1 view .LVU84
 307              		.loc 1 82 39 is_stmt 0 view .LVU85
 308 0010 9DF80130 		ldrb	r3, [sp, #1]	@ zero_extendqisi2
 309              		.loc 1 82 25 view .LVU86
 310 0014 1B02     		lsls	r3, r3, #8
 311 0016 1BB2     		sxth	r3, r3
 312              		.loc 1 82 54 view .LVU87
 313 0018 9DF80020 		ldrb	r2, [sp]	@ zero_extendqisi2
 314              		.loc 1 82 23 view .LVU88
 315 001c 1343     		orrs	r3, r3, r2
 316 001e 07EE903A 		vmov	s15, r3	@ int
 317              	.LVL38:
  83:control-base/devices/src/ist8310driver.c ****     mag[0] = MAG_SEN * temp_ist8310_data;
 318              		.loc 1 83 5 is_stmt 1 view .LVU89
 319              		.loc 1 83 22 is_stmt 0 view .LVU90
 320 0022 F8EEE77A 		vcvt.f32.s32	s15, s15
 321              	.LVL39:
 322              		.loc 1 83 22 view .LVU91
 323 0026 9FED137A 		vldr.32	s14, .L20
 324 002a 67EE877A 		vmul.f32	s15, s15, s14
 325              		.loc 1 83 12 view .LVU92
 326 002e C4ED007A 		vstr.32	s15, [r4]
  84:control-base/devices/src/ist8310driver.c ****     temp_ist8310_data = (int16_t)((buf[3] << 8) | buf[2]);
 327              		.loc 1 84 5 is_stmt 1 view .LVU93
 328              		.loc 1 84 39 is_stmt 0 view .LVU94
 329 0032 9DF80330 		ldrb	r3, [sp, #3]	@ zero_extendqisi2
 330              	.LVL40:
 331              		.loc 1 84 25 view .LVU95
 332 0036 1B02     		lsls	r3, r3, #8
 333 0038 1BB2     		sxth	r3, r3
 334              		.loc 1 84 54 view .LVU96
 335 003a 9DF80220 		ldrb	r2, [sp, #2]	@ zero_extendqisi2
 336              		.loc 1 84 23 view .LVU97
 337 003e 1343     		orrs	r3, r3, r2
 338 0040 07EE903A 		vmov	s15, r3	@ int
 339              	.LVL41:
  85:control-base/devices/src/ist8310driver.c ****     mag[1] = MAG_SEN * temp_ist8310_data;
 340              		.loc 1 85 5 is_stmt 1 view .LVU98
 341              		.loc 1 85 22 is_stmt 0 view .LVU99
 342 0044 F8EEE77A 		vcvt.f32.s32	s15, s15
 343              	.LVL42:
 344              		.loc 1 85 22 view .LVU100
 345 0048 67EE877A 		vmul.f32	s15, s15, s14
 346              		.loc 1 85 12 view .LVU101
 347 004c C4ED017A 		vstr.32	s15, [r4, #4]
  86:control-base/devices/src/ist8310driver.c ****     temp_ist8310_data = (int16_t)((buf[5] << 8) | buf[4]);
 348              		.loc 1 86 5 is_stmt 1 view .LVU102
 349              		.loc 1 86 39 is_stmt 0 view .LVU103
 350 0050 9DF80530 		ldrb	r3, [sp, #5]	@ zero_extendqisi2
 351              	.LVL43:
 352              		.loc 1 86 25 view .LVU104
 353 0054 1B02     		lsls	r3, r3, #8
ARM GAS  /var/folders/sg/pxk9dyzj7jz_x3889hx3b3dw0000gn/T//ccZzGoZJ.s 			page 9


 354 0056 1BB2     		sxth	r3, r3
 355              		.loc 1 86 54 view .LVU105
 356 0058 9DF80420 		ldrb	r2, [sp, #4]	@ zero_extendqisi2
 357              	.LVL44:
 358              		.loc 1 86 23 view .LVU106
 359 005c 1343     		orrs	r3, r3, r2
 360 005e 07EE903A 		vmov	s15, r3	@ int
 361              	.LVL45:
  87:control-base/devices/src/ist8310driver.c ****     mag[2] = MAG_SEN * temp_ist8310_data;
 362              		.loc 1 87 5 is_stmt 1 view .LVU107
 363              		.loc 1 87 22 is_stmt 0 view .LVU108
 364 0062 F8EEE77A 		vcvt.f32.s32	s15, s15
 365              	.LVL46:
 366              		.loc 1 87 22 view .LVU109
 367 0066 67EE877A 		vmul.f32	s15, s15, s14
 368              		.loc 1 87 12 view .LVU110
 369 006a C4ED027A 		vstr.32	s15, [r4, #8]
  88:control-base/devices/src/ist8310driver.c **** }
 370              		.loc 1 88 1 view .LVU111
 371 006e 02B0     		add	sp, sp, #8
 372              	.LCFI3:
 373              		.cfi_def_cfa_offset 8
 374              		@ sp needed
 375 0070 10BD     		pop	{r4, pc}
 376              	.LVL47:
 377              	.L21:
 378              		.loc 1 88 1 view .LVU112
 379 0072 00BF     		.align	2
 380              	.L20:
 381 0074 9A99993E 		.word	1050253722
 382              		.cfi_endproc
 383              	.LFE2:
 385              		.section	.rodata.ist8310_write_reg_data_error,"a"
 386              		.align	2
 389              	ist8310_write_reg_data_error:
 390 0000 0B0801   		.ascii	"\013\010\001"
 391 0003 410902   		.ascii	"A\011\002"
 392 0006 42C003   		.ascii	"B\300\003"
 393 0009 0A0B04   		.ascii	"\012\013\004"
 394              		.text
 395              	.Letext0:
 396              		.file 2 "/Applications/ArmGNUToolchain/14.3.rel1/arm-none-eabi/arm-none-eabi/include/machine/_defa
 397              		.file 3 "/Applications/ArmGNUToolchain/14.3.rel1/arm-none-eabi/arm-none-eabi/include/sys/_stdint.h
 398              		.file 4 "control-base/devices/inc/ist8310driver.h"
 399              		.file 5 "control-base/devices/inc/ist8310driver_middleware.h"
ARM GAS  /var/folders/sg/pxk9dyzj7jz_x3889hx3b3dw0000gn/T//ccZzGoZJ.s 			page 10

