ARM GAS  /var/folders/sg/pxk9dyzj7jz_x3889hx3b3dw0000gn/T//ccZjbuO9.s 			page 1


   1              		.cpu cortex-m4
   2              		.arch armv7e-m
   3              		.fpu fpv4-sp-d16
   4              		.eabi_attribute 27, 1
   5              		.eabi_attribute 28, 1
   6              		.eabi_attribute 20, 1
   7              		.eabi_attribute 21, 1
   8              		.eabi_attribute 23, 3
   9              		.eabi_attribute 24, 1
  10              		.eabi_attribute 25, 1
  11              		.eabi_attribute 26, 1
  12              		.eabi_attribute 30, 1
  13              		.eabi_attribute 34, 1
  14              		.eabi_attribute 18, 4
  15              		.file	"robot.c"
  16              		.text
  17              	.Ltext0:
  18              		.cfi_sections	.debug_frame
  19              		.file 1 "Minibot/src/robot.c"
  20              		.section	.text.Robot_Tasks_UI,"ax",%progbits
  21              		.align	1
  22              		.global	Robot_Tasks_UI
  23              		.syntax unified
  24              		.thumb
  25              		.thumb_func
  27              	Robot_Tasks_UI:
  28              	.LVL0:
  29              	.LFB146:
  30              		.file 2 "Minibot/inc/robot_tasks.h"
   1:Minibot/inc/robot_tasks.h **** #pragma once
   2:Minibot/inc/robot_tasks.h **** 
   3:Minibot/inc/robot_tasks.h **** #include "FreeRTOS.h"
   4:Minibot/inc/robot_tasks.h **** #include "task.h"
   5:Minibot/inc/robot_tasks.h **** #include "main.h"
   6:Minibot/inc/robot_tasks.h **** #include "cmsis_os.h"
   7:Minibot/inc/robot_tasks.h **** 
   8:Minibot/inc/robot_tasks.h **** #include "robot.h"
   9:Minibot/inc/robot_tasks.h **** #include "launch_task.h"
  10:Minibot/inc/robot_tasks.h **** #include "motor_task.h"
  11:Minibot/inc/robot_tasks.h **** #include "debug_task.h"
  12:Minibot/inc/robot_tasks.h **** #include "bsp_serial.h"
  13:Minibot/inc/robot_tasks.h **** #include "bsp_daemon.h"
  14:Minibot/inc/robot_tasks.h **** 
  15:Minibot/inc/robot_tasks.h **** extern void IMU_Task(void const *pvParameters);
  16:Minibot/inc/robot_tasks.h **** 
  17:Minibot/inc/robot_tasks.h **** osThreadId imu_task_handle;
  18:Minibot/inc/robot_tasks.h **** osThreadId robot_command_task_handle;
  19:Minibot/inc/robot_tasks.h **** osThreadId motor_task_handle;
  20:Minibot/inc/robot_tasks.h **** osThreadId ui_task_handle;
  21:Minibot/inc/robot_tasks.h **** osThreadId debug_task_handle;
  22:Minibot/inc/robot_tasks.h **** osThreadId daemon_task_handle;
  23:Minibot/inc/robot_tasks.h **** 
  24:Minibot/inc/robot_tasks.h **** void Robot_Tasks_Robot_Command(void const *argument);
  25:Minibot/inc/robot_tasks.h **** void Robot_Tasks_Motor(void const *argument);
  26:Minibot/inc/robot_tasks.h **** void Robot_Tasks_IMU(void const *argument);
  27:Minibot/inc/robot_tasks.h **** void Robot_Tasks_UI(void const *argument);
  28:Minibot/inc/robot_tasks.h **** void Robot_Tasks_Debug(void const *argument);
ARM GAS  /var/folders/sg/pxk9dyzj7jz_x3889hx3b3dw0000gn/T//ccZjbuO9.s 			page 2


  29:Minibot/inc/robot_tasks.h **** void Robot_Tasks_Daemon(void const *argument);
  30:Minibot/inc/robot_tasks.h **** 
  31:Minibot/inc/robot_tasks.h **** void Robot_Tasks_Start()
  32:Minibot/inc/robot_tasks.h **** {
  33:Minibot/inc/robot_tasks.h ****     osThreadDef(imu_task, Robot_Tasks_IMU, osPriorityAboveNormal, 0, 1024);
  34:Minibot/inc/robot_tasks.h ****     imu_task_handle = osThreadCreate(osThread(imu_task), NULL);
  35:Minibot/inc/robot_tasks.h **** 
  36:Minibot/inc/robot_tasks.h ****     osThreadDef(motor_task, Robot_Tasks_Motor, osPriorityAboveNormal, 0, 256);
  37:Minibot/inc/robot_tasks.h ****     motor_task_handle = osThreadCreate(osThread(motor_task), NULL);
  38:Minibot/inc/robot_tasks.h **** 
  39:Minibot/inc/robot_tasks.h ****     osThreadDef(robot_command_task, Robot_Tasks_Robot_Command, osPriorityAboveNormal, 0, 256);
  40:Minibot/inc/robot_tasks.h ****     robot_command_task_handle = osThreadCreate(osThread(robot_command_task), NULL);
  41:Minibot/inc/robot_tasks.h **** 
  42:Minibot/inc/robot_tasks.h ****     osThreadDef(ui_task, Robot_Tasks_UI, osPriorityAboveNormal, 0, 256);
  43:Minibot/inc/robot_tasks.h ****     ui_task_handle = osThreadCreate(osThread(ui_task), NULL);
  44:Minibot/inc/robot_tasks.h **** 
  45:Minibot/inc/robot_tasks.h ****     osThreadDef(debug_task, Robot_Tasks_Debug, osPriorityIdle, 0, 256);
  46:Minibot/inc/robot_tasks.h ****     debug_task_handle = osThreadCreate(osThread(debug_task), NULL);
  47:Minibot/inc/robot_tasks.h **** 
  48:Minibot/inc/robot_tasks.h ****     osThreadDef(daemon_task, Robot_Tasks_Daemon, osPriorityAboveNormal, 0, 256);
  49:Minibot/inc/robot_tasks.h ****     daemon_task_handle = osThreadCreate(osThread(daemon_task), NULL);
  50:Minibot/inc/robot_tasks.h **** }
  51:Minibot/inc/robot_tasks.h **** 
  52:Minibot/inc/robot_tasks.h **** void Robot_Tasks_Robot_Command(void const *argument)
  53:Minibot/inc/robot_tasks.h **** {
  54:Minibot/inc/robot_tasks.h ****     portTickType xLastWakeTime;
  55:Minibot/inc/robot_tasks.h ****     xLastWakeTime = xTaskGetTickCount();
  56:Minibot/inc/robot_tasks.h ****     const TickType_t TimeIncrement = pdMS_TO_TICKS(2);
  57:Minibot/inc/robot_tasks.h ****     while (1)
  58:Minibot/inc/robot_tasks.h ****     {
  59:Minibot/inc/robot_tasks.h ****         Robot_Command_Loop();
  60:Minibot/inc/robot_tasks.h ****         vTaskDelayUntil(&xLastWakeTime, TimeIncrement);
  61:Minibot/inc/robot_tasks.h ****     }
  62:Minibot/inc/robot_tasks.h **** }
  63:Minibot/inc/robot_tasks.h **** 
  64:Minibot/inc/robot_tasks.h **** __weak void Robot_Tasks_IMU(void const *argument)
  65:Minibot/inc/robot_tasks.h **** {
  66:Minibot/inc/robot_tasks.h ****     IMU_Task(argument);
  67:Minibot/inc/robot_tasks.h **** }
  68:Minibot/inc/robot_tasks.h **** 
  69:Minibot/inc/robot_tasks.h **** void Robot_Tasks_Motor(void const *argument)
  70:Minibot/inc/robot_tasks.h **** {
  71:Minibot/inc/robot_tasks.h ****     portTickType xLastWakeTime;
  72:Minibot/inc/robot_tasks.h ****     xLastWakeTime = xTaskGetTickCount();
  73:Minibot/inc/robot_tasks.h ****     const TickType_t TimeIncrement = pdMS_TO_TICKS(1);
  74:Minibot/inc/robot_tasks.h ****     while (1)
  75:Minibot/inc/robot_tasks.h ****     {
  76:Minibot/inc/robot_tasks.h ****         Motor_Task_Loop();
  77:Minibot/inc/robot_tasks.h ****         vTaskDelayUntil(&xLastWakeTime, TimeIncrement);
  78:Minibot/inc/robot_tasks.h ****     }
  79:Minibot/inc/robot_tasks.h **** }
  80:Minibot/inc/robot_tasks.h **** 
  81:Minibot/inc/robot_tasks.h **** void Robot_Tasks_UI(void const *argument)
  82:Minibot/inc/robot_tasks.h **** {
  31              		.loc 2 82 1 view -0
  32              		.cfi_startproc
  33              		@ args = 0, pretend = 0, frame = 8
ARM GAS  /var/folders/sg/pxk9dyzj7jz_x3889hx3b3dw0000gn/T//ccZjbuO9.s 			page 3


  34              		@ frame_needed = 0, uses_anonymous_args = 0
  35              		.loc 2 82 1 is_stmt 0 view .LVU1
  36 0000 00B5     		push	{lr}
  37              	.LCFI0:
  38              		.cfi_def_cfa_offset 4
  39              		.cfi_offset 14, -4
  40 0002 83B0     		sub	sp, sp, #12
  41              	.LCFI1:
  42              		.cfi_def_cfa_offset 16
  83:Minibot/inc/robot_tasks.h ****     portTickType xLastWakeTime;
  43              		.loc 2 83 5 is_stmt 1 view .LVU2
  84:Minibot/inc/robot_tasks.h ****     xLastWakeTime = xTaskGetTickCount();
  44              		.loc 2 84 5 view .LVU3
  45              		.loc 2 84 21 is_stmt 0 view .LVU4
  46 0004 FFF7FEFF 		bl	xTaskGetTickCount
  47              	.LVL1:
  48              		.loc 2 84 19 discriminator 1 view .LVU5
  49 0008 0190     		str	r0, [sp, #4]
  85:Minibot/inc/robot_tasks.h ****     const TickType_t TimeIncrement = pdMS_TO_TICKS(1);
  50              		.loc 2 85 5 is_stmt 1 view .LVU6
  51              	.LVL2:
  52              	.L2:
  86:Minibot/inc/robot_tasks.h ****     while (1)
  53              		.loc 2 86 5 view .LVU7
  87:Minibot/inc/robot_tasks.h ****     {
  88:Minibot/inc/robot_tasks.h ****         // UI_Task_Loop();
  89:Minibot/inc/robot_tasks.h ****         vTaskDelayUntil(&xLastWakeTime, TimeIncrement);
  54              		.loc 2 89 9 discriminator 1 view .LVU8
  55 000a 0121     		movs	r1, #1
  56 000c 01A8     		add	r0, sp, #4
  57 000e FFF7FEFF 		bl	vTaskDelayUntil
  58              	.LVL3:
  86:Minibot/inc/robot_tasks.h ****     while (1)
  59              		.loc 2 86 11 view .LVU9
  60 0012 FAE7     		b	.L2
  61              		.cfi_endproc
  62              	.LFE146:
  64              		.section	.text.Robot_Tasks_IMU,"ax",%progbits
  65              		.align	1
  66              		.weak	Robot_Tasks_IMU
  67              		.syntax unified
  68              		.thumb
  69              		.thumb_func
  71              	Robot_Tasks_IMU:
  72              	.LVL4:
  73              	.LFB144:
  65:Minibot/inc/robot_tasks.h ****     IMU_Task(argument);
  74              		.loc 2 65 1 view -0
  75              		.cfi_startproc
  76              		@ args = 0, pretend = 0, frame = 0
  77              		@ frame_needed = 0, uses_anonymous_args = 0
  65:Minibot/inc/robot_tasks.h ****     IMU_Task(argument);
  78              		.loc 2 65 1 is_stmt 0 view .LVU11
  79 0000 08B5     		push	{r3, lr}
  80              	.LCFI2:
  81              		.cfi_def_cfa_offset 8
  82              		.cfi_offset 3, -8
ARM GAS  /var/folders/sg/pxk9dyzj7jz_x3889hx3b3dw0000gn/T//ccZjbuO9.s 			page 4


  83              		.cfi_offset 14, -4
  66:Minibot/inc/robot_tasks.h **** }
  84              		.loc 2 66 5 is_stmt 1 view .LVU12
  85 0002 FFF7FEFF 		bl	IMU_Task
  86              	.LVL5:
  67:Minibot/inc/robot_tasks.h **** 
  87              		.loc 2 67 1 is_stmt 0 view .LVU13
  88 0006 08BD     		pop	{r3, pc}
  89              		.cfi_endproc
  90              	.LFE144:
  92              		.section	.text.Robot_Tasks_Motor,"ax",%progbits
  93              		.align	1
  94              		.global	Robot_Tasks_Motor
  95              		.syntax unified
  96              		.thumb
  97              		.thumb_func
  99              	Robot_Tasks_Motor:
 100              	.LVL6:
 101              	.LFB145:
  70:Minibot/inc/robot_tasks.h ****     portTickType xLastWakeTime;
 102              		.loc 2 70 1 is_stmt 1 view -0
 103              		.cfi_startproc
 104              		@ args = 0, pretend = 0, frame = 8
 105              		@ frame_needed = 0, uses_anonymous_args = 0
  70:Minibot/inc/robot_tasks.h ****     portTickType xLastWakeTime;
 106              		.loc 2 70 1 is_stmt 0 view .LVU15
 107 0000 00B5     		push	{lr}
 108              	.LCFI3:
 109              		.cfi_def_cfa_offset 4
 110              		.cfi_offset 14, -4
 111 0002 83B0     		sub	sp, sp, #12
 112              	.LCFI4:
 113              		.cfi_def_cfa_offset 16
  71:Minibot/inc/robot_tasks.h ****     xLastWakeTime = xTaskGetTickCount();
 114              		.loc 2 71 5 is_stmt 1 view .LVU16
  72:Minibot/inc/robot_tasks.h ****     const TickType_t TimeIncrement = pdMS_TO_TICKS(1);
 115              		.loc 2 72 5 view .LVU17
  72:Minibot/inc/robot_tasks.h ****     const TickType_t TimeIncrement = pdMS_TO_TICKS(1);
 116              		.loc 2 72 21 is_stmt 0 view .LVU18
 117 0004 FFF7FEFF 		bl	xTaskGetTickCount
 118              	.LVL7:
  72:Minibot/inc/robot_tasks.h ****     const TickType_t TimeIncrement = pdMS_TO_TICKS(1);
 119              		.loc 2 72 19 discriminator 1 view .LVU19
 120 0008 0190     		str	r0, [sp, #4]
  73:Minibot/inc/robot_tasks.h ****     while (1)
 121              		.loc 2 73 5 is_stmt 1 view .LVU20
 122              	.LVL8:
 123              	.L7:
  74:Minibot/inc/robot_tasks.h ****     {
 124              		.loc 2 74 5 view .LVU21
  76:Minibot/inc/robot_tasks.h ****         vTaskDelayUntil(&xLastWakeTime, TimeIncrement);
 125              		.loc 2 76 9 view .LVU22
 126 000a FFF7FEFF 		bl	Motor_Task_Loop
 127              	.LVL9:
  77:Minibot/inc/robot_tasks.h ****     }
 128              		.loc 2 77 9 discriminator 1 view .LVU23
 129 000e 0121     		movs	r1, #1
ARM GAS  /var/folders/sg/pxk9dyzj7jz_x3889hx3b3dw0000gn/T//ccZjbuO9.s 			page 5


 130 0010 01A8     		add	r0, sp, #4
 131 0012 FFF7FEFF 		bl	vTaskDelayUntil
 132              	.LVL10:
  74:Minibot/inc/robot_tasks.h ****     {
 133              		.loc 2 74 11 view .LVU24
 134 0016 F8E7     		b	.L7
 135              		.cfi_endproc
 136              	.LFE145:
 138              		.section	.text.Robot_Tasks_Debug,"ax",%progbits
 139              		.align	1
 140              		.global	Robot_Tasks_Debug
 141              		.syntax unified
 142              		.thumb
 143              		.thumb_func
 145              	Robot_Tasks_Debug:
 146              	.LVL11:
 147              	.LFB147:
  90:Minibot/inc/robot_tasks.h ****     }
  91:Minibot/inc/robot_tasks.h **** }
  92:Minibot/inc/robot_tasks.h **** 
  93:Minibot/inc/robot_tasks.h **** void Robot_Tasks_Debug(void const *argument)
  94:Minibot/inc/robot_tasks.h **** {
 148              		.loc 2 94 1 view -0
 149              		.cfi_startproc
 150              		@ args = 0, pretend = 0, frame = 8
 151              		@ frame_needed = 0, uses_anonymous_args = 0
 152              		.loc 2 94 1 is_stmt 0 view .LVU26
 153 0000 00B5     		push	{lr}
 154              	.LCFI5:
 155              		.cfi_def_cfa_offset 4
 156              		.cfi_offset 14, -4
 157 0002 83B0     		sub	sp, sp, #12
 158              	.LCFI6:
 159              		.cfi_def_cfa_offset 16
  95:Minibot/inc/robot_tasks.h ****     portTickType xLastWakeTime;
 160              		.loc 2 95 5 is_stmt 1 view .LVU27
  96:Minibot/inc/robot_tasks.h ****     xLastWakeTime = xTaskGetTickCount();
 161              		.loc 2 96 5 view .LVU28
 162              		.loc 2 96 21 is_stmt 0 view .LVU29
 163 0004 FFF7FEFF 		bl	xTaskGetTickCount
 164              	.LVL12:
 165              		.loc 2 96 19 discriminator 1 view .LVU30
 166 0008 0190     		str	r0, [sp, #4]
  97:Minibot/inc/robot_tasks.h ****     const TickType_t TimeIncrement = pdMS_TO_TICKS(DEBUG_PERIOD);
 167              		.loc 2 97 5 is_stmt 1 view .LVU31
 168              	.LVL13:
 169              	.L10:
  98:Minibot/inc/robot_tasks.h ****     while (1)
 170              		.loc 2 98 5 view .LVU32
  99:Minibot/inc/robot_tasks.h ****     {
 100:Minibot/inc/robot_tasks.h ****         Debug_Task_Loop();
 171              		.loc 2 100 9 view .LVU33
 172 000a FFF7FEFF 		bl	Debug_Task_Loop
 173              	.LVL14:
 101:Minibot/inc/robot_tasks.h ****         vTaskDelayUntil(&xLastWakeTime, TimeIncrement);
 174              		.loc 2 101 9 discriminator 1 view .LVU34
 175 000e 0A21     		movs	r1, #10
ARM GAS  /var/folders/sg/pxk9dyzj7jz_x3889hx3b3dw0000gn/T//ccZjbuO9.s 			page 6


 176 0010 01A8     		add	r0, sp, #4
 177 0012 FFF7FEFF 		bl	vTaskDelayUntil
 178              	.LVL15:
  98:Minibot/inc/robot_tasks.h ****     while (1)
 179              		.loc 2 98 11 view .LVU35
 180 0016 F8E7     		b	.L10
 181              		.cfi_endproc
 182              	.LFE147:
 184              		.section	.text.Robot_Tasks_Daemon,"ax",%progbits
 185              		.align	1
 186              		.global	Robot_Tasks_Daemon
 187              		.syntax unified
 188              		.thumb
 189              		.thumb_func
 191              	Robot_Tasks_Daemon:
 192              	.LVL16:
 193              	.LFB148:
 102:Minibot/inc/robot_tasks.h ****     }
 103:Minibot/inc/robot_tasks.h **** }
 104:Minibot/inc/robot_tasks.h **** 
 105:Minibot/inc/robot_tasks.h **** void Robot_Tasks_Daemon(void const *argument)
 106:Minibot/inc/robot_tasks.h **** {
 194              		.loc 2 106 1 view -0
 195              		.cfi_startproc
 196              		@ args = 0, pretend = 0, frame = 8
 197              		@ frame_needed = 0, uses_anonymous_args = 0
 198              		.loc 2 106 1 is_stmt 0 view .LVU37
 199 0000 00B5     		push	{lr}
 200              	.LCFI7:
 201              		.cfi_def_cfa_offset 4
 202              		.cfi_offset 14, -4
 203 0002 83B0     		sub	sp, sp, #12
 204              	.LCFI8:
 205              		.cfi_def_cfa_offset 16
 107:Minibot/inc/robot_tasks.h ****     portTickType xLastWakeTime;
 206              		.loc 2 107 5 is_stmt 1 view .LVU38
 108:Minibot/inc/robot_tasks.h ****     xLastWakeTime = xTaskGetTickCount();
 207              		.loc 2 108 5 view .LVU39
 208              		.loc 2 108 21 is_stmt 0 view .LVU40
 209 0004 FFF7FEFF 		bl	xTaskGetTickCount
 210              	.LVL17:
 211              		.loc 2 108 19 discriminator 1 view .LVU41
 212 0008 0190     		str	r0, [sp, #4]
 109:Minibot/inc/robot_tasks.h ****     const TickType_t TimeIncrement = pdMS_TO_TICKS(DAEMON_PERIOD);
 213              		.loc 2 109 5 is_stmt 1 view .LVU42
 214              	.LVL18:
 215              	.L13:
 110:Minibot/inc/robot_tasks.h ****     while (1)
 216              		.loc 2 110 5 view .LVU43
 111:Minibot/inc/robot_tasks.h ****     {
 112:Minibot/inc/robot_tasks.h ****         Daemon_Task_Loop();
 217              		.loc 2 112 9 view .LVU44
 218 000a FFF7FEFF 		bl	Daemon_Task_Loop
 219              	.LVL19:
 113:Minibot/inc/robot_tasks.h ****         vTaskDelayUntil(&xLastWakeTime, TimeIncrement);
 220              		.loc 2 113 9 discriminator 1 view .LVU45
 221 000e 0A21     		movs	r1, #10
ARM GAS  /var/folders/sg/pxk9dyzj7jz_x3889hx3b3dw0000gn/T//ccZjbuO9.s 			page 7


 222 0010 01A8     		add	r0, sp, #4
 223 0012 FFF7FEFF 		bl	vTaskDelayUntil
 224              	.LVL20:
 110:Minibot/inc/robot_tasks.h ****     while (1)
 225              		.loc 2 110 11 view .LVU46
 226 0016 F8E7     		b	.L13
 227              		.cfi_endproc
 228              	.LFE148:
 230              		.section	.text.Robot_Tasks_Start,"ax",%progbits
 231              		.align	1
 232              		.global	Robot_Tasks_Start
 233              		.syntax unified
 234              		.thumb
 235              		.thumb_func
 237              	Robot_Tasks_Start:
 238              	.LFB142:
  32:Minibot/inc/robot_tasks.h ****     osThreadDef(imu_task, Robot_Tasks_IMU, osPriorityAboveNormal, 0, 1024);
 239              		.loc 2 32 1 view -0
 240              		.cfi_startproc
 241              		@ args = 0, pretend = 0, frame = 168
 242              		@ frame_needed = 0, uses_anonymous_args = 0
 243 0000 10B5     		push	{r4, lr}
 244              	.LCFI9:
 245              		.cfi_def_cfa_offset 8
 246              		.cfi_offset 4, -8
 247              		.cfi_offset 14, -4
 248 0002 AAB0     		sub	sp, sp, #168
 249              	.LCFI10:
 250              		.cfi_def_cfa_offset 176
  33:Minibot/inc/robot_tasks.h ****     imu_task_handle = osThreadCreate(osThread(imu_task), NULL);
 251              		.loc 2 33 5 view .LVU48
 252 0004 364C     		ldr	r4, .L17
 253 0006 0DF18C0C 		add	ip, sp, #140
 254 000a A646     		mov	lr, r4
 255 000c BEE80F00 		ldmia	lr!, {r0, r1, r2, r3}
 256 0010 ACE80F00 		stmia	ip!, {r0, r1, r2, r3}
 257 0014 9EE80700 		ldm	lr, {r0, r1, r2}
 258 0018 8CE80700 		stm	ip, {r0, r1, r2}
  34:Minibot/inc/robot_tasks.h **** 
 259              		.loc 2 34 5 view .LVU49
  34:Minibot/inc/robot_tasks.h **** 
 260              		.loc 2 34 23 is_stmt 0 view .LVU50
 261 001c 0021     		movs	r1, #0
 262 001e 23A8     		add	r0, sp, #140
 263 0020 FFF7FEFF 		bl	osThreadCreate
 264              	.LVL21:
  34:Minibot/inc/robot_tasks.h **** 
 265              		.loc 2 34 21 discriminator 1 view .LVU51
 266 0024 2F4B     		ldr	r3, .L17+4
 267 0026 1860     		str	r0, [r3]
  36:Minibot/inc/robot_tasks.h ****     motor_task_handle = osThreadCreate(osThread(motor_task), NULL);
 268              		.loc 2 36 5 is_stmt 1 view .LVU52
 269 0028 0DF1700C 		add	ip, sp, #112
 270 002c 04F11C0E 		add	lr, r4, #28
 271 0030 BEE80F00 		ldmia	lr!, {r0, r1, r2, r3}
 272 0034 ACE80F00 		stmia	ip!, {r0, r1, r2, r3}
 273 0038 9EE80700 		ldm	lr, {r0, r1, r2}
ARM GAS  /var/folders/sg/pxk9dyzj7jz_x3889hx3b3dw0000gn/T//ccZjbuO9.s 			page 8


 274 003c 8CE80700 		stm	ip, {r0, r1, r2}
  37:Minibot/inc/robot_tasks.h **** 
 275              		.loc 2 37 5 view .LVU53
  37:Minibot/inc/robot_tasks.h **** 
 276              		.loc 2 37 25 is_stmt 0 view .LVU54
 277 0040 0021     		movs	r1, #0
 278 0042 1CA8     		add	r0, sp, #112
 279 0044 FFF7FEFF 		bl	osThreadCreate
 280              	.LVL22:
  37:Minibot/inc/robot_tasks.h **** 
 281              		.loc 2 37 23 discriminator 1 view .LVU55
 282 0048 274B     		ldr	r3, .L17+8
 283 004a 1860     		str	r0, [r3]
  39:Minibot/inc/robot_tasks.h ****     robot_command_task_handle = osThreadCreate(osThread(robot_command_task), NULL);
 284              		.loc 2 39 5 is_stmt 1 view .LVU56
 285 004c 0DF1540C 		add	ip, sp, #84
 286 0050 04F1380E 		add	lr, r4, #56
 287 0054 BEE80F00 		ldmia	lr!, {r0, r1, r2, r3}
 288 0058 ACE80F00 		stmia	ip!, {r0, r1, r2, r3}
 289 005c 9EE80700 		ldm	lr, {r0, r1, r2}
 290 0060 8CE80700 		stm	ip, {r0, r1, r2}
  40:Minibot/inc/robot_tasks.h **** 
 291              		.loc 2 40 5 view .LVU57
  40:Minibot/inc/robot_tasks.h **** 
 292              		.loc 2 40 33 is_stmt 0 view .LVU58
 293 0064 0021     		movs	r1, #0
 294 0066 15A8     		add	r0, sp, #84
 295 0068 FFF7FEFF 		bl	osThreadCreate
 296              	.LVL23:
  40:Minibot/inc/robot_tasks.h **** 
 297              		.loc 2 40 31 discriminator 1 view .LVU59
 298 006c 1F4B     		ldr	r3, .L17+12
 299 006e 1860     		str	r0, [r3]
  42:Minibot/inc/robot_tasks.h ****     ui_task_handle = osThreadCreate(osThread(ui_task), NULL);
 300              		.loc 2 42 5 is_stmt 1 view .LVU60
 301 0070 0DF1380C 		add	ip, sp, #56
 302 0074 04F1540E 		add	lr, r4, #84
 303 0078 BEE80F00 		ldmia	lr!, {r0, r1, r2, r3}
 304 007c ACE80F00 		stmia	ip!, {r0, r1, r2, r3}
 305 0080 9EE80700 		ldm	lr, {r0, r1, r2}
 306 0084 8CE80700 		stm	ip, {r0, r1, r2}
  43:Minibot/inc/robot_tasks.h **** 
 307              		.loc 2 43 5 view .LVU61
  43:Minibot/inc/robot_tasks.h **** 
 308              		.loc 2 43 22 is_stmt 0 view .LVU62
 309 0088 0021     		movs	r1, #0
 310 008a 0EA8     		add	r0, sp, #56
 311 008c FFF7FEFF 		bl	osThreadCreate
 312              	.LVL24:
  43:Minibot/inc/robot_tasks.h **** 
 313              		.loc 2 43 20 discriminator 1 view .LVU63
 314 0090 174B     		ldr	r3, .L17+16
 315 0092 1860     		str	r0, [r3]
  45:Minibot/inc/robot_tasks.h ****     debug_task_handle = osThreadCreate(osThread(debug_task), NULL);
 316              		.loc 2 45 5 is_stmt 1 view .LVU64
 317 0094 0DF11C0C 		add	ip, sp, #28
 318 0098 04F1700E 		add	lr, r4, #112
ARM GAS  /var/folders/sg/pxk9dyzj7jz_x3889hx3b3dw0000gn/T//ccZjbuO9.s 			page 9


 319 009c BEE80F00 		ldmia	lr!, {r0, r1, r2, r3}
 320 00a0 ACE80F00 		stmia	ip!, {r0, r1, r2, r3}
 321 00a4 9EE80700 		ldm	lr, {r0, r1, r2}
 322 00a8 8CE80700 		stm	ip, {r0, r1, r2}
  46:Minibot/inc/robot_tasks.h **** 
 323              		.loc 2 46 5 view .LVU65
  46:Minibot/inc/robot_tasks.h **** 
 324              		.loc 2 46 25 is_stmt 0 view .LVU66
 325 00ac 0021     		movs	r1, #0
 326 00ae 07A8     		add	r0, sp, #28
 327 00b0 FFF7FEFF 		bl	osThreadCreate
 328              	.LVL25:
  46:Minibot/inc/robot_tasks.h **** 
 329              		.loc 2 46 23 discriminator 1 view .LVU67
 330 00b4 0F4B     		ldr	r3, .L17+20
 331 00b6 1860     		str	r0, [r3]
  48:Minibot/inc/robot_tasks.h ****     daemon_task_handle = osThreadCreate(osThread(daemon_task), NULL);
 332              		.loc 2 48 5 is_stmt 1 view .LVU68
 333 00b8 EE46     		mov	lr, sp
 334 00ba 04F18C0C 		add	ip, r4, #140
 335 00be BCE80F00 		ldmia	ip!, {r0, r1, r2, r3}
 336 00c2 AEE80F00 		stmia	lr!, {r0, r1, r2, r3}
 337 00c6 9CE80700 		ldm	ip, {r0, r1, r2}
 338 00ca 8EE80700 		stm	lr, {r0, r1, r2}
  49:Minibot/inc/robot_tasks.h **** }
 339              		.loc 2 49 5 view .LVU69
  49:Minibot/inc/robot_tasks.h **** }
 340              		.loc 2 49 26 is_stmt 0 view .LVU70
 341 00ce 0021     		movs	r1, #0
 342 00d0 6846     		mov	r0, sp
 343 00d2 FFF7FEFF 		bl	osThreadCreate
 344              	.LVL26:
  49:Minibot/inc/robot_tasks.h **** }
 345              		.loc 2 49 24 discriminator 1 view .LVU71
 346 00d6 084B     		ldr	r3, .L17+24
 347 00d8 1860     		str	r0, [r3]
  50:Minibot/inc/robot_tasks.h **** 
 348              		.loc 2 50 1 view .LVU72
 349 00da 2AB0     		add	sp, sp, #168
 350              	.LCFI11:
 351              		.cfi_def_cfa_offset 8
 352              		@ sp needed
 353 00dc 10BD     		pop	{r4, pc}
 354              	.L18:
 355 00de 00BF     		.align	2
 356              	.L17:
 357 00e0 00000000 		.word	.LANCHOR0
 358 00e4 00000000 		.word	imu_task_handle
 359 00e8 00000000 		.word	motor_task_handle
 360 00ec 00000000 		.word	robot_command_task_handle
 361 00f0 00000000 		.word	ui_task_handle
 362 00f4 00000000 		.word	debug_task_handle
 363 00f8 00000000 		.word	daemon_task_handle
 364              		.cfi_endproc
 365              	.LFE142:
 367              		.section	.text.Robot_Init,"ax",%progbits
 368              		.align	1
ARM GAS  /var/folders/sg/pxk9dyzj7jz_x3889hx3b3dw0000gn/T//ccZjbuO9.s 			page 10


 369              		.global	Robot_Init
 370              		.syntax unified
 371              		.thumb
 372              		.thumb_func
 374              	Robot_Init:
 375              	.LFB149:
   1:Minibot/src/robot.c **** #include "robot.h"
   2:Minibot/src/robot.c **** 
   3:Minibot/src/robot.c **** #include "robot_tasks.h"
   4:Minibot/src/robot.c **** #include "chassis_task.h"
   5:Minibot/src/robot.c **** #include "gimbal_task.h"
   6:Minibot/src/robot.c **** #include "launch_task.h"
   7:Minibot/src/robot.c **** #include "remote.h"
   8:Minibot/src/robot.c **** #include "gimbal_task.h"
   9:Minibot/src/robot.c **** #include "imu_task.h"
  10:Minibot/src/robot.c **** #include "referee_system.h"
  11:Minibot/src/robot.c **** #include "buzzer.h"
  12:Minibot/src/robot.c **** #include "dji_motor.h"
  13:Minibot/src/robot.c **** 
  14:Minibot/src/robot.c **** Robot_State_t g_robot_state = {0};
  15:Minibot/src/robot.c **** extern Remote_t g_remote;
  16:Minibot/src/robot.c **** 
  17:Minibot/src/robot.c **** /**
  18:Minibot/src/robot.c ****  * @brief This function initializes the robot.
  19:Minibot/src/robot.c ****  * This means setting the state to STARTING_UP,
  20:Minibot/src/robot.c ****  * initializing the buzzer, and calling the
  21:Minibot/src/robot.c ****  * Robot_Task_Start() for the task scheduling
  22:Minibot/src/robot.c ****  */
  23:Minibot/src/robot.c **** void Robot_Init()
  24:Minibot/src/robot.c **** {
 376              		.loc 1 24 1 is_stmt 1 view -0
 377              		.cfi_startproc
 378              		@ args = 0, pretend = 0, frame = 408
 379              		@ frame_needed = 0, uses_anonymous_args = 0
 380 0000 30B5     		push	{r4, r5, lr}
 381              	.LCFI12:
 382              		.cfi_def_cfa_offset 12
 383              		.cfi_offset 4, -12
 384              		.cfi_offset 5, -8
 385              		.cfi_offset 14, -4
 386 0002 ADF5497D 		sub	sp, sp, #804
 387              	.LCFI13:
 388              		.cfi_def_cfa_offset 816
  25:Minibot/src/robot.c ****     g_robot_state.state = STARTING_UP;
 389              		.loc 1 25 5 view .LVU74
 390              		.loc 1 25 25 is_stmt 0 view .LVU75
 391 0006 0025     		movs	r5, #0
 392 0008 1B4B     		ldr	r3, .L21
 393 000a 1D70     		strb	r5, [r3]
  26:Minibot/src/robot.c **** 
  27:Minibot/src/robot.c ****     Buzzer_Init();
 394              		.loc 1 27 5 is_stmt 1 view .LVU76
 395 000c FFF7FEFF 		bl	Buzzer_Init
 396              	.LVL27:
  28:Minibot/src/robot.c ****     Melody_t system_init_melody = {
 397              		.loc 1 28 5 view .LVU77
 398              		.loc 1 28 14 is_stmt 0 view .LVU78
ARM GAS  /var/folders/sg/pxk9dyzj7jz_x3889hx3b3dw0000gn/T//ccZjbuO9.s 			page 11


 399 0010 62AC     		add	r4, sp, #392
 400 0012 4FF4CC72 		mov	r2, #408
 401 0016 2946     		mov	r1, r5
 402 0018 2046     		mov	r0, r4
 403 001a FFF7FEFF 		bl	memset
 404              	.LVL28:
 405 001e 174B     		ldr	r3, .L21+4
 406 0020 2360     		str	r3, [r4]	@ float
 407 0022 174B     		ldr	r3, .L21+8
 408 0024 6360     		str	r3, [r4, #4]	@ float
 409 0026 174A     		ldr	r2, .L21+12
 410 0028 A260     		str	r2, [r4, #8]	@ float
 411 002a E360     		str	r3, [r4, #12]	@ float
 412 002c 164A     		ldr	r2, .L21+16
 413 002e 2261     		str	r2, [r4, #16]	@ float
 414 0030 6361     		str	r3, [r4, #20]	@ float
 415 0032 164A     		ldr	r2, .L21+20
 416 0034 A261     		str	r2, [r4, #24]	@ float
 417 0036 E361     		str	r3, [r4, #28]	@ float
 418 0038 154A     		ldr	r2, .L21+24
 419 003a 2262     		str	r2, [r4, #32]	@ float
 420 003c 6362     		str	r3, [r4, #36]	@ float
 421 003e 154A     		ldr	r2, .L21+28
 422 0040 A262     		str	r2, [r4, #40]	@ float
 423 0042 E362     		str	r3, [r4, #44]	@ float
 424 0044 144B     		ldr	r3, .L21+32
 425 0046 2363     		str	r3, [r4, #48]	@ float
 426 0048 144B     		ldr	r3, .L21+36
 427 004a 6363     		str	r3, [r4, #52]	@ float
 428 004c 4FF07C53 		mov	r3, #1056964608
 429 0050 C4F89031 		str	r3, [r4, #400]	@ float
 430 0054 0723     		movs	r3, #7
 431 0056 A4F89431 		strh	r3, [r4, #404]	@ movhi
  29:Minibot/src/robot.c ****         .notes = SYSTEM_INITIALIZING,
  30:Minibot/src/robot.c ****         .loudness = 0.5f,
  31:Minibot/src/robot.c ****         .note_num = SYSTEM_INITIALIZING_NOTE_NUM,
  32:Minibot/src/robot.c ****     };
  33:Minibot/src/robot.c ****     Buzzer_Play_Melody(system_init_melody); // TODO: Change to non-blocking
 432              		.loc 1 33 5 is_stmt 1 view .LVU79
 433 005a 4FF4C472 		mov	r2, #392
 434 005e 66A9     		add	r1, sp, #408
 435 0060 6846     		mov	r0, sp
 436 0062 FFF7FEFF 		bl	memcpy
 437              	.LVL29:
 438 0066 94E80F00 		ldm	r4, {r0, r1, r2, r3}
 439 006a FFF7FEFF 		bl	Buzzer_Play_Melody
 440              	.LVL30:
  34:Minibot/src/robot.c **** 
  35:Minibot/src/robot.c ****     // Initialize all tasks
  36:Minibot/src/robot.c ****     Robot_Tasks_Start();
 441              		.loc 1 36 5 view .LVU80
 442 006e FFF7FEFF 		bl	Robot_Tasks_Start
 443              	.LVL31:
  37:Minibot/src/robot.c **** }
 444              		.loc 1 37 1 is_stmt 0 view .LVU81
 445 0072 0DF5497D 		add	sp, sp, #804
 446              	.LCFI14:
ARM GAS  /var/folders/sg/pxk9dyzj7jz_x3889hx3b3dw0000gn/T//ccZjbuO9.s 			page 12


 447              		.cfi_def_cfa_offset 12
 448              		@ sp needed
 449 0076 30BD     		pop	{r4, r5, pc}
 450              	.L22:
 451              		.align	2
 452              	.L21:
 453 0078 00000000 		.word	g_robot_state
 454 007c 00008343 		.word	1132658688
 455 0080 0000FA42 		.word	1123680256
 456 0084 0000A543 		.word	1134886912
 457 0088 0000C443 		.word	1136918528
 458 008c 00C00244 		.word	1141030912
 459 0090 00C02444 		.word	1143259136
 460 0094 00004444 		.word	1145307136
 461 0098 00E08244 		.word	1149427712
 462 009c 0000FA43 		.word	1140457472
 463              		.cfi_endproc
 464              	.LFE149:
 466              		.section	.text.Handle_Starting_Up_State,"ax",%progbits
 467              		.align	1
 468              		.global	Handle_Starting_Up_State
 469              		.syntax unified
 470              		.thumb
 471              		.thumb_func
 473              	Handle_Starting_Up_State:
 474              	.LFB150:
  38:Minibot/src/robot.c **** 
  39:Minibot/src/robot.c **** /**
  40:Minibot/src/robot.c ****  * @brief This function handles the starting up state of the robot, initializing all hardware.
  41:Minibot/src/robot.c ****  */
  42:Minibot/src/robot.c **** void Handle_Starting_Up_State()
  43:Minibot/src/robot.c **** {
 475              		.loc 1 43 1 is_stmt 1 view -0
 476              		.cfi_startproc
 477              		@ args = 0, pretend = 0, frame = 0
 478              		@ frame_needed = 0, uses_anonymous_args = 0
 479 0000 08B5     		push	{r3, lr}
 480              	.LCFI15:
 481              		.cfi_def_cfa_offset 8
 482              		.cfi_offset 3, -8
 483              		.cfi_offset 14, -4
  44:Minibot/src/robot.c ****     // Initialize all hardware
  45:Minibot/src/robot.c ****     Chassis_Task_Init();
 484              		.loc 1 45 5 view .LVU83
 485 0002 FFF7FEFF 		bl	Chassis_Task_Init
 486              	.LVL32:
  46:Minibot/src/robot.c ****     Gimbal_Task_Init();
 487              		.loc 1 46 5 view .LVU84
 488 0006 FFF7FEFF 		bl	Gimbal_Task_Init
 489              	.LVL33:
  47:Minibot/src/robot.c ****     Launch_Task_Init();
 490              		.loc 1 47 5 view .LVU85
 491 000a FFF7FEFF 		bl	Launch_Task_Init
 492              	.LVL34:
  48:Minibot/src/robot.c ****     Remote_Init(&huart3);
 493              		.loc 1 48 5 view .LVU86
 494 000e 0648     		ldr	r0, .L25
ARM GAS  /var/folders/sg/pxk9dyzj7jz_x3889hx3b3dw0000gn/T//ccZjbuO9.s 			page 13


 495 0010 FFF7FEFF 		bl	Remote_Init
 496              	.LVL35:
  49:Minibot/src/robot.c ****     CAN_Service_Init();
 497              		.loc 1 49 5 view .LVU87
 498 0014 FFF7FEFF 		bl	CAN_Service_Init
 499              	.LVL36:
  50:Minibot/src/robot.c ****     Referee_System_Init(&huart1);
 500              		.loc 1 50 5 view .LVU88
 501 0018 0448     		ldr	r0, .L25+4
 502 001a FFF7FEFF 		bl	Referee_System_Init
 503              	.LVL37:
  51:Minibot/src/robot.c **** 
  52:Minibot/src/robot.c ****     // Set robot state to disabled
  53:Minibot/src/robot.c ****     g_robot_state.state = DISABLED;
 504              		.loc 1 53 5 view .LVU89
 505              		.loc 1 53 25 is_stmt 0 view .LVU90
 506 001e 044B     		ldr	r3, .L25+8
 507 0020 0122     		movs	r2, #1
 508 0022 1A70     		strb	r2, [r3]
  54:Minibot/src/robot.c **** }
 509              		.loc 1 54 1 view .LVU91
 510 0024 08BD     		pop	{r3, pc}
 511              	.L26:
 512 0026 00BF     		.align	2
 513              	.L25:
 514 0028 00000000 		.word	huart3
 515 002c 00000000 		.word	huart1
 516 0030 00000000 		.word	g_robot_state
 517              		.cfi_endproc
 518              	.LFE150:
 520              		.section	.text.Handle_Enabled_State,"ax",%progbits
 521              		.align	1
 522              		.global	Handle_Enabled_State
 523              		.syntax unified
 524              		.thumb
 525              		.thumb_func
 527              	Handle_Enabled_State:
 528              	.LFB151:
  55:Minibot/src/robot.c **** 
  56:Minibot/src/robot.c **** /**
  57:Minibot/src/robot.c ****  * @brief This function handles the enabled state of the robot.
  58:Minibot/src/robot.c ****  * This means processing remote input, and subsystem control.
  59:Minibot/src/robot.c ****  */
  60:Minibot/src/robot.c **** void Handle_Enabled_State()
  61:Minibot/src/robot.c **** {
 529              		.loc 1 61 1 is_stmt 1 view -0
 530              		.cfi_startproc
 531              		@ args = 0, pretend = 0, frame = 0
 532              		@ frame_needed = 0, uses_anonymous_args = 0
 533 0000 08B5     		push	{r3, lr}
 534              	.LCFI16:
 535              		.cfi_def_cfa_offset 8
 536              		.cfi_offset 3, -8
 537              		.cfi_offset 14, -4
  62:Minibot/src/robot.c ****     if (g_remote.online_flag == REMOTE_OFFLINE || g_remote.controller.right_switch == DOWN)
 538              		.loc 1 62 5 view .LVU93
 539              		.loc 1 62 17 is_stmt 0 view .LVU94
ARM GAS  /var/folders/sg/pxk9dyzj7jz_x3889hx3b3dw0000gn/T//ccZjbuO9.s 			page 14


 540 0002 074B     		ldr	r3, .L32
 541 0004 93F82830 		ldrb	r3, [r3, #40]	@ zero_extendqisi2
 542              		.loc 1 62 8 view .LVU95
 543 0008 1BB1     		cbz	r3, .L28
 544              		.loc 1 62 70 discriminator 1 view .LVU96
 545 000a 054B     		ldr	r3, .L32
 546 000c 5B7B     		ldrb	r3, [r3, #13]	@ zero_extendqisi2
 547              		.loc 1 62 48 discriminator 1 view .LVU97
 548 000e 022B     		cmp	r3, #2
 549 0010 03D1     		bne	.L29
 550              	.L28:
  63:Minibot/src/robot.c ****     {
  64:Minibot/src/robot.c ****         g_robot_state.state = DISABLED;
 551              		.loc 1 64 9 is_stmt 1 view .LVU98
 552              		.loc 1 64 29 is_stmt 0 view .LVU99
 553 0012 044B     		ldr	r3, .L32+4
 554 0014 0122     		movs	r2, #1
 555 0016 1A70     		strb	r2, [r3]
 556              	.L27:
  65:Minibot/src/robot.c ****     }
  66:Minibot/src/robot.c ****     else
  67:Minibot/src/robot.c ****     {
  68:Minibot/src/robot.c ****         // Process movement and components in enabled state
  69:Minibot/src/robot.c ****         Referee_Set_Robot_State();
  70:Minibot/src/robot.c ****         Process_Remote_Input();
  71:Minibot/src/robot.c ****         Process_Chassis_Control();
  72:Minibot/src/robot.c ****         Process_Gimbal_Control();
  73:Minibot/src/robot.c ****         Process_Launch_Control();
  74:Minibot/src/robot.c ****     }
  75:Minibot/src/robot.c **** }
 557              		.loc 1 75 1 view .LVU100
 558 0018 08BD     		pop	{r3, pc}
 559              	.L29:
  69:Minibot/src/robot.c ****         Process_Remote_Input();
 560              		.loc 1 69 9 is_stmt 1 view .LVU101
 561 001a FFF7FEFF 		bl	Referee_Set_Robot_State
 562              	.LVL38:
  70:Minibot/src/robot.c ****         Process_Chassis_Control();
 563              		.loc 1 70 9 view .LVU102
  71:Minibot/src/robot.c ****         Process_Gimbal_Control();
 564              		.loc 1 71 9 view .LVU103
  72:Minibot/src/robot.c ****         Process_Launch_Control();
 565              		.loc 1 72 9 view .LVU104
  73:Minibot/src/robot.c ****     }
 566              		.loc 1 73 9 view .LVU105
 567              		.loc 1 75 1 is_stmt 0 view .LVU106
 568 001e FBE7     		b	.L27
 569              	.L33:
 570              		.align	2
 571              	.L32:
 572 0020 00000000 		.word	g_remote
 573 0024 00000000 		.word	g_robot_state
 574              		.cfi_endproc
 575              	.LFE151:
 577              		.section	.text.Handle_Disabled_State,"ax",%progbits
 578              		.align	1
 579              		.global	Handle_Disabled_State
ARM GAS  /var/folders/sg/pxk9dyzj7jz_x3889hx3b3dw0000gn/T//ccZjbuO9.s 			page 15


 580              		.syntax unified
 581              		.thumb
 582              		.thumb_func
 584              	Handle_Disabled_State:
 585              	.LFB152:
  76:Minibot/src/robot.c **** 
  77:Minibot/src/robot.c **** /**
  78:Minibot/src/robot.c ****  * @brief This function handles the disabled state of the robot.
  79:Minibot/src/robot.c ****  * This means disabling all motors and components
  80:Minibot/src/robot.c ****  */
  81:Minibot/src/robot.c **** void Handle_Disabled_State()
  82:Minibot/src/robot.c **** {
 586              		.loc 1 82 1 is_stmt 1 view -0
 587              		.cfi_startproc
 588              		@ args = 0, pretend = 0, frame = 0
 589              		@ frame_needed = 0, uses_anonymous_args = 0
 590 0000 08B5     		push	{r3, lr}
 591              	.LCFI17:
 592              		.cfi_def_cfa_offset 8
 593              		.cfi_offset 3, -8
 594              		.cfi_offset 14, -4
  83:Minibot/src/robot.c ****     DJI_Motor_Disable_All();
 595              		.loc 1 83 5 view .LVU108
 596 0002 FFF7FEFF 		bl	DJI_Motor_Disable_All
 597              	.LVL39:
  84:Minibot/src/robot.c ****     //  Disable all major components
  85:Minibot/src/robot.c ****     g_robot_state.launch.IS_FLYWHEEL_ENABLED = 0;
 598              		.loc 1 85 5 view .LVU109
 599              		.loc 1 85 46 is_stmt 0 view .LVU110
 600 0006 0B4B     		ldr	r3, .L38
 601 0008 0022     		movs	r2, #0
 602 000a 83F82E20 		strb	r2, [r3, #46]
  86:Minibot/src/robot.c ****     g_robot_state.chassis.x_speed = 0;
 603              		.loc 1 86 5 is_stmt 1 view .LVU111
 604              		.loc 1 86 35 is_stmt 0 view .LVU112
 605 000e 0022     		movs	r2, #0
 606 0010 5A60     		str	r2, [r3, #4]	@ float
  87:Minibot/src/robot.c ****     g_robot_state.chassis.y_speed = 0;
 607              		.loc 1 87 5 is_stmt 1 view .LVU113
 608              		.loc 1 87 35 is_stmt 0 view .LVU114
 609 0012 9A60     		str	r2, [r3, #8]	@ float
  88:Minibot/src/robot.c **** 
  89:Minibot/src/robot.c ****     if (g_remote.online_flag == REMOTE_ONLINE && g_remote.controller.right_switch != DOWN)
 610              		.loc 1 89 5 is_stmt 1 view .LVU115
 611              		.loc 1 89 17 is_stmt 0 view .LVU116
 612 0014 084B     		ldr	r3, .L38+4
 613 0016 93F82830 		ldrb	r3, [r3, #40]	@ zero_extendqisi2
 614              		.loc 1 89 8 view .LVU117
 615 001a 012B     		cmp	r3, #1
 616 001c 00D0     		beq	.L37
 617              	.L34:
  90:Minibot/src/robot.c ****     {
  91:Minibot/src/robot.c ****         g_robot_state.state = ENABLED;
  92:Minibot/src/robot.c ****         DJI_Motor_Enable_All();
  93:Minibot/src/robot.c ****     }
  94:Minibot/src/robot.c **** }
 618              		.loc 1 94 1 view .LVU118
ARM GAS  /var/folders/sg/pxk9dyzj7jz_x3889hx3b3dw0000gn/T//ccZjbuO9.s 			page 16


 619 001e 08BD     		pop	{r3, pc}
 620              	.L37:
  89:Minibot/src/robot.c ****     {
 621              		.loc 1 89 69 discriminator 1 view .LVU119
 622 0020 054B     		ldr	r3, .L38+4
 623 0022 5B7B     		ldrb	r3, [r3, #13]	@ zero_extendqisi2
  89:Minibot/src/robot.c ****     {
 624              		.loc 1 89 47 discriminator 1 view .LVU120
 625 0024 022B     		cmp	r3, #2
 626 0026 FAD0     		beq	.L34
  91:Minibot/src/robot.c ****         DJI_Motor_Enable_All();
 627              		.loc 1 91 9 is_stmt 1 view .LVU121
  91:Minibot/src/robot.c ****         DJI_Motor_Enable_All();
 628              		.loc 1 91 29 is_stmt 0 view .LVU122
 629 0028 024B     		ldr	r3, .L38
 630 002a 0222     		movs	r2, #2
 631 002c 1A70     		strb	r2, [r3]
  92:Minibot/src/robot.c ****     }
 632              		.loc 1 92 9 is_stmt 1 view .LVU123
 633 002e FFF7FEFF 		bl	DJI_Motor_Enable_All
 634              	.LVL40:
 635              		.loc 1 94 1 is_stmt 0 view .LVU124
 636 0032 F4E7     		b	.L34
 637              	.L39:
 638              		.align	2
 639              	.L38:
 640 0034 00000000 		.word	g_robot_state
 641 0038 00000000 		.word	g_remote
 642              		.cfi_endproc
 643              	.LFE152:
 645              		.section	.text.Process_Remote_Input,"ax",%progbits
 646              		.align	1
 647              		.global	Process_Remote_Input
 648              		.syntax unified
 649              		.thumb
 650              		.thumb_func
 652              	Process_Remote_Input:
 653              	.LFB153:
  95:Minibot/src/robot.c **** 
  96:Minibot/src/robot.c **** void Process_Remote_Input()
  97:Minibot/src/robot.c **** {
 654              		.loc 1 97 1 is_stmt 1 view -0
 655              		.cfi_startproc
 656              		@ args = 0, pretend = 0, frame = 0
 657              		@ frame_needed = 0, uses_anonymous_args = 0
 658              		@ link register save eliminated.
  98:Minibot/src/robot.c ****     // USER CODE HERE
  99:Minibot/src/robot.c **** }
 659              		.loc 1 99 1 view .LVU126
 660 0000 7047     		bx	lr
 661              		.cfi_endproc
 662              	.LFE153:
 664              		.section	.text.Process_Chassis_Control,"ax",%progbits
 665              		.align	1
 666              		.global	Process_Chassis_Control
 667              		.syntax unified
 668              		.thumb
ARM GAS  /var/folders/sg/pxk9dyzj7jz_x3889hx3b3dw0000gn/T//ccZjbuO9.s 			page 17


 669              		.thumb_func
 671              	Process_Chassis_Control:
 672              	.LFB154:
 100:Minibot/src/robot.c **** 
 101:Minibot/src/robot.c **** void Process_Chassis_Control()
 102:Minibot/src/robot.c **** {
 673              		.loc 1 102 1 view -0
 674              		.cfi_startproc
 675              		@ args = 0, pretend = 0, frame = 0
 676              		@ frame_needed = 0, uses_anonymous_args = 0
 677              		@ link register save eliminated.
 103:Minibot/src/robot.c ****      // USER CODE HERE
 104:Minibot/src/robot.c **** }
 678              		.loc 1 104 1 view .LVU128
 679 0000 7047     		bx	lr
 680              		.cfi_endproc
 681              	.LFE154:
 683              		.section	.text.Process_Gimbal_Control,"ax",%progbits
 684              		.align	1
 685              		.global	Process_Gimbal_Control
 686              		.syntax unified
 687              		.thumb
 688              		.thumb_func
 690              	Process_Gimbal_Control:
 691              	.LFB155:
 105:Minibot/src/robot.c **** 
 106:Minibot/src/robot.c **** void Process_Gimbal_Control()
 107:Minibot/src/robot.c **** {
 692              		.loc 1 107 1 view -0
 693              		.cfi_startproc
 694              		@ args = 0, pretend = 0, frame = 0
 695              		@ frame_needed = 0, uses_anonymous_args = 0
 696              		@ link register save eliminated.
 108:Minibot/src/robot.c ****      // USER CODE HERE
 109:Minibot/src/robot.c **** }
 697              		.loc 1 109 1 view .LVU130
 698 0000 7047     		bx	lr
 699              		.cfi_endproc
 700              	.LFE155:
 702              		.section	.text.Process_Launch_Control,"ax",%progbits
 703              		.align	1
 704              		.global	Process_Launch_Control
 705              		.syntax unified
 706              		.thumb
 707              		.thumb_func
 709              	Process_Launch_Control:
 710              	.LFB156:
 110:Minibot/src/robot.c **** 
 111:Minibot/src/robot.c **** void Process_Launch_Control()
 112:Minibot/src/robot.c **** {
 711              		.loc 1 112 1 view -0
 712              		.cfi_startproc
 713              		@ args = 0, pretend = 0, frame = 0
 714              		@ frame_needed = 0, uses_anonymous_args = 0
 715              		@ link register save eliminated.
 113:Minibot/src/robot.c ****      // USER CODE HERE
 114:Minibot/src/robot.c **** }
ARM GAS  /var/folders/sg/pxk9dyzj7jz_x3889hx3b3dw0000gn/T//ccZjbuO9.s 			page 18


 716              		.loc 1 114 1 view .LVU132
 717 0000 7047     		bx	lr
 718              		.cfi_endproc
 719              	.LFE156:
 721              		.section	.text.Robot_Command_Loop,"ax",%progbits
 722              		.align	1
 723              		.global	Robot_Command_Loop
 724              		.syntax unified
 725              		.thumb
 726              		.thumb_func
 728              	Robot_Command_Loop:
 729              	.LFB157:
 115:Minibot/src/robot.c **** 
 116:Minibot/src/robot.c **** /**
 117:Minibot/src/robot.c ****  *  This function is called periodically by the Robot Task.
 118:Minibot/src/robot.c ****  *  It serves as the top level state machine for the robot based on the current state.
 119:Minibot/src/robot.c ****  *  Appropriate functions are called.
 120:Minibot/src/robot.c ****  */
 121:Minibot/src/robot.c **** void Robot_Command_Loop()
 122:Minibot/src/robot.c **** {
 730              		.loc 1 122 1 view -0
 731              		.cfi_startproc
 732              		@ args = 0, pretend = 0, frame = 0
 733              		@ frame_needed = 0, uses_anonymous_args = 0
 734 0000 08B5     		push	{r3, lr}
 735              	.LCFI18:
 736              		.cfi_def_cfa_offset 8
 737              		.cfi_offset 3, -8
 738              		.cfi_offset 14, -4
 123:Minibot/src/robot.c ****     switch (g_robot_state.state)
 739              		.loc 1 123 5 view .LVU134
 740              		.loc 1 123 26 is_stmt 0 view .LVU135
 741 0002 094B     		ldr	r3, .L50
 742 0004 1B78     		ldrb	r3, [r3]	@ zero_extendqisi2
 743              		.loc 1 123 5 view .LVU136
 744 0006 012B     		cmp	r3, #1
 745 0008 05D0     		beq	.L45
 746 000a 022B     		cmp	r3, #2
 747 000c 06D0     		beq	.L46
 748 000e 43B9     		cbnz	r3, .L47
 124:Minibot/src/robot.c ****     {
 125:Minibot/src/robot.c ****     case STARTING_UP:
 126:Minibot/src/robot.c ****         Handle_Starting_Up_State();
 749              		.loc 1 126 9 is_stmt 1 view .LVU137
 750 0010 FFF7FEFF 		bl	Handle_Starting_Up_State
 751              	.LVL41:
 127:Minibot/src/robot.c ****         break;
 752              		.loc 1 127 9 view .LVU138
 753              	.L44:
 128:Minibot/src/robot.c ****     case DISABLED:
 129:Minibot/src/robot.c ****         Handle_Disabled_State();
 130:Minibot/src/robot.c ****         break;
 131:Minibot/src/robot.c ****     case ENABLED:
 132:Minibot/src/robot.c ****         Handle_Enabled_State();
 133:Minibot/src/robot.c ****         break;
 134:Minibot/src/robot.c ****     default:
 135:Minibot/src/robot.c ****         Error_Handler();
ARM GAS  /var/folders/sg/pxk9dyzj7jz_x3889hx3b3dw0000gn/T//ccZjbuO9.s 			page 19


 136:Minibot/src/robot.c ****         break;
 137:Minibot/src/robot.c ****     }
 138:Minibot/src/robot.c **** }
 754              		.loc 1 138 1 is_stmt 0 view .LVU139
 755 0014 08BD     		pop	{r3, pc}
 756              	.L45:
 129:Minibot/src/robot.c ****         break;
 757              		.loc 1 129 9 is_stmt 1 view .LVU140
 758 0016 FFF7FEFF 		bl	Handle_Disabled_State
 759              	.LVL42:
 130:Minibot/src/robot.c ****     case ENABLED:
 760              		.loc 1 130 9 view .LVU141
 761 001a FBE7     		b	.L44
 762              	.L46:
 132:Minibot/src/robot.c ****         break;
 763              		.loc 1 132 9 view .LVU142
 764 001c FFF7FEFF 		bl	Handle_Enabled_State
 765              	.LVL43:
 133:Minibot/src/robot.c ****     default:
 766              		.loc 1 133 9 view .LVU143
 767 0020 F8E7     		b	.L44
 768              	.L47:
 135:Minibot/src/robot.c ****         break;
 769              		.loc 1 135 9 view .LVU144
 770 0022 FFF7FEFF 		bl	Error_Handler
 771              	.LVL44:
 136:Minibot/src/robot.c ****     }
 772              		.loc 1 136 9 view .LVU145
 773              		.loc 1 138 1 is_stmt 0 view .LVU146
 774 0026 F5E7     		b	.L44
 775              	.L51:
 776              		.align	2
 777              	.L50:
 778 0028 00000000 		.word	g_robot_state
 779              		.cfi_endproc
 780              	.LFE157:
 782              		.section	.text.Robot_Tasks_Robot_Command,"ax",%progbits
 783              		.align	1
 784              		.global	Robot_Tasks_Robot_Command
 785              		.syntax unified
 786              		.thumb
 787              		.thumb_func
 789              	Robot_Tasks_Robot_Command:
 790              	.LVL45:
 791              	.LFB143:
  53:Minibot/inc/robot_tasks.h ****     portTickType xLastWakeTime;
 792              		.loc 2 53 1 is_stmt 1 view -0
 793              		.cfi_startproc
 794              		@ args = 0, pretend = 0, frame = 8
 795              		@ frame_needed = 0, uses_anonymous_args = 0
  53:Minibot/inc/robot_tasks.h ****     portTickType xLastWakeTime;
 796              		.loc 2 53 1 is_stmt 0 view .LVU148
 797 0000 00B5     		push	{lr}
 798              	.LCFI19:
 799              		.cfi_def_cfa_offset 4
 800              		.cfi_offset 14, -4
 801 0002 83B0     		sub	sp, sp, #12
ARM GAS  /var/folders/sg/pxk9dyzj7jz_x3889hx3b3dw0000gn/T//ccZjbuO9.s 			page 20


 802              	.LCFI20:
 803              		.cfi_def_cfa_offset 16
  54:Minibot/inc/robot_tasks.h ****     xLastWakeTime = xTaskGetTickCount();
 804              		.loc 2 54 5 is_stmt 1 view .LVU149
  55:Minibot/inc/robot_tasks.h ****     const TickType_t TimeIncrement = pdMS_TO_TICKS(2);
 805              		.loc 2 55 5 view .LVU150
  55:Minibot/inc/robot_tasks.h ****     const TickType_t TimeIncrement = pdMS_TO_TICKS(2);
 806              		.loc 2 55 21 is_stmt 0 view .LVU151
 807 0004 FFF7FEFF 		bl	xTaskGetTickCount
 808              	.LVL46:
  55:Minibot/inc/robot_tasks.h ****     const TickType_t TimeIncrement = pdMS_TO_TICKS(2);
 809              		.loc 2 55 19 discriminator 1 view .LVU152
 810 0008 0190     		str	r0, [sp, #4]
  56:Minibot/inc/robot_tasks.h ****     while (1)
 811              		.loc 2 56 5 is_stmt 1 view .LVU153
 812              	.LVL47:
 813              	.L53:
  57:Minibot/inc/robot_tasks.h ****     {
 814              		.loc 2 57 5 view .LVU154
  59:Minibot/inc/robot_tasks.h ****         vTaskDelayUntil(&xLastWakeTime, TimeIncrement);
 815              		.loc 2 59 9 view .LVU155
 816 000a FFF7FEFF 		bl	Robot_Command_Loop
 817              	.LVL48:
  60:Minibot/inc/robot_tasks.h ****     }
 818              		.loc 2 60 9 discriminator 1 view .LVU156
 819 000e 0221     		movs	r1, #2
 820 0010 01A8     		add	r0, sp, #4
 821 0012 FFF7FEFF 		bl	vTaskDelayUntil
 822              	.LVL49:
  57:Minibot/inc/robot_tasks.h ****     {
 823              		.loc 2 57 11 view .LVU157
 824 0016 F8E7     		b	.L53
 825              		.cfi_endproc
 826              	.LFE143:
 828              		.section	.rodata.str1.4,"aMS",%progbits,1
 829              		.align	2
 830              	.LC10:
 831 0000 6461656D 		.ascii	"daemon_task\000"
 831      6F6E5F74 
 831      61736B00 
 832              		.align	2
 833              	.LC8:
 834 000c 64656275 		.ascii	"debug_task\000"
 834      675F7461 
 834      736B00
 835 0017 00       		.align	2
 836              	.LC6:
 837 0018 75695F74 		.ascii	"ui_task\000"
 837      61736B00 
 838              		.align	2
 839              	.LC4:
 840 0020 726F626F 		.ascii	"robot_command_task\000"
 840      745F636F 
 840      6D6D616E 
 840      645F7461 
 840      736B00
 841 0033 00       		.align	2
ARM GAS  /var/folders/sg/pxk9dyzj7jz_x3889hx3b3dw0000gn/T//ccZjbuO9.s 			page 21


 842              	.LC2:
 843 0034 6D6F746F 		.ascii	"motor_task\000"
 843      725F7461 
 843      736B00
 844 003f 00       		.align	2
 845              	.LC0:
 846 0040 696D755F 		.ascii	"imu_task\000"
 846      7461736B 
 846      00
 847              		.global	g_robot_state
 848              		.section	.bss.g_robot_state,"aw",%nobits
 849              		.align	2
 852              	g_robot_state:
 853 0000 00000000 		.space	92
 853      00000000 
 853      00000000 
 853      00000000 
 853      00000000 
 854              		.global	daemon_task_handle
 855              		.section	.bss.daemon_task_handle,"aw",%nobits
 856              		.align	2
 859              	daemon_task_handle:
 860 0000 00000000 		.space	4
 861              		.global	debug_task_handle
 862              		.section	.bss.debug_task_handle,"aw",%nobits
 863              		.align	2
 866              	debug_task_handle:
 867 0000 00000000 		.space	4
 868              		.global	ui_task_handle
 869              		.section	.bss.ui_task_handle,"aw",%nobits
 870              		.align	2
 873              	ui_task_handle:
 874 0000 00000000 		.space	4
 875              		.global	motor_task_handle
 876              		.section	.bss.motor_task_handle,"aw",%nobits
 877              		.align	2
 880              	motor_task_handle:
 881 0000 00000000 		.space	4
 882              		.global	robot_command_task_handle
 883              		.section	.bss.robot_command_task_handle,"aw",%nobits
 884              		.align	2
 887              	robot_command_task_handle:
 888 0000 00000000 		.space	4
 889              		.global	imu_task_handle
 890              		.section	.bss.imu_task_handle,"aw",%nobits
 891              		.align	2
 894              	imu_task_handle:
 895 0000 00000000 		.space	4
 896              		.section	.rodata
 897              		.align	2
 898              		.set	.LANCHOR0,. + 0
 899              	.LC12:
 900 0000 40000000 		.word	.LC0
 901 0004 00000000 		.word	Robot_Tasks_IMU
 902 0008 0100     		.short	1
 903 000a 0000     		.space	2
 904 000c 00000000 		.word	0
ARM GAS  /var/folders/sg/pxk9dyzj7jz_x3889hx3b3dw0000gn/T//ccZjbuO9.s 			page 22


 905 0010 00040000 		.word	1024
 906 0014 00000000 		.word	0
 907 0018 00000000 		.word	0
 908              	.LC13:
 909 001c 34000000 		.word	.LC2
 910 0020 00000000 		.word	Robot_Tasks_Motor
 911 0024 0100     		.short	1
 912 0026 0000     		.space	2
 913 0028 00000000 		.word	0
 914 002c 00010000 		.word	256
 915 0030 00000000 		.word	0
 916 0034 00000000 		.word	0
 917              	.LC14:
 918 0038 20000000 		.word	.LC4
 919 003c 00000000 		.word	Robot_Tasks_Robot_Command
 920 0040 0100     		.short	1
 921 0042 0000     		.space	2
 922 0044 00000000 		.word	0
 923 0048 00010000 		.word	256
 924 004c 00000000 		.word	0
 925 0050 00000000 		.word	0
 926              	.LC15:
 927 0054 18000000 		.word	.LC6
 928 0058 00000000 		.word	Robot_Tasks_UI
 929 005c 0100     		.short	1
 930 005e 0000     		.space	2
 931 0060 00000000 		.word	0
 932 0064 00010000 		.word	256
 933 0068 00000000 		.word	0
 934 006c 00000000 		.word	0
 935              	.LC16:
 936 0070 0C000000 		.word	.LC8
 937 0074 00000000 		.word	Robot_Tasks_Debug
 938 0078 FDFF     		.short	-3
 939 007a 0000     		.space	2
 940 007c 00000000 		.word	0
 941 0080 00010000 		.word	256
 942 0084 00000000 		.word	0
 943 0088 00000000 		.word	0
 944              	.LC17:
 945 008c 00000000 		.word	.LC10
 946 0090 00000000 		.word	Robot_Tasks_Daemon
 947 0094 0100     		.short	1
 948 0096 0000     		.space	2
 949 0098 00000000 		.word	0
 950 009c 00010000 		.word	256
 951 00a0 00000000 		.word	0
 952 00a4 00000000 		.word	0
 953              		.text
 954              	.Letext0:
 955              		.file 3 "/Applications/ArmGNUToolchain/14.3.rel1/arm-none-eabi/arm-none-eabi/include/machine/_defa
 956              		.file 4 "/Applications/ArmGNUToolchain/14.3.rel1/arm-none-eabi/arm-none-eabi/include/sys/_stdint.h
 957              		.file 5 "Minibot/inc/robot.h"
 958              		.file 6 "control-base/typec-board-base/Middlewares/Third_Party/FreeRTOS/Source/portable/GCC/ARM_CM
 959              		.file 7 "control-base/typec-board-base/Middlewares/Third_Party/FreeRTOS/Source/include/FreeRTOS.h"
 960              		.file 8 "control-base/typec-board-base/Middlewares/Third_Party/FreeRTOS/Source/include/task.h"
 961              		.file 9 "control-base/typec-board-base/Drivers/CMSIS/Device/ST/STM32F4xx/Include/stm32f407xx.h"
ARM GAS  /var/folders/sg/pxk9dyzj7jz_x3889hx3b3dw0000gn/T//ccZjbuO9.s 			page 23


 962              		.file 10 "control-base/typec-board-base/Drivers/STM32F4xx_HAL_Driver/Inc/stm32f4xx_hal_def.h"
 963              		.file 11 "control-base/typec-board-base/Drivers/STM32F4xx_HAL_Driver/Inc/stm32f4xx_hal_dma.h"
 964              		.file 12 "control-base/typec-board-base/Drivers/STM32F4xx_HAL_Driver/Inc/stm32f4xx_hal_uart.h"
 965              		.file 13 "control-base/typec-board-base/Middlewares/Third_Party/FreeRTOS/Source/CMSIS_RTOS/cmsis_o
 966              		.file 14 "control-base/typec-board-base/Core/Inc/usart.h"
 967              		.file 15 "control-base/devices/inc/remote.h"
 968              		.file 16 "control-base/devices/inc/buzzer.h"
 969              		.file 17 "control-base/devices/inc/dji_motor.h"
 970              		.file 18 "control-base/typec-board-base/Core/Inc/main.h"
 971              		.file 19 "control-base/devices/inc/referee_system.h"
 972              		.file 20 "control-base/bsp/inc/bsp_can.h"
 973              		.file 21 "Minibot/inc/launch_task.h"
 974              		.file 22 "Minibot/inc/gimbal_task.h"
 975              		.file 23 "Minibot/inc/chassis_task.h"
 976              		.file 24 "control-base/bsp/inc/bsp_daemon.h"
 977              		.file 25 "Minibot/inc/debug_task.h"
 978              		.file 26 "Minibot/inc/motor_task.h"
 979              		.file 27 "<built-in>"
ARM GAS  /var/folders/sg/pxk9dyzj7jz_x3889hx3b3dw0000gn/T//ccZjbuO9.s 			page 24

