ARM GAS  /var/folders/sg/pxk9dyzj7jz_x3889hx3b3dw0000gn/T//ccIQseOU.s 			page 1


   1              		.cpu cortex-m4
   2              		.arch armv7e-m
   3              		.fpu fpv4-sp-d16
   4              		.eabi_attribute 27, 1
   5              		.eabi_attribute 28, 1
   6              		.eabi_attribute 20, 1
   7              		.eabi_attribute 21, 1
   8              		.eabi_attribute 23, 3
   9              		.eabi_attribute 24, 1
  10              		.eabi_attribute 25, 1
  11              		.eabi_attribute 26, 1
  12              		.eabi_attribute 30, 1
  13              		.eabi_attribute 34, 1
  14              		.eabi_attribute 18, 4
  15              		.file	"chassis_task.c"
  16              		.text
  17              	.Ltext0:
  18              		.cfi_sections	.debug_frame
  19              		.file 1 "Swerve-Standard/src/chassis_task.c"
  20              		.section	.text.Chassis_Task_Init,"ax",%progbits
  21              		.align	1
  22              		.global	Chassis_Task_Init
  23              		.syntax unified
  24              		.thumb
  25              		.thumb_func
  27              	Chassis_Task_Init:
  28              	.LFB142:
   1:Swerve-Standard/src/chassis_task.c **** #include "chassis_task.h"
   2:Swerve-Standard/src/chassis_task.c **** 
   3:Swerve-Standard/src/chassis_task.c **** #include "robot.h"
   4:Swerve-Standard/src/chassis_task.c **** #include "remote.h"
   5:Swerve-Standard/src/chassis_task.c **** #include "dji_motor.h"
   6:Swerve-Standard/src/chassis_task.c **** #include "motor.h"
   7:Swerve-Standard/src/chassis_task.c **** #include "referee_system.h"
   8:Swerve-Standard/src/chassis_task.c **** #include "swerve_locomotion.h"
   9:Swerve-Standard/src/chassis_task.c **** #include "rate_limiter.h"
  10:Swerve-Standard/src/chassis_task.c **** 
  11:Swerve-Standard/src/chassis_task.c **** extern Robot_State_t g_robot_state;
  12:Swerve-Standard/src/chassis_task.c **** extern Remote_t g_remote;
  13:Swerve-Standard/src/chassis_task.c **** extern Referee_System_t Referee_System;
  14:Swerve-Standard/src/chassis_task.c **** 
  15:Swerve-Standard/src/chassis_task.c **** DJI_Motor_Handle_t *g_azimuth_motors[NUMBER_OF_MODULES];
  16:Swerve-Standard/src/chassis_task.c **** DJI_Motor_Handle_t *g_drive_motors[NUMBER_OF_MODULES];
  17:Swerve-Standard/src/chassis_task.c **** swerve_constants_t g_swerve_constants;
  18:Swerve-Standard/src/chassis_task.c **** swerve_chassis_state_t g_chassis_state;
  19:Swerve-Standard/src/chassis_task.c **** float measured_angles[NUMBER_OF_MODULES];
  20:Swerve-Standard/src/chassis_task.c **** 
  21:Swerve-Standard/src/chassis_task.c **** rate_limiter_t chassis_vel_limiters[4];
  22:Swerve-Standard/src/chassis_task.c **** rate_limiter_t chassis_omega_limiter;
  23:Swerve-Standard/src/chassis_task.c **** 
  24:Swerve-Standard/src/chassis_task.c **** float chassis_rad = WHEEL_BASE * 1.414f; //TODO init?
  25:Swerve-Standard/src/chassis_task.c **** 
  26:Swerve-Standard/src/chassis_task.c **** float g_spintop_omega = SPIN_TOP_OMEGA;
  27:Swerve-Standard/src/chassis_task.c **** 
  28:Swerve-Standard/src/chassis_task.c **** void Chassis_Task_Init()
  29:Swerve-Standard/src/chassis_task.c **** {
  29              		.loc 1 29 1 view -0
ARM GAS  /var/folders/sg/pxk9dyzj7jz_x3889hx3b3dw0000gn/T//ccIQseOU.s 			page 2


  30              		.cfi_startproc
  31              		@ args = 0, pretend = 0, frame = 592
  32              		@ frame_needed = 0, uses_anonymous_args = 0
  33 0000 70B5     		push	{r4, r5, r6, lr}
  34              	.LCFI0:
  35              		.cfi_def_cfa_offset 16
  36              		.cfi_offset 4, -16
  37              		.cfi_offset 5, -12
  38              		.cfi_offset 6, -8
  39              		.cfi_offset 14, -4
  40 0002 ADF5147D 		sub	sp, sp, #592
  41              	.LCFI1:
  42              		.cfi_def_cfa_offset 608
  30:Swerve-Standard/src/chassis_task.c ****     // init common PID configuration for azimuth motors
  31:Swerve-Standard/src/chassis_task.c ****     Motor_Config_t azimuth_motor_config = {
  43              		.loc 1 31 5 view .LVU1
  44              		.loc 1 31 20 is_stmt 0 view .LVU2
  45 0006 B426     		movs	r6, #180
  46 0008 3246     		mov	r2, r6
  47 000a 0021     		movs	r1, #0
  48 000c 67A8     		add	r0, sp, #412
  49 000e FFF7FEFF 		bl	memset
  50              	.LVL0:
  51 0012 0B23     		movs	r3, #11
  52 0014 8DF8A731 		strb	r3, [sp, #423]
  53 0018 484B     		ldr	r3, .L7
  54 001a 6D93     		str	r3, [sp, #436]	@ float
  55 001c 484B     		ldr	r3, .L7+4
  56 001e 6F93     		str	r3, [sp, #444]	@ float
  57 0020 484B     		ldr	r3, .L7+8
  58 0022 7593     		str	r3, [sp, #468]	@ float
  59 0024 7A93     		str	r3, [sp, #488]	@ float
  60 0026 484D     		ldr	r5, .L7+12
  61 0028 7C95     		str	r5, [sp, #496]	@ float
  62 002a 484B     		ldr	r3, .L7+16
  63 002c 7D93     		str	r3, [sp, #500]	@ float
  64 002e 484B     		ldr	r3, .L7+20
  65 0030 7E93     		str	r3, [sp, #504]	@ float
  66 0032 7F93     		str	r3, [sp, #508]	@ float
  67 0034 474B     		ldr	r3, .L7+24
  68 0036 8293     		str	r3, [sp, #520]	@ float
  32:Swerve-Standard/src/chassis_task.c ****         .control_mode = POSITION_VELOCITY_SERIES,
  33:Swerve-Standard/src/chassis_task.c ****         .angle_pid =
  34:Swerve-Standard/src/chassis_task.c ****             {
  35:Swerve-Standard/src/chassis_task.c ****                 .kp = 400.0f,
  36:Swerve-Standard/src/chassis_task.c ****                 .kd = 20.0f,
  37:Swerve-Standard/src/chassis_task.c ****                 .output_limit = 300.0f,
  38:Swerve-Standard/src/chassis_task.c ****             },
  39:Swerve-Standard/src/chassis_task.c ****         .velocity_pid =
  40:Swerve-Standard/src/chassis_task.c ****             {
  41:Swerve-Standard/src/chassis_task.c ****                 .kp = 300.0f,
  42:Swerve-Standard/src/chassis_task.c ****                 .ki = 0.0f,
  43:Swerve-Standard/src/chassis_task.c ****                 .kd = 100.0f,
  44:Swerve-Standard/src/chassis_task.c ****                 .kf = 2000.0f,
  45:Swerve-Standard/src/chassis_task.c ****                 .feedforward_limit = 5000.0f,
  46:Swerve-Standard/src/chassis_task.c ****                 .integral_limit = 5000.0f,
  47:Swerve-Standard/src/chassis_task.c ****                 .output_limit = GM6020_MAX_VOLTAGE_INT,
ARM GAS  /var/folders/sg/pxk9dyzj7jz_x3889hx3b3dw0000gn/T//ccIQseOU.s 			page 3


  48:Swerve-Standard/src/chassis_task.c ****             }};
  49:Swerve-Standard/src/chassis_task.c **** 
  50:Swerve-Standard/src/chassis_task.c ****     // init common PID configuration for drive motors
  51:Swerve-Standard/src/chassis_task.c ****     Motor_Config_t drive_motor_config = {
  69              		.loc 1 51 5 is_stmt 1 view .LVU3
  70              		.loc 1 51 20 is_stmt 0 view .LVU4
  71 0038 3AAC     		add	r4, sp, #232
  72 003a 3246     		mov	r2, r6
  73 003c 0021     		movs	r1, #0
  74 003e 2046     		mov	r0, r4
  75 0040 FFF7FEFF 		bl	memset
  76              	.LVL1:
  77 0044 0123     		movs	r3, #1
  78 0046 8DF8F330 		strb	r3, [sp, #243]
  79 004a 434B     		ldr	r3, .L7+28
  80 004c 4D93     		str	r3, [sp, #308]	@ float
  81 004e 434B     		ldr	r3, .L7+32
  82 0050 4F93     		str	r3, [sp, #316]	@ float
  83 0052 5095     		str	r5, [sp, #320]	@ float
  84 0054 424B     		ldr	r3, .L7+36
  85 0056 5193     		str	r3, [sp, #324]	@ float
  86 0058 424B     		ldr	r3, .L7+40
  87 005a 5593     		str	r3, [sp, #340]	@ float
  52:Swerve-Standard/src/chassis_task.c ****         .control_mode = VELOCITY_CONTROL,
  53:Swerve-Standard/src/chassis_task.c ****         .velocity_pid = {
  54:Swerve-Standard/src/chassis_task.c ****             .kp = 500.0f,
  55:Swerve-Standard/src/chassis_task.c ****             .kd = 200.0f,
  56:Swerve-Standard/src/chassis_task.c ****             .kf = 100.0f,
  57:Swerve-Standard/src/chassis_task.c ****             .output_limit = M3508_MAX_CURRENT_INT,
  58:Swerve-Standard/src/chassis_task.c ****             .integral_limit = 3000.0f,
  59:Swerve-Standard/src/chassis_task.c ****         }};
  60:Swerve-Standard/src/chassis_task.c **** 
  61:Swerve-Standard/src/chassis_task.c ****     // Initialize the swerve modules
  62:Swerve-Standard/src/chassis_task.c ****     typedef struct
  88              		.loc 1 62 5 is_stmt 1 view .LVU5
  63:Swerve-Standard/src/chassis_task.c ****     {
  64:Swerve-Standard/src/chassis_task.c ****         float azimuth_can_bus;
  65:Swerve-Standard/src/chassis_task.c ****         float azimuth_speed_controller_id;
  66:Swerve-Standard/src/chassis_task.c ****         float azimuth_offset;
  67:Swerve-Standard/src/chassis_task.c ****         Motor_Reversal_t azimuth_motor_reversal;
  68:Swerve-Standard/src/chassis_task.c **** 
  69:Swerve-Standard/src/chassis_task.c ****         float drive_can_bus;
  70:Swerve-Standard/src/chassis_task.c ****         float drive_speed_controller_id;
  71:Swerve-Standard/src/chassis_task.c ****         Motor_Reversal_t drive_motor_reversal;
  72:Swerve-Standard/src/chassis_task.c ****     } swerve_module_config_t;
  73:Swerve-Standard/src/chassis_task.c **** 
  74:Swerve-Standard/src/chassis_task.c ****     swerve_module_config_t module_configs[NUMBER_OF_MODULES] = {
  89              		.loc 1 74 5 view .LVU6
  90              		.loc 1 74 28 is_stmt 0 view .LVU7
  91 005c 7022     		movs	r2, #112
  92 005e 4249     		ldr	r1, .L7+44
  93 0060 1EA8     		add	r0, sp, #120
  94 0062 FFF7FEFF 		bl	memcpy
  95              	.LVL2:
  75:Swerve-Standard/src/chassis_task.c ****         {2, 1, 2050, MOTOR_REVERSAL_REVERSED, 1, 1, MOTOR_REVERSAL_NORMAL},
  76:Swerve-Standard/src/chassis_task.c ****         {2, 2, 3940, MOTOR_REVERSAL_REVERSED, 2, 2, MOTOR_REVERSAL_NORMAL},
  77:Swerve-Standard/src/chassis_task.c ****         {2, 3, 1430, MOTOR_REVERSAL_REVERSED, 2, 3, MOTOR_REVERSAL_REVERSED},
ARM GAS  /var/folders/sg/pxk9dyzj7jz_x3889hx3b3dw0000gn/T//ccIQseOU.s 			page 4


  78:Swerve-Standard/src/chassis_task.c ****         {2, 4, 8150, MOTOR_REVERSAL_REVERSED, 2, 4, MOTOR_REVERSAL_REVERSED}};
  79:Swerve-Standard/src/chassis_task.c **** 
  80:Swerve-Standard/src/chassis_task.c ****     // Initialize the swerve modules
  81:Swerve-Standard/src/chassis_task.c ****     for (int i = 0; i < NUMBER_OF_MODULES; i++)
  96              		.loc 1 81 5 is_stmt 1 view .LVU8
  97              	.LBB2:
  98              		.loc 1 81 10 view .LVU9
  99              		.loc 1 81 14 is_stmt 0 view .LVU10
 100 0066 0025     		movs	r5, #0
 101              		.loc 1 81 5 view .LVU11
 102 0068 3EE0     		b	.L2
 103              	.LVL3:
 104              	.L3:
  82:Swerve-Standard/src/chassis_task.c ****     {
  83:Swerve-Standard/src/chassis_task.c ****         // configure azimuth motor
  84:Swerve-Standard/src/chassis_task.c ****         azimuth_motor_config.can_bus = module_configs[i].azimuth_can_bus;
 105              		.loc 1 84 9 is_stmt 1 view .LVU12
 106              		.loc 1 84 57 is_stmt 0 view .LVU13
 107 006a C5EBC503 		rsb	r3, r5, r5, lsl #3
 108 006e 1EAC     		add	r4, sp, #120
 109 0070 04EB8304 		add	r4, r4, r3, lsl #2
 110 0074 D4ED007A 		vldr.32	s15, [r4]
 111              		.loc 1 84 38 view .LVU14
 112 0078 FCEEE77A 		vcvt.u32.f32	s15, s15
 113 007c 17EE903A 		vmov	r3, s15	@ int
 114 0080 8DF89C31 		strb	r3, [sp, #412]
  85:Swerve-Standard/src/chassis_task.c ****         azimuth_motor_config.offset = module_configs[i].azimuth_offset;
 115              		.loc 1 85 9 is_stmt 1 view .LVU15
 116              		.loc 1 85 56 is_stmt 0 view .LVU16
 117 0084 D4ED027A 		vldr.32	s15, [r4, #8]
 118              		.loc 1 85 37 view .LVU17
 119 0088 FCEEE77A 		vcvt.u32.f32	s15, s15
 120 008c 17EE903A 		vmov	r3, s15	@ int
 121 0090 ADF8A431 		strh	r3, [sp, #420]	@ movhi
  86:Swerve-Standard/src/chassis_task.c ****         azimuth_motor_config.speed_controller_id = module_configs[i].azimuth_speed_controller_id;
 122              		.loc 1 86 9 is_stmt 1 view .LVU18
 123              		.loc 1 86 69 is_stmt 0 view .LVU19
 124 0094 D4ED017A 		vldr.32	s15, [r4, #4]
 125              		.loc 1 86 50 view .LVU20
 126 0098 FCEEE77A 		vcvt.u32.f32	s15, s15
 127 009c 17EE903A 		vmov	r3, s15	@ int
 128 00a0 8DF8A231 		strb	r3, [sp, #418]
  87:Swerve-Standard/src/chassis_task.c ****         azimuth_motor_config.motor_reversal = module_configs[i].azimuth_motor_reversal;
 129              		.loc 1 87 9 is_stmt 1 view .LVU21
 130              		.loc 1 87 64 is_stmt 0 view .LVU22
 131 00a4 237B     		ldrb	r3, [r4, #12]	@ zero_extendqisi2
 132              		.loc 1 87 45 view .LVU23
 133 00a6 8DF8A631 		strb	r3, [sp, #422]
  88:Swerve-Standard/src/chassis_task.c ****         g_azimuth_motors[i] = DJI_Motor_Init(&azimuth_motor_config, GM6020);
 134              		.loc 1 88 9 is_stmt 1 view .LVU24
 135              		.loc 1 88 31 is_stmt 0 view .LVU25
 136 00aa 0021     		movs	r1, #0
 137 00ac 67A8     		add	r0, sp, #412
 138 00ae FFF7FEFF 		bl	DJI_Motor_Init
 139              	.LVL4:
 140              		.loc 1 88 29 discriminator 1 view .LVU26
 141 00b2 2E4B     		ldr	r3, .L7+48
ARM GAS  /var/folders/sg/pxk9dyzj7jz_x3889hx3b3dw0000gn/T//ccIQseOU.s 			page 5


 142 00b4 43F82500 		str	r0, [r3, r5, lsl #2]
  89:Swerve-Standard/src/chassis_task.c **** 
  90:Swerve-Standard/src/chassis_task.c ****         // configure drive motor
  91:Swerve-Standard/src/chassis_task.c ****         drive_motor_config.can_bus = module_configs[i].drive_can_bus;
 143              		.loc 1 91 9 is_stmt 1 view .LVU27
 144              		.loc 1 91 55 is_stmt 0 view .LVU28
 145 00b8 D4ED047A 		vldr.32	s15, [r4, #16]
 146              		.loc 1 91 36 view .LVU29
 147 00bc 3AA8     		add	r0, sp, #232
 148 00be FCEEE77A 		vcvt.u32.f32	s15, s15
 149 00c2 17EE903A 		vmov	r3, s15	@ int
 150 00c6 0370     		strb	r3, [r0]
  92:Swerve-Standard/src/chassis_task.c ****         drive_motor_config.speed_controller_id = module_configs[i].drive_speed_controller_id;
 151              		.loc 1 92 9 is_stmt 1 view .LVU30
 152              		.loc 1 92 67 is_stmt 0 view .LVU31
 153 00c8 D4ED057A 		vldr.32	s15, [r4, #20]
 154              		.loc 1 92 48 view .LVU32
 155 00cc FCEEE77A 		vcvt.u32.f32	s15, s15
 156 00d0 17EE903A 		vmov	r3, s15	@ int
 157 00d4 8371     		strb	r3, [r0, #6]
  93:Swerve-Standard/src/chassis_task.c ****         drive_motor_config.motor_reversal = module_configs[i].drive_motor_reversal;
 158              		.loc 1 93 9 is_stmt 1 view .LVU33
 159              		.loc 1 93 62 is_stmt 0 view .LVU34
 160 00d6 237E     		ldrb	r3, [r4, #24]	@ zero_extendqisi2
 161              		.loc 1 93 43 view .LVU35
 162 00d8 8372     		strb	r3, [r0, #10]
  94:Swerve-Standard/src/chassis_task.c ****         g_drive_motors[i] = DJI_Motor_Init(&drive_motor_config, M3508);
 163              		.loc 1 94 9 is_stmt 1 view .LVU36
 164              		.loc 1 94 29 is_stmt 0 view .LVU37
 165 00da 0121     		movs	r1, #1
 166 00dc FFF7FEFF 		bl	DJI_Motor_Init
 167              	.LVL5:
 168              		.loc 1 94 27 discriminator 1 view .LVU38
 169 00e0 234B     		ldr	r3, .L7+52
 170 00e2 43F82500 		str	r0, [r3, r5, lsl #2]
  81:Swerve-Standard/src/chassis_task.c ****     {
 171              		.loc 1 81 45 is_stmt 1 discriminator 3 view .LVU39
 172 00e6 0135     		adds	r5, r5, #1
 173              	.LVL6:
 174              	.L2:
  81:Swerve-Standard/src/chassis_task.c ****     {
 175              		.loc 1 81 23 discriminator 1 view .LVU40
 176 00e8 032D     		cmp	r5, #3
 177 00ea BEDD     		ble	.L3
 178              	.LBE2:
  95:Swerve-Standard/src/chassis_task.c ****     }
  96:Swerve-Standard/src/chassis_task.c **** 
  97:Swerve-Standard/src/chassis_task.c ****     // Initialize the swerve locomotion constants
  98:Swerve-Standard/src/chassis_task.c ****     g_swerve_constants = swerve_init(TRACK_WIDTH, WHEEL_BASE, WHEEL_DIAMETER, SWERVE_MAX_SPEED, SWE
 179              		.loc 1 98 5 view .LVU41
 180              		.loc 1 98 26 is_stmt 0 view .LVU42
 181 00ec 9FED210A 		vldr.32	s0, .L7+56
 182 00f0 9FED212A 		vldr.32	s4, .L7+60
 183 00f4 DFED211A 		vldr.32	s3, .L7+64
 184 00f8 9FED211A 		vldr.32	s2, .L7+68
 185 00fc F0EE400A 		vmov.f32	s1, s0
 186 0100 6846     		mov	r0, sp
ARM GAS  /var/folders/sg/pxk9dyzj7jz_x3889hx3b3dw0000gn/T//ccIQseOU.s 			page 6


 187 0102 FFF7FEFF 		bl	swerve_init
 188              	.LVL7:
 189 0106 7422     		movs	r2, #116
 190 0108 6946     		mov	r1, sp
 191 010a 1E48     		ldr	r0, .L7+72
 192 010c FFF7FEFF 		bl	memcpy
 193              	.LVL8:
  99:Swerve-Standard/src/chassis_task.c **** 
 100:Swerve-Standard/src/chassis_task.c ****     // Initialize the rate limiters
 101:Swerve-Standard/src/chassis_task.c ****     for (int i = 0; i < NUMBER_OF_MODULES; i++)
 194              		.loc 1 101 5 is_stmt 1 view .LVU43
 195              	.LBB3:
 196              		.loc 1 101 10 view .LVU44
 197              		.loc 1 101 14 is_stmt 0 view .LVU45
 198 0110 0024     		movs	r4, #0
 199              		.loc 1 101 5 view .LVU46
 200 0112 09E0     		b	.L4
 201              	.LVL9:
 202              	.L5:
 102:Swerve-Standard/src/chassis_task.c ****     {
 103:Swerve-Standard/src/chassis_task.c ****         rate_limiter_init(&chassis_vel_limiters[i], SWERVE_MAX_WHEEL_ACCEL);
 203              		.loc 1 103 9 is_stmt 1 view .LVU47
 204 0114 04EB4400 		add	r0, r4, r4, lsl #1
 205 0118 9FED1B0A 		vldr.32	s0, .L7+76
 206 011c 1B4B     		ldr	r3, .L7+80
 207 011e 03EB8000 		add	r0, r3, r0, lsl #2
 208 0122 FFF7FEFF 		bl	rate_limiter_init
 209              	.LVL10:
 101:Swerve-Standard/src/chassis_task.c ****     {
 210              		.loc 1 101 45 discriminator 3 view .LVU48
 211 0126 0134     		adds	r4, r4, #1
 212              	.LVL11:
 213              	.L4:
 101:Swerve-Standard/src/chassis_task.c ****     {
 214              		.loc 1 101 23 discriminator 1 view .LVU49
 215 0128 032C     		cmp	r4, #3
 216 012a F3DD     		ble	.L5
 217              	.LBE3:
 104:Swerve-Standard/src/chassis_task.c ****     }
 105:Swerve-Standard/src/chassis_task.c ****     #define SWERVE_MAX_OMEGA_ACCEL (5.0f)
 106:Swerve-Standard/src/chassis_task.c ****     rate_limiter_init(&chassis_omega_limiter, SWERVE_MAX_OMEGA_ACCEL);
 218              		.loc 1 106 5 view .LVU50
 219 012c B1EE040A 		vmov.f32	s0, #5.0e+0
 220 0130 1748     		ldr	r0, .L7+84
 221 0132 FFF7FEFF 		bl	rate_limiter_init
 222              	.LVL12:
 107:Swerve-Standard/src/chassis_task.c **** }
 223              		.loc 1 107 1 is_stmt 0 view .LVU51
 224 0136 0DF5147D 		add	sp, sp, #592
 225              	.LCFI2:
 226              		.cfi_def_cfa_offset 16
 227              		@ sp needed
 228 013a 70BD     		pop	{r4, r5, r6, pc}
 229              	.LVL13:
 230              	.L8:
 231              		.loc 1 107 1 view .LVU52
 232              		.align	2
ARM GAS  /var/folders/sg/pxk9dyzj7jz_x3889hx3b3dw0000gn/T//ccIQseOU.s 			page 7


 233              	.L7:
 234 013c 0000C843 		.word	1137180672
 235 0140 0000A041 		.word	1101004800
 236 0144 00009643 		.word	1133903872
 237 0148 0000C842 		.word	1120403456
 238 014c 0000FA44 		.word	1157234688
 239 0150 00409C45 		.word	1167867904
 240 0154 00C0DA46 		.word	1188741120
 241 0158 0000FA43 		.word	1140457472
 242 015c 00004843 		.word	1128792064
 243 0160 00803B45 		.word	1161527296
 244 0164 00007A46 		.word	1182400512
 245 0168 00000000 		.word	.LANCHOR0
 246 016c 00000000 		.word	g_azimuth_motors
 247 0170 00000000 		.word	g_drive_motors
 248 0174 7B14AE3E 		.word	1051595899
 249 0178 C3F54840 		.word	1078523331
 250 017c 3333B33F 		.word	1068708659
 251 0180 8FC2F53D 		.word	1039516303
 252 0184 00000000 		.word	g_swerve_constants
 253 0188 CDCC4C3F 		.word	1061997773
 254 018c 00000000 		.word	chassis_vel_limiters
 255 0190 00000000 		.word	chassis_omega_limiter
 256              		.cfi_endproc
 257              	.LFE142:
 259              		.section	.text.Update_Maxes,"ax",%progbits
 260              		.align	1
 261              		.global	Update_Maxes
 262              		.syntax unified
 263              		.thumb
 264              		.thumb_func
 266              	Update_Maxes:
 267              	.LFB144:
 108:Swerve-Standard/src/chassis_task.c **** 
 109:Swerve-Standard/src/chassis_task.c **** void Chassis_Ctrl_Loop()
 110:Swerve-Standard/src/chassis_task.c **** {
 111:Swerve-Standard/src/chassis_task.c ****     float vx = g_robot_state.input.vx;
 112:Swerve-Standard/src/chassis_task.c ****     float vy = g_robot_state.input.vy;
 113:Swerve-Standard/src/chassis_task.c **** 
 114:Swerve-Standard/src/chassis_task.c ****     if (g_robot_state.IS_SUPER_CAPACITOR_ENABLED) {
 115:Swerve-Standard/src/chassis_task.c ****         g_swerve_constants.max_speed = 5.0;
 116:Swerve-Standard/src/chassis_task.c ****         for (int i = 0; i < NUMBER_OF_MODULES; i++) {
 117:Swerve-Standard/src/chassis_task.c ****             chassis_vel_limiters[i].rate_limit = SWERVE_QUICK_STOP_ACCEL / 2.0f;
 118:Swerve-Standard/src/chassis_task.c ****         }
 119:Swerve-Standard/src/chassis_task.c ****     } // Quick Deceleration when the joystick is released
 120:Swerve-Standard/src/chassis_task.c ****     else if ((vx * vx + vy * vy) < 0.01f) {
 121:Swerve-Standard/src/chassis_task.c ****         for (int i = 0; i < NUMBER_OF_MODULES; i++) {
 122:Swerve-Standard/src/chassis_task.c ****             chassis_vel_limiters[i].rate_limit = SWERVE_QUICK_STOP_ACCEL;
 123:Swerve-Standard/src/chassis_task.c ****         }
 124:Swerve-Standard/src/chassis_task.c ****     } else if (g_robot_state.chassis.IS_SPINTOP_ENABLED) {
 125:Swerve-Standard/src/chassis_task.c ****         // g_swerve_constants.max_speed = MAX_SPEED_W45;
 126:Swerve-Standard/src/chassis_task.c ****         for (int i = 0; i < NUMBER_OF_MODULES; i++) {
 127:Swerve-Standard/src/chassis_task.c ****             chassis_vel_limiters[i].rate_limit = SWERVE_MAX_WHEEL_ACCEL*0.7f;
 128:Swerve-Standard/src/chassis_task.c ****         }
 129:Swerve-Standard/src/chassis_task.c ****     } else {
 130:Swerve-Standard/src/chassis_task.c ****         // g_swerve_constants.max_speed = MAX_SPEED_W45;
 131:Swerve-Standard/src/chassis_task.c ****         for (int i = 0; i < NUMBER_OF_MODULES; i++) {
ARM GAS  /var/folders/sg/pxk9dyzj7jz_x3889hx3b3dw0000gn/T//ccIQseOU.s 			page 8


 132:Swerve-Standard/src/chassis_task.c ****             chassis_vel_limiters[i].rate_limit = SWERVE_MAX_WHEEL_ACCEL;
 133:Swerve-Standard/src/chassis_task.c ****         }
 134:Swerve-Standard/src/chassis_task.c ****     }
 135:Swerve-Standard/src/chassis_task.c **** 
 136:Swerve-Standard/src/chassis_task.c ****     // Control loop for the chassis
 137:Swerve-Standard/src/chassis_task.c ****     for (int i = 0; i < NUMBER_OF_MODULES; i++) {
 138:Swerve-Standard/src/chassis_task.c ****         measured_angles[i] = DJI_Motor_Get_Absolute_Angle(g_azimuth_motors[i]);
 139:Swerve-Standard/src/chassis_task.c ****     }
 140:Swerve-Standard/src/chassis_task.c ****     g_chassis_state.v_x = g_robot_state.chassis.x_speed * g_swerve_constants.max_speed;
 141:Swerve-Standard/src/chassis_task.c ****     g_chassis_state.v_y = g_robot_state.chassis.y_speed * g_swerve_constants.max_speed;
 142:Swerve-Standard/src/chassis_task.c **** 
 143:Swerve-Standard/src/chassis_task.c ****     // Offset chassis orientation based on gimbal direction
 144:Swerve-Standard/src/chassis_task.c ****     // Note: commented because currently handled in process remote input
 145:Swerve-Standard/src/chassis_task.c ****     // float theta = g_robot_state.gimbal.yaw_angle;
 146:Swerve-Standard/src/chassis_task.c ****     // g_chassis_state.v_x = g_chassis_state.v_x * cos(theta) - g_chassis_state.v_y * sin(theta);
 147:Swerve-Standard/src/chassis_task.c ****     // g_chassis_state.v_y = g_chassis_state.v_x * sin(theta) + g_chassis_state.v_y * cos(theta);
 148:Swerve-Standard/src/chassis_task.c **** 
 149:Swerve-Standard/src/chassis_task.c ****     // If spintop enabled, chassis omega set to spintop value
 150:Swerve-Standard/src/chassis_task.c ****     if (g_robot_state.chassis.IS_SPINTOP_ENABLED) {
 151:Swerve-Standard/src/chassis_task.c ****         g_chassis_state.omega = rate_limiter_iterate(&chassis_omega_limiter, Rescale_Chassis_Veloci
 152:Swerve-Standard/src/chassis_task.c ****     } else {
 153:Swerve-Standard/src/chassis_task.c ****         g_chassis_state.omega = rate_limiter_iterate(&chassis_omega_limiter, g_robot_state.chassis.
 154:Swerve-Standard/src/chassis_task.c ****     }
 155:Swerve-Standard/src/chassis_task.c **** 
 156:Swerve-Standard/src/chassis_task.c ****     // Calculate the kinematics of the chassis
 157:Swerve-Standard/src/chassis_task.c ****     swerve_calculate_kinematics(&g_chassis_state, &g_swerve_constants);
 158:Swerve-Standard/src/chassis_task.c ****     swerve_optimize_module_angles(&g_chassis_state, measured_angles);
 159:Swerve-Standard/src/chassis_task.c ****     //swerve_desaturate_wheel_speeds(&g_chassis_state, &g_swerve_constants);
 160:Swerve-Standard/src/chassis_task.c ****     
 161:Swerve-Standard/src/chassis_task.c ****     // rate limit the module speeds
 162:Swerve-Standard/src/chassis_task.c ****     for (int i = 0; i < NUMBER_OF_MODULES; i++) {
 163:Swerve-Standard/src/chassis_task.c ****         g_chassis_state.states[i].speed = rate_limiter_iterate(&chassis_vel_limiters[i], g_chassis_
 164:Swerve-Standard/src/chassis_task.c ****     }
 165:Swerve-Standard/src/chassis_task.c **** 
 166:Swerve-Standard/src/chassis_task.c ****     swerve_convert_to_rpm(&g_chassis_state, &g_swerve_constants);
 167:Swerve-Standard/src/chassis_task.c **** 
 168:Swerve-Standard/src/chassis_task.c ****     for (int i = 0; i < NUMBER_OF_MODULES; i++) {
 169:Swerve-Standard/src/chassis_task.c ****         DJI_Motor_Set_Angle(g_azimuth_motors[i], g_chassis_state.states[i].angle);
 170:Swerve-Standard/src/chassis_task.c ****         DJI_Motor_Set_Velocity(g_drive_motors[i], g_chassis_state.states[i].speed);
 171:Swerve-Standard/src/chassis_task.c ****     }
 172:Swerve-Standard/src/chassis_task.c **** 
 173:Swerve-Standard/src/chassis_task.c ****     Update_Maxes();
 174:Swerve-Standard/src/chassis_task.c **** }
 175:Swerve-Standard/src/chassis_task.c **** 
 176:Swerve-Standard/src/chassis_task.c **** void Update_Maxes()
 177:Swerve-Standard/src/chassis_task.c **** {
 268              		.loc 1 177 1 is_stmt 1 view -0
 269              		.cfi_startproc
 270              		@ args = 0, pretend = 0, frame = 0
 271              		@ frame_needed = 0, uses_anonymous_args = 0
 272              		@ link register save eliminated.
 178:Swerve-Standard/src/chassis_task.c ****     switch(Referee_System.Robot_State.Chassis_Power_Max) {
 273              		.loc 1 178 5 view .LVU54
 274              		.loc 1 178 38 is_stmt 0 view .LVU55
 275 0000 3D4B     		ldr	r3, .L23
 276 0002 B3F85B31 		ldrh	r3, [r3, #347]	@ unaligned
 277              		.loc 1 178 5 view .LVU56
ARM GAS  /var/folders/sg/pxk9dyzj7jz_x3889hx3b3dw0000gn/T//ccIQseOU.s 			page 9


 278 0006 2D3B     		subs	r3, r3, #45
 279 0008 372B     		cmp	r3, #55
 280 000a 6DD8     		bhi	.L10
 281 000c DFE803F0 		tbb	[pc, r3]
 282              	.L12:
 283 0010 1C       		.byte	(.L21-.L12)/2
 284 0011 6C       		.byte	(.L10-.L12)/2
 285 0012 6C       		.byte	(.L10-.L12)/2
 286 0013 6C       		.byte	(.L10-.L12)/2
 287 0014 6C       		.byte	(.L10-.L12)/2
 288 0015 24       		.byte	(.L20-.L12)/2
 289 0016 6C       		.byte	(.L10-.L12)/2
 290 0017 6C       		.byte	(.L10-.L12)/2
 291 0018 6C       		.byte	(.L10-.L12)/2
 292 0019 6C       		.byte	(.L10-.L12)/2
 293 001a 2C       		.byte	(.L19-.L12)/2
 294 001b 6C       		.byte	(.L10-.L12)/2
 295 001c 6C       		.byte	(.L10-.L12)/2
 296 001d 6C       		.byte	(.L10-.L12)/2
 297 001e 6C       		.byte	(.L10-.L12)/2
 298 001f 34       		.byte	(.L18-.L12)/2
 299 0020 6C       		.byte	(.L10-.L12)/2
 300 0021 6C       		.byte	(.L10-.L12)/2
 301 0022 6C       		.byte	(.L10-.L12)/2
 302 0023 6C       		.byte	(.L10-.L12)/2
 303 0024 3C       		.byte	(.L17-.L12)/2
 304 0025 6C       		.byte	(.L10-.L12)/2
 305 0026 6C       		.byte	(.L10-.L12)/2
 306 0027 6C       		.byte	(.L10-.L12)/2
 307 0028 6C       		.byte	(.L10-.L12)/2
 308 0029 44       		.byte	(.L16-.L12)/2
 309 002a 6C       		.byte	(.L10-.L12)/2
 310 002b 6C       		.byte	(.L10-.L12)/2
 311 002c 6C       		.byte	(.L10-.L12)/2
 312 002d 6C       		.byte	(.L10-.L12)/2
 313 002e 4C       		.byte	(.L15-.L12)/2
 314 002f 6C       		.byte	(.L10-.L12)/2
 315 0030 6C       		.byte	(.L10-.L12)/2
 316 0031 6C       		.byte	(.L10-.L12)/2
 317 0032 6C       		.byte	(.L10-.L12)/2
 318 0033 54       		.byte	(.L14-.L12)/2
 319 0034 6C       		.byte	(.L10-.L12)/2
 320 0035 6C       		.byte	(.L10-.L12)/2
 321 0036 6C       		.byte	(.L10-.L12)/2
 322 0037 6C       		.byte	(.L10-.L12)/2
 323 0038 6C       		.byte	(.L10-.L12)/2
 324 0039 6C       		.byte	(.L10-.L12)/2
 325 003a 6C       		.byte	(.L10-.L12)/2
 326 003b 6C       		.byte	(.L10-.L12)/2
 327 003c 6C       		.byte	(.L10-.L12)/2
 328 003d 5C       		.byte	(.L13-.L12)/2
 329 003e 6C       		.byte	(.L10-.L12)/2
 330 003f 6C       		.byte	(.L10-.L12)/2
 331 0040 6C       		.byte	(.L10-.L12)/2
 332 0041 6C       		.byte	(.L10-.L12)/2
 333 0042 6C       		.byte	(.L10-.L12)/2
 334 0043 6C       		.byte	(.L10-.L12)/2
ARM GAS  /var/folders/sg/pxk9dyzj7jz_x3889hx3b3dw0000gn/T//ccIQseOU.s 			page 10


 335 0044 6C       		.byte	(.L10-.L12)/2
 336 0045 6C       		.byte	(.L10-.L12)/2
 337 0046 6C       		.byte	(.L10-.L12)/2
 338 0047 64       		.byte	(.L11-.L12)/2
 339              		.p2align 1
 340              	.L21:
 179:Swerve-Standard/src/chassis_task.c ****         case 45:
 180:Swerve-Standard/src/chassis_task.c ****             g_swerve_constants.max_speed = MAX_SPEED_W45;
 341              		.loc 1 180 13 is_stmt 1 view .LVU57
 342              		.loc 1 180 42 is_stmt 0 view .LVU58
 343 0048 2C4B     		ldr	r3, .L23+4
 344 004a 4FF07F52 		mov	r2, #1069547520
 345 004e DA60     		str	r2, [r3, #12]	@ float
 181:Swerve-Standard/src/chassis_task.c ****             g_spintop_omega = SPINTOP_OMEGA_W45;
 346              		.loc 1 181 13 is_stmt 1 view .LVU59
 347              		.loc 1 181 29 is_stmt 0 view .LVU60
 348 0050 2B4B     		ldr	r3, .L23+8
 349 0052 2C4A     		ldr	r2, .L23+12
 350 0054 1A60     		str	r2, [r3]	@ float
 182:Swerve-Standard/src/chassis_task.c ****             break;
 351              		.loc 1 182 13 is_stmt 1 view .LVU61
 352 0056 7047     		bx	lr
 353              	.L20:
 183:Swerve-Standard/src/chassis_task.c ****         case 50:
 184:Swerve-Standard/src/chassis_task.c ****             g_swerve_constants.max_speed = MAX_SPEED_W50;
 354              		.loc 1 184 13 view .LVU62
 355              		.loc 1 184 42 is_stmt 0 view .LVU63
 356 0058 284B     		ldr	r3, .L23+4
 357 005a 4FF07F52 		mov	r2, #1069547520
 358 005e DA60     		str	r2, [r3, #12]	@ float
 185:Swerve-Standard/src/chassis_task.c ****             g_spintop_omega = SPINTOP_OMEGA_W50;
 359              		.loc 1 185 13 is_stmt 1 view .LVU64
 360              		.loc 1 185 29 is_stmt 0 view .LVU65
 361 0060 274B     		ldr	r3, .L23+8
 362 0062 294A     		ldr	r2, .L23+16
 363 0064 1A60     		str	r2, [r3]	@ float
 186:Swerve-Standard/src/chassis_task.c ****             break;
 364              		.loc 1 186 13 is_stmt 1 view .LVU66
 365 0066 7047     		bx	lr
 366              	.L19:
 187:Swerve-Standard/src/chassis_task.c ****         case 55:
 188:Swerve-Standard/src/chassis_task.c ****             g_swerve_constants.max_speed = MAX_SPEED_W55;
 367              		.loc 1 188 13 view .LVU67
 368              		.loc 1 188 42 is_stmt 0 view .LVU68
 369 0068 244B     		ldr	r3, .L23+4
 370 006a 4FF07F52 		mov	r2, #1069547520
 371 006e DA60     		str	r2, [r3, #12]	@ float
 189:Swerve-Standard/src/chassis_task.c ****             g_spintop_omega = SPINTOP_OMEGA_W55;
 372              		.loc 1 189 13 is_stmt 1 view .LVU69
 373              		.loc 1 189 29 is_stmt 0 view .LVU70
 374 0070 234B     		ldr	r3, .L23+8
 375 0072 264A     		ldr	r2, .L23+20
 376 0074 1A60     		str	r2, [r3]	@ float
 190:Swerve-Standard/src/chassis_task.c ****             break;
 377              		.loc 1 190 13 is_stmt 1 view .LVU71
 378 0076 7047     		bx	lr
 379              	.L18:
ARM GAS  /var/folders/sg/pxk9dyzj7jz_x3889hx3b3dw0000gn/T//ccIQseOU.s 			page 11


 191:Swerve-Standard/src/chassis_task.c ****         case 60:
 192:Swerve-Standard/src/chassis_task.c ****             g_swerve_constants.max_speed = MAX_SPEED_W60;
 380              		.loc 1 192 13 view .LVU72
 381              		.loc 1 192 42 is_stmt 0 view .LVU73
 382 0078 204B     		ldr	r3, .L23+4
 383 007a 4FF07F52 		mov	r2, #1069547520
 384 007e DA60     		str	r2, [r3, #12]	@ float
 193:Swerve-Standard/src/chassis_task.c ****             g_spintop_omega = SPINTOP_OMEGA_W60;
 385              		.loc 1 193 13 is_stmt 1 view .LVU74
 386              		.loc 1 193 29 is_stmt 0 view .LVU75
 387 0080 1F4B     		ldr	r3, .L23+8
 388 0082 234A     		ldr	r2, .L23+24
 389 0084 1A60     		str	r2, [r3]	@ float
 194:Swerve-Standard/src/chassis_task.c ****             break;
 390              		.loc 1 194 13 is_stmt 1 view .LVU76
 391 0086 7047     		bx	lr
 392              	.L17:
 195:Swerve-Standard/src/chassis_task.c ****         case 65:
 196:Swerve-Standard/src/chassis_task.c ****             g_swerve_constants.max_speed = MAX_SPEED_W65;
 393              		.loc 1 196 13 view .LVU77
 394              		.loc 1 196 42 is_stmt 0 view .LVU78
 395 0088 1C4B     		ldr	r3, .L23+4
 396 008a 4FF07F52 		mov	r2, #1069547520
 397 008e DA60     		str	r2, [r3, #12]	@ float
 197:Swerve-Standard/src/chassis_task.c ****             g_spintop_omega = SPINTOP_OMEGA_W65;
 398              		.loc 1 197 13 is_stmt 1 view .LVU79
 399              		.loc 1 197 29 is_stmt 0 view .LVU80
 400 0090 1B4B     		ldr	r3, .L23+8
 401 0092 204A     		ldr	r2, .L23+28
 402 0094 1A60     		str	r2, [r3]	@ float
 198:Swerve-Standard/src/chassis_task.c ****             break;
 403              		.loc 1 198 13 is_stmt 1 view .LVU81
 404 0096 7047     		bx	lr
 405              	.L16:
 199:Swerve-Standard/src/chassis_task.c ****         case 70:
 200:Swerve-Standard/src/chassis_task.c ****             g_swerve_constants.max_speed = MAX_SPEED_W70;
 406              		.loc 1 200 13 view .LVU82
 407              		.loc 1 200 42 is_stmt 0 view .LVU83
 408 0098 184B     		ldr	r3, .L23+4
 409 009a 4FF07F52 		mov	r2, #1069547520
 410 009e DA60     		str	r2, [r3, #12]	@ float
 201:Swerve-Standard/src/chassis_task.c ****             g_spintop_omega = SPINTOP_OMEGA_W70;
 411              		.loc 1 201 13 is_stmt 1 view .LVU84
 412              		.loc 1 201 29 is_stmt 0 view .LVU85
 413 00a0 174B     		ldr	r3, .L23+8
 414 00a2 1D4A     		ldr	r2, .L23+32
 415 00a4 1A60     		str	r2, [r3]	@ float
 202:Swerve-Standard/src/chassis_task.c ****             break;
 416              		.loc 1 202 13 is_stmt 1 view .LVU86
 417 00a6 7047     		bx	lr
 418              	.L15:
 203:Swerve-Standard/src/chassis_task.c ****         case 75:
 204:Swerve-Standard/src/chassis_task.c ****             g_swerve_constants.max_speed = MAX_SPEED_W75;
 419              		.loc 1 204 13 view .LVU87
 420              		.loc 1 204 42 is_stmt 0 view .LVU88
 421 00a8 144B     		ldr	r3, .L23+4
 422 00aa 4FF07F52 		mov	r2, #1069547520
ARM GAS  /var/folders/sg/pxk9dyzj7jz_x3889hx3b3dw0000gn/T//ccIQseOU.s 			page 12


 423 00ae DA60     		str	r2, [r3, #12]	@ float
 205:Swerve-Standard/src/chassis_task.c ****             g_spintop_omega = SPINTOP_OMEGA_W75;
 424              		.loc 1 205 13 is_stmt 1 view .LVU89
 425              		.loc 1 205 29 is_stmt 0 view .LVU90
 426 00b0 134B     		ldr	r3, .L23+8
 427 00b2 1A4A     		ldr	r2, .L23+36
 428 00b4 1A60     		str	r2, [r3]	@ float
 206:Swerve-Standard/src/chassis_task.c ****             break;
 429              		.loc 1 206 13 is_stmt 1 view .LVU91
 430 00b6 7047     		bx	lr
 431              	.L14:
 207:Swerve-Standard/src/chassis_task.c ****         case 80:
 208:Swerve-Standard/src/chassis_task.c ****             g_swerve_constants.max_speed = MAX_SPEED_W80;
 432              		.loc 1 208 13 view .LVU92
 433              		.loc 1 208 42 is_stmt 0 view .LVU93
 434 00b8 104B     		ldr	r3, .L23+4
 435 00ba 4FF07F52 		mov	r2, #1069547520
 436 00be DA60     		str	r2, [r3, #12]	@ float
 209:Swerve-Standard/src/chassis_task.c ****             g_spintop_omega = SPINTOP_OMEGA_W80;
 437              		.loc 1 209 13 is_stmt 1 view .LVU94
 438              		.loc 1 209 29 is_stmt 0 view .LVU95
 439 00c0 0F4B     		ldr	r3, .L23+8
 440 00c2 174A     		ldr	r2, .L23+40
 441 00c4 1A60     		str	r2, [r3]	@ float
 210:Swerve-Standard/src/chassis_task.c ****             break;
 442              		.loc 1 210 13 is_stmt 1 view .LVU96
 443 00c6 7047     		bx	lr
 444              	.L13:
 211:Swerve-Standard/src/chassis_task.c ****         case 90:
 212:Swerve-Standard/src/chassis_task.c ****             g_swerve_constants.max_speed = MAX_SPEED_W90;
 445              		.loc 1 212 13 view .LVU97
 446              		.loc 1 212 42 is_stmt 0 view .LVU98
 447 00c8 0C4B     		ldr	r3, .L23+4
 448 00ca 4FF07F52 		mov	r2, #1069547520
 449 00ce DA60     		str	r2, [r3, #12]	@ float
 213:Swerve-Standard/src/chassis_task.c ****             g_spintop_omega = SPINTOP_OMEGA_W90;
 450              		.loc 1 213 13 is_stmt 1 view .LVU99
 451              		.loc 1 213 29 is_stmt 0 view .LVU100
 452 00d0 0B4B     		ldr	r3, .L23+8
 453 00d2 144A     		ldr	r2, .L23+44
 454 00d4 1A60     		str	r2, [r3]	@ float
 214:Swerve-Standard/src/chassis_task.c ****             break;
 455              		.loc 1 214 13 is_stmt 1 view .LVU101
 456 00d6 7047     		bx	lr
 457              	.L11:
 215:Swerve-Standard/src/chassis_task.c ****         case 100:
 216:Swerve-Standard/src/chassis_task.c ****             g_swerve_constants.max_speed = MAX_SPEED_W100;
 458              		.loc 1 216 13 view .LVU102
 459              		.loc 1 216 42 is_stmt 0 view .LVU103
 460 00d8 084B     		ldr	r3, .L23+4
 461 00da 4FF07F52 		mov	r2, #1069547520
 462 00de DA60     		str	r2, [r3, #12]	@ float
 217:Swerve-Standard/src/chassis_task.c ****             g_spintop_omega = SPINTOP_OMEGA_W100;
 463              		.loc 1 217 13 is_stmt 1 view .LVU104
 464              		.loc 1 217 29 is_stmt 0 view .LVU105
 465 00e0 074B     		ldr	r3, .L23+8
 466 00e2 114A     		ldr	r2, .L23+48
ARM GAS  /var/folders/sg/pxk9dyzj7jz_x3889hx3b3dw0000gn/T//ccIQseOU.s 			page 13


 467 00e4 1A60     		str	r2, [r3]	@ float
 218:Swerve-Standard/src/chassis_task.c ****             break;
 468              		.loc 1 218 13 is_stmt 1 view .LVU106
 469 00e6 7047     		bx	lr
 470              	.L10:
 219:Swerve-Standard/src/chassis_task.c ****         default:
 220:Swerve-Standard/src/chassis_task.c ****             g_swerve_constants.max_speed = MAX_SPEED_W45;
 471              		.loc 1 220 13 view .LVU107
 472              		.loc 1 220 42 is_stmt 0 view .LVU108
 473 00e8 044B     		ldr	r3, .L23+4
 474 00ea 4FF07F52 		mov	r2, #1069547520
 475 00ee DA60     		str	r2, [r3, #12]	@ float
 221:Swerve-Standard/src/chassis_task.c ****             g_spintop_omega = SPINTOP_OMEGA_W45;
 476              		.loc 1 221 13 is_stmt 1 view .LVU109
 477              		.loc 1 221 29 is_stmt 0 view .LVU110
 478 00f0 034B     		ldr	r3, .L23+8
 479 00f2 044A     		ldr	r2, .L23+12
 480 00f4 1A60     		str	r2, [r3]	@ float
 222:Swerve-Standard/src/chassis_task.c ****     }
 223:Swerve-Standard/src/chassis_task.c **** }
 481              		.loc 1 223 1 view .LVU111
 482 00f6 7047     		bx	lr
 483              	.L24:
 484              		.align	2
 485              	.L23:
 486 00f8 00000000 		.word	Referee_System
 487 00fc 00000000 		.word	g_swerve_constants
 488 0100 00000000 		.word	g_spintop_omega
 489 0104 CDCC9C40 		.word	1084017869
 490 0108 CDCCAC40 		.word	1085066445
 491 010c 9A99C140 		.word	1086429594
 492 0110 3333D340 		.word	1087583027
 493 0114 3333E340 		.word	1088631603
 494 0118 3333F340 		.word	1089680179
 495 011c 9A990141 		.word	1090623898
 496 0120 CDCC0841 		.word	1091095757
 497 0124 66661641 		.word	1091987046
 498 0128 66661E41 		.word	1092511334
 499              		.cfi_endproc
 500              	.LFE144:
 502              		.section	.text.Rescale_Chassis_Velocity,"ax",%progbits
 503              		.align	1
 504              		.global	Rescale_Chassis_Velocity
 505              		.syntax unified
 506              		.thumb
 507              		.thumb_func
 509              	Rescale_Chassis_Velocity:
 510              	.LFB145:
 224:Swerve-Standard/src/chassis_task.c **** 
 225:Swerve-Standard/src/chassis_task.c **** /*
 226:Swerve-Standard/src/chassis_task.c ****  * scale spintop omega by inverse of translation speed to prioritize translation
 227:Swerve-Standard/src/chassis_task.c ****  * spin_coeff = rw/(v + rw) // r = rad, w = desired omega (spin top omega), v = translational speed
 228:Swerve-Standard/src/chassis_task.c ****  * chassis_omega *= spin_coeff
 229:Swerve-Standard/src/chassis_task.c ****  */
 230:Swerve-Standard/src/chassis_task.c **** float Rescale_Chassis_Velocity(void) {
 511              		.loc 1 230 38 is_stmt 1 view -0
 512              		.cfi_startproc
ARM GAS  /var/folders/sg/pxk9dyzj7jz_x3889hx3b3dw0000gn/T//ccIQseOU.s 			page 14


 513              		@ args = 0, pretend = 0, frame = 0
 514              		@ frame_needed = 0, uses_anonymous_args = 0
 515 0000 10B5     		push	{r4, lr}
 516              	.LCFI3:
 517              		.cfi_def_cfa_offset 8
 518              		.cfi_offset 4, -8
 519              		.cfi_offset 14, -4
 520 0002 2DED028B 		vpush.64	{d8}
 521              	.LCFI4:
 522              		.cfi_def_cfa_offset 16
 523              		.cfi_offset 80, -16
 524              		.cfi_offset 81, -12
 231:Swerve-Standard/src/chassis_task.c ****     float translation_speed = sqrtf(powf(g_robot_state.chassis.x_speed, 2) + powf(g_robot_state.cha
 525              		.loc 1 231 5 view .LVU113
 526              		.loc 1 231 37 is_stmt 0 view .LVU114
 527 0006 134C     		ldr	r4, .L27
 528 0008 F0EE000A 		vmov.f32	s1, #2.0e+0
 529 000c 94ED010A 		vldr.32	s0, [r4, #4]
 530 0010 FFF7FEFF 		bl	powf
 531              	.LVL14:
 532 0014 B0EE408A 		vmov.f32	s16, s0
 533              		.loc 1 231 78 discriminator 1 view .LVU115
 534 0018 F0EE000A 		vmov.f32	s1, #2.0e+0
 535 001c 94ED020A 		vldr.32	s0, [r4, #8]
 536 0020 FFF7FEFF 		bl	powf
 537              	.LVL15:
 538              		.loc 1 231 31 discriminator 2 view .LVU116
 539 0024 38EE000A 		vadd.f32	s0, s16, s0
 540 0028 FFF7FEFF 		bl	sqrtf
 541              	.LVL16:
 232:Swerve-Standard/src/chassis_task.c ****     float spin_coeff = chassis_rad * g_spintop_omega / (translation_speed * 2.0f + chassis_rad * g_
 542              		.loc 1 232 5 is_stmt 1 view .LVU117
 543              		.loc 1 232 36 is_stmt 0 view .LVU118
 544 002c 0A4B     		ldr	r3, .L27+4
 545 002e D3ED006A 		vldr.32	s13, [r3]
 546 0032 0A4B     		ldr	r3, .L27+8
 547 0034 93ED007A 		vldr.32	s14, [r3]
 548 0038 26EE877A 		vmul.f32	s14, s13, s14
 549              		.loc 1 232 75 view .LVU119
 550 003c 30EE000A 		vadd.f32	s0, s0, s0
 551              	.LVL17:
 552              		.loc 1 232 82 view .LVU120
 553 0040 77EE007A 		vadd.f32	s15, s14, s0
 554              		.loc 1 232 11 view .LVU121
 555 0044 87EE270A 		vdiv.f32	s0, s14, s15
 556              	.LVL18:
 233:Swerve-Standard/src/chassis_task.c ****     float target_omega = g_spintop_omega * spin_coeff;
 557              		.loc 1 233 5 is_stmt 1 view .LVU122
 234:Swerve-Standard/src/chassis_task.c ****     return target_omega;
 558              		.loc 1 234 5 view .LVU123
 235:Swerve-Standard/src/chassis_task.c **** }...
 559              		.loc 1 235 1 is_stmt 0 view .LVU124
 560 0048 26EE800A 		vmul.f32	s0, s13, s0
 561              	.LVL19:
 562              		.loc 1 235 1 view .LVU125
 563 004c BDEC028B 		vldm	sp!, {d8}
 564              	.LCFI5:
ARM GAS  /var/folders/sg/pxk9dyzj7jz_x3889hx3b3dw0000gn/T//ccIQseOU.s 			page 15


 565              		.cfi_restore 80
 566              		.cfi_restore 81
 567              		.cfi_def_cfa_offset 8
 568 0050 10BD     		pop	{r4, pc}
 569              	.L28:
 570 0052 00BF     		.align	2
 571              	.L27:
 572 0054 00000000 		.word	g_robot_state
 573 0058 00000000 		.word	g_spintop_omega
 574 005c 00000000 		.word	chassis_rad
 575              		.cfi_endproc
 576              	.LFE145:
 578              		.section	.text.Chassis_Ctrl_Loop,"ax",%progbits
 579              		.align	1
 580              		.global	Chassis_Ctrl_Loop
 581              		.syntax unified
 582              		.thumb
 583              		.thumb_func
 585              	Chassis_Ctrl_Loop:
 586              	.LFB143:
 110:Swerve-Standard/src/chassis_task.c **** {
 587              		.loc 1 110 1 is_stmt 1 view -0
 588              		.cfi_startproc
 589              		@ args = 0, pretend = 0, frame = 0
 590              		@ frame_needed = 0, uses_anonymous_args = 0
 591 0000 38B5     		push	{r3, r4, r5, lr}
 592              	.LCFI6:
 593              		.cfi_def_cfa_offset 16
 594              		.cfi_offset 3, -16
 595              		.cfi_offset 4, -12
 596              		.cfi_offset 5, -8
 597              		.cfi_offset 14, -4
 111:Swerve-Standard/src/chassis_task.c ****     float vx = g_robot_state.input.vx;
 598              		.loc 1 111 5 view .LVU127
 111:Swerve-Standard/src/chassis_task.c ****     float vx = g_robot_state.input.vx;
 599              		.loc 1 111 11 is_stmt 0 view .LVU128
 600 0002 604B     		ldr	r3, .L53
 601 0004 D3ED107A 		vldr.32	s15, [r3, #64]
 602              	.LVL20:
 112:Swerve-Standard/src/chassis_task.c ****     float vy = g_robot_state.input.vy;
 603              		.loc 1 112 5 is_stmt 1 view .LVU129
 112:Swerve-Standard/src/chassis_task.c ****     float vy = g_robot_state.input.vy;
 604              		.loc 1 112 11 is_stmt 0 view .LVU130
 605 0008 93ED117A 		vldr.32	s14, [r3, #68]
 606              	.LVL21:
 114:Swerve-Standard/src/chassis_task.c ****     if (g_robot_state.IS_SUPER_CAPACITOR_ENABLED) {
 607              		.loc 1 114 5 is_stmt 1 view .LVU131
 114:Swerve-Standard/src/chassis_task.c ****     if (g_robot_state.IS_SUPER_CAPACITOR_ENABLED) {
 608              		.loc 1 114 22 is_stmt 0 view .LVU132
 609 000c 93F85830 		ldrb	r3, [r3, #88]	@ zero_extendqisi2
 114:Swerve-Standard/src/chassis_task.c ****     if (g_robot_state.IS_SUPER_CAPACITOR_ENABLED) {
 610              		.loc 1 114 8 view .LVU133
 611 0010 8BB1     		cbz	r3, .L30
 115:Swerve-Standard/src/chassis_task.c ****         g_swerve_constants.max_speed = 5.0;
 612              		.loc 1 115 9 is_stmt 1 view .LVU134
 115:Swerve-Standard/src/chassis_task.c ****         g_swerve_constants.max_speed = 5.0;
 613              		.loc 1 115 38 is_stmt 0 view .LVU135
ARM GAS  /var/folders/sg/pxk9dyzj7jz_x3889hx3b3dw0000gn/T//ccIQseOU.s 			page 16


 614 0012 5D4B     		ldr	r3, .L53+4
 615 0014 5D4A     		ldr	r2, .L53+8
 616 0016 DA60     		str	r2, [r3, #12]	@ float
 116:Swerve-Standard/src/chassis_task.c ****         for (int i = 0; i < NUMBER_OF_MODULES; i++) {
 617              		.loc 1 116 9 is_stmt 1 view .LVU136
 618              	.LBB4:
 116:Swerve-Standard/src/chassis_task.c ****         for (int i = 0; i < NUMBER_OF_MODULES; i++) {
 619              		.loc 1 116 14 view .LVU137
 620              	.LVL22:
 116:Swerve-Standard/src/chassis_task.c ****         for (int i = 0; i < NUMBER_OF_MODULES; i++) {
 621              		.loc 1 116 18 is_stmt 0 view .LVU138
 622 0018 0023     		movs	r3, #0
 116:Swerve-Standard/src/chassis_task.c ****         for (int i = 0; i < NUMBER_OF_MODULES; i++) {
 623              		.loc 1 116 9 view .LVU139
 624 001a 08E0     		b	.L31
 625              	.LVL23:
 626              	.L32:
 117:Swerve-Standard/src/chassis_task.c ****             chassis_vel_limiters[i].rate_limit = SWERVE_QUICK_STOP_ACCEL / 2.0f;
 627              		.loc 1 117 13 is_stmt 1 view .LVU140
 117:Swerve-Standard/src/chassis_task.c ****             chassis_vel_limiters[i].rate_limit = SWERVE_QUICK_STOP_ACCEL / 2.0f;
 628              		.loc 1 117 48 is_stmt 0 view .LVU141
 629 001c 03EB4301 		add	r1, r3, r3, lsl #1
 630 0020 5B4A     		ldr	r2, .L53+12
 631 0022 02EB8102 		add	r2, r2, r1, lsl #2
 632 0026 4FF07F51 		mov	r1, #1069547520
 633 002a 1160     		str	r1, [r2]	@ float
 116:Swerve-Standard/src/chassis_task.c ****         for (int i = 0; i < NUMBER_OF_MODULES; i++) {
 634              		.loc 1 116 49 is_stmt 1 discriminator 3 view .LVU142
 635 002c 0133     		adds	r3, r3, #1
 636              	.LVL24:
 637              	.L31:
 116:Swerve-Standard/src/chassis_task.c ****         for (int i = 0; i < NUMBER_OF_MODULES; i++) {
 638              		.loc 1 116 27 discriminator 1 view .LVU143
 639 002e 032B     		cmp	r3, #3
 640 0030 F4DD     		ble	.L32
 641              	.LVL25:
 642              	.L33:
 116:Swerve-Standard/src/chassis_task.c ****         for (int i = 0; i < NUMBER_OF_MODULES; i++) {
 643              		.loc 1 116 27 is_stmt 0 discriminator 1 view .LVU144
 644              	.LBE4:
 645              	.LBB5:
 131:Swerve-Standard/src/chassis_task.c ****         for (int i = 0; i < NUMBER_OF_MODULES; i++) {
 646              		.loc 1 131 18 view .LVU145
 647 0032 0024     		movs	r4, #0
 648 0034 3FE0     		b	.L41
 649              	.LVL26:
 650              	.L30:
 131:Swerve-Standard/src/chassis_task.c ****         for (int i = 0; i < NUMBER_OF_MODULES; i++) {
 651              		.loc 1 131 18 view .LVU146
 652              	.LBE5:
 120:Swerve-Standard/src/chassis_task.c ****     else if ((vx * vx + vy * vy) < 0.01f) {
 653              		.loc 1 120 10 is_stmt 1 view .LVU147
 120:Swerve-Standard/src/chassis_task.c ****     else if ((vx * vx + vy * vy) < 0.01f) {
 654              		.loc 1 120 18 is_stmt 0 view .LVU148
 655 0036 67EEA77A 		vmul.f32	s15, s15, s15
 656              	.LVL27:
 120:Swerve-Standard/src/chassis_task.c ****     else if ((vx * vx + vy * vy) < 0.01f) {
ARM GAS  /var/folders/sg/pxk9dyzj7jz_x3889hx3b3dw0000gn/T//ccIQseOU.s 			page 17


 657              		.loc 1 120 28 view .LVU149
 658 003a 27EE077A 		vmul.f32	s14, s14, s14
 659              	.LVL28:
 120:Swerve-Standard/src/chassis_task.c ****     else if ((vx * vx + vy * vy) < 0.01f) {
 660              		.loc 1 120 23 view .LVU150
 661 003e 77EE877A 		vadd.f32	s15, s15, s14
 120:Swerve-Standard/src/chassis_task.c ****     else if ((vx * vx + vy * vy) < 0.01f) {
 662              		.loc 1 120 13 view .LVU151
 663 0042 9FED547A 		vldr.32	s14, .L53+16
 664 0046 F4EEC77A 		vcmpe.f32	s15, s14
 665 004a F1EE10FA 		vmrs	APSR_nzcv, FPSCR
 666 004e 0FD4     		bmi	.L49
 124:Swerve-Standard/src/chassis_task.c ****     } else if (g_robot_state.chassis.IS_SPINTOP_ENABLED) {
 667              		.loc 1 124 12 is_stmt 1 view .LVU152
 124:Swerve-Standard/src/chassis_task.c ****     } else if (g_robot_state.chassis.IS_SPINTOP_ENABLED) {
 668              		.loc 1 124 37 is_stmt 0 view .LVU153
 669 0050 4C4B     		ldr	r3, .L53
 670              	.LVL29:
 124:Swerve-Standard/src/chassis_task.c ****     } else if (g_robot_state.chassis.IS_SPINTOP_ENABLED) {
 671              		.loc 1 124 37 view .LVU154
 672 0052 1B7C     		ldrb	r3, [r3, #16]	@ zero_extendqisi2
 673              	.LVL30:
 124:Swerve-Standard/src/chassis_task.c ****     } else if (g_robot_state.chassis.IS_SPINTOP_ENABLED) {
 674              		.loc 1 124 15 view .LVU155
 675 0054 0BB3     		cbz	r3, .L38
 676              	.LBB6:
 126:Swerve-Standard/src/chassis_task.c ****         for (int i = 0; i < NUMBER_OF_MODULES; i++) {
 677              		.loc 1 126 18 view .LVU156
 678 0056 0023     		movs	r3, #0
 679 0058 14E0     		b	.L37
 680              	.LVL31:
 681              	.L36:
 126:Swerve-Standard/src/chassis_task.c ****         for (int i = 0; i < NUMBER_OF_MODULES; i++) {
 682              		.loc 1 126 18 view .LVU157
 683              	.LBE6:
 684              	.LBB7:
 122:Swerve-Standard/src/chassis_task.c ****             chassis_vel_limiters[i].rate_limit = SWERVE_QUICK_STOP_ACCEL;
 685              		.loc 1 122 13 is_stmt 1 view .LVU158
 122:Swerve-Standard/src/chassis_task.c ****             chassis_vel_limiters[i].rate_limit = SWERVE_QUICK_STOP_ACCEL;
 686              		.loc 1 122 48 is_stmt 0 view .LVU159
 687 005a 03EB4301 		add	r1, r3, r3, lsl #1
 688 005e 4C4A     		ldr	r2, .L53+12
 689 0060 02EB8102 		add	r2, r2, r1, lsl #2
 690 0064 4C49     		ldr	r1, .L53+20
 691 0066 1160     		str	r1, [r2]	@ float
 121:Swerve-Standard/src/chassis_task.c ****         for (int i = 0; i < NUMBER_OF_MODULES; i++) {
 692              		.loc 1 121 49 is_stmt 1 discriminator 3 view .LVU160
 693 0068 0133     		adds	r3, r3, #1
 694              	.LVL32:
 695              	.L34:
 121:Swerve-Standard/src/chassis_task.c ****         for (int i = 0; i < NUMBER_OF_MODULES; i++) {
 696              		.loc 1 121 27 discriminator 1 view .LVU161
 697 006a 032B     		cmp	r3, #3
 698 006c F5DD     		ble	.L36
 699 006e E0E7     		b	.L33
 700              	.LVL33:
 701              	.L49:
ARM GAS  /var/folders/sg/pxk9dyzj7jz_x3889hx3b3dw0000gn/T//ccIQseOU.s 			page 18


 121:Swerve-Standard/src/chassis_task.c ****         for (int i = 0; i < NUMBER_OF_MODULES; i++) {
 702              		.loc 1 121 18 is_stmt 0 view .LVU162
 703 0070 0023     		movs	r3, #0
 704 0072 FAE7     		b	.L34
 705              	.LVL34:
 706              	.L39:
 121:Swerve-Standard/src/chassis_task.c ****         for (int i = 0; i < NUMBER_OF_MODULES; i++) {
 707              		.loc 1 121 18 view .LVU163
 708              	.LBE7:
 709              	.LBB8:
 127:Swerve-Standard/src/chassis_task.c ****             chassis_vel_limiters[i].rate_limit = SWERVE_MAX_WHEEL_ACCEL*0.7f;
 710              		.loc 1 127 13 is_stmt 1 view .LVU164
 127:Swerve-Standard/src/chassis_task.c ****             chassis_vel_limiters[i].rate_limit = SWERVE_MAX_WHEEL_ACCEL*0.7f;
 711              		.loc 1 127 48 is_stmt 0 view .LVU165
 712 0074 03EB4301 		add	r1, r3, r3, lsl #1
 713 0078 454A     		ldr	r2, .L53+12
 714 007a 02EB8102 		add	r2, r2, r1, lsl #2
 715 007e 4749     		ldr	r1, .L53+24
 716 0080 1160     		str	r1, [r2]	@ float
 126:Swerve-Standard/src/chassis_task.c ****         for (int i = 0; i < NUMBER_OF_MODULES; i++) {
 717              		.loc 1 126 49 is_stmt 1 discriminator 3 view .LVU166
 718 0082 0133     		adds	r3, r3, #1
 719              	.LVL35:
 720              	.L37:
 126:Swerve-Standard/src/chassis_task.c ****         for (int i = 0; i < NUMBER_OF_MODULES; i++) {
 721              		.loc 1 126 27 discriminator 1 view .LVU167
 722 0084 032B     		cmp	r3, #3
 723 0086 F5DD     		ble	.L39
 724 0088 D3E7     		b	.L33
 725              	.LVL36:
 726              	.L40:
 126:Swerve-Standard/src/chassis_task.c ****         for (int i = 0; i < NUMBER_OF_MODULES; i++) {
 727              		.loc 1 126 27 is_stmt 0 discriminator 1 view .LVU168
 728              	.LBE8:
 729              	.LBB9:
 132:Swerve-Standard/src/chassis_task.c ****             chassis_vel_limiters[i].rate_limit = SWERVE_MAX_WHEEL_ACCEL;
 730              		.loc 1 132 13 is_stmt 1 view .LVU169
 132:Swerve-Standard/src/chassis_task.c ****             chassis_vel_limiters[i].rate_limit = SWERVE_MAX_WHEEL_ACCEL;
 731              		.loc 1 132 48 is_stmt 0 view .LVU170
 732 008a 03EB4301 		add	r1, r3, r3, lsl #1
 733 008e 404A     		ldr	r2, .L53+12
 734 0090 02EB8102 		add	r2, r2, r1, lsl #2
 735 0094 4249     		ldr	r1, .L53+28
 736 0096 1160     		str	r1, [r2]	@ float
 131:Swerve-Standard/src/chassis_task.c ****         for (int i = 0; i < NUMBER_OF_MODULES; i++) {
 737              		.loc 1 131 49 is_stmt 1 discriminator 3 view .LVU171
 738 0098 0133     		adds	r3, r3, #1
 739              	.LVL37:
 740              	.L38:
 131:Swerve-Standard/src/chassis_task.c ****         for (int i = 0; i < NUMBER_OF_MODULES; i++) {
 741              		.loc 1 131 27 discriminator 1 view .LVU172
 742 009a 032B     		cmp	r3, #3
 743 009c F5DD     		ble	.L40
 744 009e C8E7     		b	.L33
 745              	.LVL38:
 746              	.L42:
 131:Swerve-Standard/src/chassis_task.c ****         for (int i = 0; i < NUMBER_OF_MODULES; i++) {
ARM GAS  /var/folders/sg/pxk9dyzj7jz_x3889hx3b3dw0000gn/T//ccIQseOU.s 			page 19


 747              		.loc 1 131 27 is_stmt 0 discriminator 1 view .LVU173
 748              	.LBE9:
 749              	.LBB10:
 138:Swerve-Standard/src/chassis_task.c ****         measured_angles[i] = DJI_Motor_Get_Absolute_Angle(g_azimuth_motors[i]);
 750              		.loc 1 138 9 is_stmt 1 view .LVU174
 138:Swerve-Standard/src/chassis_task.c ****         measured_angles[i] = DJI_Motor_Get_Absolute_Angle(g_azimuth_motors[i]);
 751              		.loc 1 138 30 is_stmt 0 view .LVU175
 752 00a0 404B     		ldr	r3, .L53+32
 753 00a2 53F82400 		ldr	r0, [r3, r4, lsl #2]
 754 00a6 FFF7FEFF 		bl	DJI_Motor_Get_Absolute_Angle
 755              	.LVL39:
 138:Swerve-Standard/src/chassis_task.c ****         measured_angles[i] = DJI_Motor_Get_Absolute_Angle(g_azimuth_motors[i]);
 756              		.loc 1 138 28 discriminator 1 view .LVU176
 757 00aa 3F4B     		ldr	r3, .L53+36
 758 00ac 03EB8403 		add	r3, r3, r4, lsl #2
 759 00b0 83ED000A 		vstr.32	s0, [r3]
 137:Swerve-Standard/src/chassis_task.c ****     for (int i = 0; i < NUMBER_OF_MODULES; i++) {
 760              		.loc 1 137 45 is_stmt 1 discriminator 3 view .LVU177
 761 00b4 0134     		adds	r4, r4, #1
 762              	.LVL40:
 763              	.L41:
 137:Swerve-Standard/src/chassis_task.c ****     for (int i = 0; i < NUMBER_OF_MODULES; i++) {
 764              		.loc 1 137 23 discriminator 1 view .LVU178
 765 00b6 032C     		cmp	r4, #3
 766 00b8 F2DD     		ble	.L42
 767              	.LBE10:
 140:Swerve-Standard/src/chassis_task.c ****     g_chassis_state.v_x = g_robot_state.chassis.x_speed * g_swerve_constants.max_speed;
 768              		.loc 1 140 5 view .LVU179
 140:Swerve-Standard/src/chassis_task.c ****     g_chassis_state.v_x = g_robot_state.chassis.x_speed * g_swerve_constants.max_speed;
 769              		.loc 1 140 48 is_stmt 0 view .LVU180
 770 00ba 324B     		ldr	r3, .L53
 771 00bc 93ED017A 		vldr.32	s14, [r3, #4]
 140:Swerve-Standard/src/chassis_task.c ****     g_chassis_state.v_x = g_robot_state.chassis.x_speed * g_swerve_constants.max_speed;
 772              		.loc 1 140 77 view .LVU181
 773 00c0 314A     		ldr	r2, .L53+4
 774 00c2 D2ED037A 		vldr.32	s15, [r2, #12]
 140:Swerve-Standard/src/chassis_task.c ****     g_chassis_state.v_x = g_robot_state.chassis.x_speed * g_swerve_constants.max_speed;
 775              		.loc 1 140 57 view .LVU182
 776 00c6 27EE277A 		vmul.f32	s14, s14, s15
 140:Swerve-Standard/src/chassis_task.c ****     g_chassis_state.v_x = g_robot_state.chassis.x_speed * g_swerve_constants.max_speed;
 777              		.loc 1 140 25 view .LVU183
 778 00ca 384A     		ldr	r2, .L53+40
 779 00cc 82ED007A 		vstr.32	s14, [r2]
 141:Swerve-Standard/src/chassis_task.c ****     g_chassis_state.v_y = g_robot_state.chassis.y_speed * g_swerve_constants.max_speed;
 780              		.loc 1 141 5 is_stmt 1 view .LVU184
 141:Swerve-Standard/src/chassis_task.c ****     g_chassis_state.v_y = g_robot_state.chassis.y_speed * g_swerve_constants.max_speed;
 781              		.loc 1 141 48 is_stmt 0 view .LVU185
 782 00d0 93ED027A 		vldr.32	s14, [r3, #8]
 141:Swerve-Standard/src/chassis_task.c ****     g_chassis_state.v_y = g_robot_state.chassis.y_speed * g_swerve_constants.max_speed;
 783              		.loc 1 141 57 view .LVU186
 784 00d4 67EE877A 		vmul.f32	s15, s15, s14
 141:Swerve-Standard/src/chassis_task.c ****     g_chassis_state.v_y = g_robot_state.chassis.y_speed * g_swerve_constants.max_speed;
 785              		.loc 1 141 25 view .LVU187
 786 00d8 C2ED017A 		vstr.32	s15, [r2, #4]
 150:Swerve-Standard/src/chassis_task.c ****     if (g_robot_state.chassis.IS_SPINTOP_ENABLED) {
 787              		.loc 1 150 5 is_stmt 1 view .LVU188
 150:Swerve-Standard/src/chassis_task.c ****     if (g_robot_state.chassis.IS_SPINTOP_ENABLED) {
ARM GAS  /var/folders/sg/pxk9dyzj7jz_x3889hx3b3dw0000gn/T//ccIQseOU.s 			page 20


 788              		.loc 1 150 30 is_stmt 0 view .LVU189
 789 00dc 1B7C     		ldrb	r3, [r3, #16]	@ zero_extendqisi2
 150:Swerve-Standard/src/chassis_task.c ****     if (g_robot_state.chassis.IS_SPINTOP_ENABLED) {
 790              		.loc 1 150 8 view .LVU190
 791 00de 93B1     		cbz	r3, .L43
 151:Swerve-Standard/src/chassis_task.c ****         g_chassis_state.omega = rate_limiter_iterate(&chassis_omega_limiter, Rescale_Chassis_Veloci
 792              		.loc 1 151 9 is_stmt 1 view .LVU191
 151:Swerve-Standard/src/chassis_task.c ****         g_chassis_state.omega = rate_limiter_iterate(&chassis_omega_limiter, Rescale_Chassis_Veloci
 793              		.loc 1 151 33 is_stmt 0 view .LVU192
 794 00e0 FFF7FEFF 		bl	Rescale_Chassis_Velocity
 795              	.LVL41:
 151:Swerve-Standard/src/chassis_task.c ****         g_chassis_state.omega = rate_limiter_iterate(&chassis_omega_limiter, Rescale_Chassis_Veloci
 796              		.loc 1 151 33 discriminator 1 view .LVU193
 797 00e4 3248     		ldr	r0, .L53+44
 798 00e6 FFF7FEFF 		bl	rate_limiter_iterate
 799              	.LVL42:
 151:Swerve-Standard/src/chassis_task.c ****         g_chassis_state.omega = rate_limiter_iterate(&chassis_omega_limiter, Rescale_Chassis_Veloci
 800              		.loc 1 151 31 discriminator 2 view .LVU194
 801 00ea 304B     		ldr	r3, .L53+40
 802 00ec 83ED020A 		vstr.32	s0, [r3, #8]
 803              	.L44:
 157:Swerve-Standard/src/chassis_task.c ****     swerve_calculate_kinematics(&g_chassis_state, &g_swerve_constants);
 804              		.loc 1 157 5 is_stmt 1 view .LVU195
 805 00f0 2E4C     		ldr	r4, .L53+40
 806              	.LVL43:
 157:Swerve-Standard/src/chassis_task.c ****     swerve_calculate_kinematics(&g_chassis_state, &g_swerve_constants);
 807              		.loc 1 157 5 is_stmt 0 view .LVU196
 808 00f2 2549     		ldr	r1, .L53+4
 809 00f4 2046     		mov	r0, r4
 810 00f6 FFF7FEFF 		bl	swerve_calculate_kinematics
 811              	.LVL44:
 158:Swerve-Standard/src/chassis_task.c ****     swerve_optimize_module_angles(&g_chassis_state, measured_angles);
 812              		.loc 1 158 5 is_stmt 1 view .LVU197
 813 00fa 2B49     		ldr	r1, .L53+36
 814 00fc 2046     		mov	r0, r4
 815 00fe FFF7FEFF 		bl	swerve_optimize_module_angles
 816              	.LVL45:
 162:Swerve-Standard/src/chassis_task.c ****     for (int i = 0; i < NUMBER_OF_MODULES; i++) {
 817              		.loc 1 162 5 view .LVU198
 818              	.LBB11:
 162:Swerve-Standard/src/chassis_task.c ****     for (int i = 0; i < NUMBER_OF_MODULES; i++) {
 819              		.loc 1 162 10 view .LVU199
 162:Swerve-Standard/src/chassis_task.c ****     for (int i = 0; i < NUMBER_OF_MODULES; i++) {
 820              		.loc 1 162 14 is_stmt 0 view .LVU200
 821 0102 0024     		movs	r4, #0
 162:Swerve-Standard/src/chassis_task.c ****     for (int i = 0; i < NUMBER_OF_MODULES; i++) {
 822              		.loc 1 162 5 view .LVU201
 823 0104 1DE0     		b	.L45
 824              	.LVL46:
 825              	.L43:
 162:Swerve-Standard/src/chassis_task.c ****     for (int i = 0; i < NUMBER_OF_MODULES; i++) {
 826              		.loc 1 162 5 view .LVU202
 827              	.LBE11:
 153:Swerve-Standard/src/chassis_task.c ****         g_chassis_state.omega = rate_limiter_iterate(&chassis_omega_limiter, g_robot_state.chassis.
 828              		.loc 1 153 9 is_stmt 1 view .LVU203
 153:Swerve-Standard/src/chassis_task.c ****         g_chassis_state.omega = rate_limiter_iterate(&chassis_omega_limiter, g_robot_state.chassis.
 829              		.loc 1 153 99 is_stmt 0 view .LVU204
ARM GAS  /var/folders/sg/pxk9dyzj7jz_x3889hx3b3dw0000gn/T//ccIQseOU.s 			page 21


 830 0106 1F4B     		ldr	r3, .L53
 831 0108 93ED030A 		vldr.32	s0, [r3, #12]
 153:Swerve-Standard/src/chassis_task.c ****         g_chassis_state.omega = rate_limiter_iterate(&chassis_omega_limiter, g_robot_state.chassis.
 832              		.loc 1 153 33 view .LVU205
 833 010c DFED297A 		vldr.32	s15, .L53+48
 834 0110 20EE270A 		vmul.f32	s0, s0, s15
 835 0114 2648     		ldr	r0, .L53+44
 836 0116 FFF7FEFF 		bl	rate_limiter_iterate
 837              	.LVL47:
 153:Swerve-Standard/src/chassis_task.c ****         g_chassis_state.omega = rate_limiter_iterate(&chassis_omega_limiter, g_robot_state.chassis.
 838              		.loc 1 153 31 discriminator 1 view .LVU206
 839 011a 244B     		ldr	r3, .L53+40
 840 011c 83ED020A 		vstr.32	s0, [r3, #8]
 841 0120 E6E7     		b	.L44
 842              	.LVL48:
 843              	.L46:
 844              	.LBB12:
 163:Swerve-Standard/src/chassis_task.c ****         g_chassis_state.states[i].speed = rate_limiter_iterate(&chassis_vel_limiters[i], g_chassis_
 845              		.loc 1 163 9 is_stmt 1 view .LVU207
 163:Swerve-Standard/src/chassis_task.c ****         g_chassis_state.states[i].speed = rate_limiter_iterate(&chassis_vel_limiters[i], g_chassis_
 846              		.loc 1 163 43 is_stmt 0 view .LVU208
 847 0122 04EB4403 		add	r3, r4, r4, lsl #1
 848 0126 214D     		ldr	r5, .L53+40
 849 0128 05EB8305 		add	r5, r5, r3, lsl #2
 850 012c 1846     		mov	r0, r3
 851 012e 95ED030A 		vldr.32	s0, [r5, #12]
 852 0132 174B     		ldr	r3, .L53+12
 853 0134 03EB8000 		add	r0, r3, r0, lsl #2
 854 0138 FFF7FEFF 		bl	rate_limiter_iterate
 855              	.LVL49:
 163:Swerve-Standard/src/chassis_task.c ****         g_chassis_state.states[i].speed = rate_limiter_iterate(&chassis_vel_limiters[i], g_chassis_
 856              		.loc 1 163 41 discriminator 1 view .LVU209
 857 013c 85ED030A 		vstr.32	s0, [r5, #12]
 162:Swerve-Standard/src/chassis_task.c ****     for (int i = 0; i < NUMBER_OF_MODULES; i++) {
 858              		.loc 1 162 45 is_stmt 1 discriminator 3 view .LVU210
 859 0140 0134     		adds	r4, r4, #1
 860              	.LVL50:
 861              	.L45:
 162:Swerve-Standard/src/chassis_task.c ****     for (int i = 0; i < NUMBER_OF_MODULES; i++) {
 862              		.loc 1 162 23 discriminator 1 view .LVU211
 863 0142 032C     		cmp	r4, #3
 864 0144 EDDD     		ble	.L46
 865              	.LBE12:
 166:Swerve-Standard/src/chassis_task.c ****     swerve_convert_to_rpm(&g_chassis_state, &g_swerve_constants);
 866              		.loc 1 166 5 view .LVU212
 867 0146 1049     		ldr	r1, .L53+4
 868 0148 1848     		ldr	r0, .L53+40
 869 014a FFF7FEFF 		bl	swerve_convert_to_rpm
 870              	.LVL51:
 168:Swerve-Standard/src/chassis_task.c ****     for (int i = 0; i < NUMBER_OF_MODULES; i++) {
 871              		.loc 1 168 5 view .LVU213
 872              	.LBB13:
 168:Swerve-Standard/src/chassis_task.c ****     for (int i = 0; i < NUMBER_OF_MODULES; i++) {
 873              		.loc 1 168 10 view .LVU214
 168:Swerve-Standard/src/chassis_task.c ****     for (int i = 0; i < NUMBER_OF_MODULES; i++) {
 874              		.loc 1 168 14 is_stmt 0 view .LVU215
 875 014e 0024     		movs	r4, #0
ARM GAS  /var/folders/sg/pxk9dyzj7jz_x3889hx3b3dw0000gn/T//ccIQseOU.s 			page 22


 876              	.LVL52:
 168:Swerve-Standard/src/chassis_task.c ****     for (int i = 0; i < NUMBER_OF_MODULES; i++) {
 877              		.loc 1 168 5 view .LVU216
 878 0150 13E0     		b	.L47
 879              	.LVL53:
 880              	.L48:
 169:Swerve-Standard/src/chassis_task.c ****         DJI_Motor_Set_Angle(g_azimuth_motors[i], g_chassis_state.states[i].angle);
 881              		.loc 1 169 9 is_stmt 1 view .LVU217
 882 0152 04EB4403 		add	r3, r4, r4, lsl #1
 883 0156 154D     		ldr	r5, .L53+40
 884 0158 05EB8305 		add	r5, r5, r3, lsl #2
 885 015c 95ED040A 		vldr.32	s0, [r5, #16]
 886 0160 104B     		ldr	r3, .L53+32
 887 0162 53F82400 		ldr	r0, [r3, r4, lsl #2]
 888 0166 FFF7FEFF 		bl	DJI_Motor_Set_Angle
 889              	.LVL54:
 170:Swerve-Standard/src/chassis_task.c ****         DJI_Motor_Set_Velocity(g_drive_motors[i], g_chassis_state.states[i].speed);
 890              		.loc 1 170 9 view .LVU218
 891 016a 95ED030A 		vldr.32	s0, [r5, #12]
 892 016e 124B     		ldr	r3, .L53+52
 893 0170 53F82400 		ldr	r0, [r3, r4, lsl #2]
 894 0174 FFF7FEFF 		bl	DJI_Motor_Set_Velocity
 895              	.LVL55:
 168:Swerve-Standard/src/chassis_task.c ****     for (int i = 0; i < NUMBER_OF_MODULES; i++) {
 896              		.loc 1 168 45 discriminator 3 view .LVU219
 897 0178 0134     		adds	r4, r4, #1
 898              	.LVL56:
 899              	.L47:
 168:Swerve-Standard/src/chassis_task.c ****     for (int i = 0; i < NUMBER_OF_MODULES; i++) {
 900              		.loc 1 168 23 discriminator 1 view .LVU220
 901 017a 032C     		cmp	r4, #3
 902 017c E9DD     		ble	.L48
 903              	.LBE13:
 173:Swerve-Standard/src/chassis_task.c ****     Update_Maxes();
 904              		.loc 1 173 5 view .LVU221
 905 017e FFF7FEFF 		bl	Update_Maxes
 906              	.LVL57:
 174:Swerve-Standard/src/chassis_task.c **** }
 907              		.loc 1 174 1 is_stmt 0 view .LVU222
 908 0182 38BD     		pop	{r3, r4, r5, pc}
 909              	.LVL58:
 910              	.L54:
 174:Swerve-Standard/src/chassis_task.c **** }
 911              		.loc 1 174 1 view .LVU223
 912              		.align	2
 913              	.L53:
 914 0184 00000000 		.word	g_robot_state
 915 0188 00000000 		.word	g_swerve_constants
 916 018c 0000A040 		.word	1084227584
 917 0190 00000000 		.word	chassis_vel_limiters
 918 0194 0AD7233C 		.word	1008981770
 919 0198 00004040 		.word	1077936128
 920 019c 295C0F3F 		.word	1057971241
 921 01a0 CDCC4C3F 		.word	1061997773
 922 01a4 00000000 		.word	g_azimuth_motors
 923 01a8 00000000 		.word	measured_angles
 924 01ac 00000000 		.word	g_chassis_state
ARM GAS  /var/folders/sg/pxk9dyzj7jz_x3889hx3b3dw0000gn/T//ccIQseOU.s 			page 23


 925 01b0 00000000 		.word	chassis_omega_limiter
 926 01b4 C3F54840 		.word	1078523331
 927 01b8 00000000 		.word	g_drive_motors
 928              		.cfi_endproc
 929              	.LFE143:
 931              		.global	g_spintop_omega
 932              		.section	.data.g_spintop_omega,"aw"
 933              		.align	2
 936              	g_spintop_omega:
 937 0000 00008040 		.word	1082130432
 938              		.global	chassis_rad
 939              		.section	.data.chassis_rad,"aw"
 940              		.align	2
 943              	chassis_rad:
 944 0000 2D26F63E 		.word	1056319021
 945              		.global	chassis_omega_limiter
 946              		.section	.bss.chassis_omega_limiter,"aw",%nobits
 947              		.align	2
 950              	chassis_omega_limiter:
 951 0000 00000000 		.space	12
 951      00000000 
 951      00000000 
 952              		.global	chassis_vel_limiters
 953              		.section	.bss.chassis_vel_limiters,"aw",%nobits
 954              		.align	2
 957              	chassis_vel_limiters:
 958 0000 00000000 		.space	48
 958      00000000 
 958      00000000 
 958      00000000 
 958      00000000 
 959              		.global	measured_angles
 960              		.section	.bss.measured_angles,"aw",%nobits
 961              		.align	2
 964              	measured_angles:
 965 0000 00000000 		.space	16
 965      00000000 
 965      00000000 
 965      00000000 
 966              		.global	g_chassis_state
 967              		.section	.bss.g_chassis_state,"aw",%nobits
 968              		.align	2
 971              	g_chassis_state:
 972 0000 00000000 		.space	60
 972      00000000 
 972      00000000 
 972      00000000 
 972      00000000 
 973              		.global	g_swerve_constants
 974              		.section	.bss.g_swerve_constants,"aw",%nobits
 975              		.align	2
 978              	g_swerve_constants:
 979 0000 00000000 		.space	116
 979      00000000 
 979      00000000 
 979      00000000 
 979      00000000 
ARM GAS  /var/folders/sg/pxk9dyzj7jz_x3889hx3b3dw0000gn/T//ccIQseOU.s 			page 24


 980              		.global	g_drive_motors
 981              		.section	.bss.g_drive_motors,"aw",%nobits
 982              		.align	2
 985              	g_drive_motors:
 986 0000 00000000 		.space	16
 986      00000000 
 986      00000000 
 986      00000000 
 987              		.global	g_azimuth_motors
 988              		.section	.bss.g_azimuth_motors,"aw",%nobits
 989              		.align	2
 992              	g_azimuth_motors:
 993 0000 00000000 		.space	16
 993      00000000 
 993      00000000 
 993      00000000 
 994              		.section	.rodata
 995              		.align	2
 996              		.set	.LANCHOR0,. + 0
 997              	.LC0:
 998 0000 00000040 		.word	1073741824
 999 0004 0000803F 		.word	1065353216
 1000 0008 00200045 		.word	1157636096
 1001 000c 01       		.byte	1
 1002 000d 000000   		.space	3
 1003 0010 0000803F 		.word	1065353216
 1004 0014 0000803F 		.word	1065353216
 1005 0018 00       		.byte	0
 1006 0019 000000   		.space	3
 1007 001c 00000040 		.word	1073741824
 1008 0020 00000040 		.word	1073741824
 1009 0024 00407645 		.word	1165377536
 1010 0028 01       		.byte	1
 1011 0029 000000   		.space	3
 1012 002c 00000040 		.word	1073741824
 1013 0030 00000040 		.word	1073741824
 1014 0034 00       		.byte	0
 1015 0035 000000   		.space	3
 1016 0038 00000040 		.word	1073741824
 1017 003c 00004040 		.word	1077936128
 1018 0040 00C0B244 		.word	1152565248
 1019 0044 01       		.byte	1
 1020 0045 000000   		.space	3
 1021 0048 00000040 		.word	1073741824
 1022 004c 00004040 		.word	1077936128
 1023 0050 01       		.byte	1
 1024 0051 000000   		.space	3
 1025 0054 00000040 		.word	1073741824
 1026 0058 00008040 		.word	1082130432
 1027 005c 00B0FE45 		.word	1174319104
 1028 0060 01       		.byte	1
 1029 0061 000000   		.space	3
 1030 0064 00000040 		.word	1073741824
 1031 0068 00008040 		.word	1082130432
 1032 006c 01       		.byte	1
 1033 006d 000000   		.space	3
 1034              		.text
ARM GAS  /var/folders/sg/pxk9dyzj7jz_x3889hx3b3dw0000gn/T//ccIQseOU.s 			page 25


 1035              	.Letext0:
 1036              		.file 2 "/Applications/ArmGNUToolchain/14.3.rel1/arm-none-eabi/arm-none-eabi/include/machine/_defa
 1037              		.file 3 "/Applications/ArmGNUToolchain/14.3.rel1/arm-none-eabi/arm-none-eabi/include/sys/_stdint.h
 1038              		.file 4 "Swerve-Standard/inc/robot.h"
 1039              		.file 5 "control-base/typec-board-base/Drivers/CMSIS/Device/ST/STM32F4xx/Include/stm32f407xx.h"
 1040              		.file 6 "control-base/typec-board-base/Drivers/STM32F4xx_HAL_Driver/Inc/stm32f4xx_hal_def.h"
 1041              		.file 7 "control-base/typec-board-base/Drivers/STM32F4xx_HAL_Driver/Inc/stm32f4xx_hal_dma.h"
 1042              		.file 8 "control-base/typec-board-base/Drivers/STM32F4xx_HAL_Driver/Inc/stm32f4xx_hal_uart.h"
 1043              		.file 9 "control-base/algo/inc/pid.h"
 1044              		.file 10 "control-base/devices/inc/motor.h"
 1045              		.file 11 "control-base/devices/inc/dji_motor.h"
 1046              		.file 12 "control-base/devices/inc/referee_system.h"
 1047              		.file 13 "control-base/algo/inc/swerve_locomotion.h"
 1048              		.file 14 "control-base/algo/inc/rate_limiter.h"
 1049              		.file 15 "/Applications/ArmGNUToolchain/14.3.rel1/arm-none-eabi/arm-none-eabi/include/math.h"
 1050              		.file 16 "<built-in>"
ARM GAS  /var/folders/sg/pxk9dyzj7jz_x3889hx3b3dw0000gn/T//ccIQseOU.s 			page 26

