ARM GAS  /var/folders/sg/pxk9dyzj7jz_x3889hx3b3dw0000gn/T//ccZYhb4r.s 			page 1


   1              		.cpu cortex-m4
   2              		.arch armv7e-m
   3              		.fpu fpv4-sp-d16
   4              		.eabi_attribute 27, 1
   5              		.eabi_attribute 28, 1
   6              		.eabi_attribute 20, 1
   7              		.eabi_attribute 21, 1
   8              		.eabi_attribute 23, 3
   9              		.eabi_attribute 24, 1
  10              		.eabi_attribute 25, 1
  11              		.eabi_attribute 26, 1
  12              		.eabi_attribute 30, 1
  13              		.eabi_attribute 34, 1
  14              		.eabi_attribute 18, 4
  15              		.file	"laser.c"
  16              		.text
  17              	.Ltext0:
  18              		.cfi_sections	.debug_frame
  19              		.file 1 "control-base/devices/src/laser.c"
  20              		.section	.text.Laser_Init,"ax",%progbits
  21              		.align	1
  22              		.global	Laser_Init
  23              		.syntax unified
  24              		.thumb
  25              		.thumb_func
  27              	Laser_Init:
  28              	.LFB134:
   1:control-base/devices/src/laser.c **** 
   2:control-base/devices/src/laser.c **** #include "laser.h"
   3:control-base/devices/src/laser.c **** #include "tim.h"
   4:control-base/devices/src/laser.c **** 
   5:control-base/devices/src/laser.c **** void Laser_Init()
   6:control-base/devices/src/laser.c **** {
  29              		.loc 1 6 1 view -0
  30              		.cfi_startproc
  31              		@ args = 0, pretend = 0, frame = 0
  32              		@ frame_needed = 0, uses_anonymous_args = 0
  33 0000 08B5     		push	{r3, lr}
  34              	.LCFI0:
  35              		.cfi_def_cfa_offset 8
  36              		.cfi_offset 3, -8
  37              		.cfi_offset 14, -4
   7:control-base/devices/src/laser.c ****     // HAL_TIM_Base_Start(&htim3); // This is initialized in tim.h
   8:control-base/devices/src/laser.c ****     HAL_TIM_PWM_Start(&htim3, TIM_CHANNEL_3);
  38              		.loc 1 8 5 view .LVU1
  39 0002 0821     		movs	r1, #8
  40 0004 0148     		ldr	r0, .L3
  41 0006 FFF7FEFF 		bl	HAL_TIM_PWM_Start
  42              	.LVL0:
   9:control-base/devices/src/laser.c **** }
  43              		.loc 1 9 1 is_stmt 0 view .LVU2
  44 000a 08BD     		pop	{r3, pc}
  45              	.L4:
  46              		.align	2
  47              	.L3:
  48 000c 00000000 		.word	htim3
  49              		.cfi_endproc
ARM GAS  /var/folders/sg/pxk9dyzj7jz_x3889hx3b3dw0000gn/T//ccZYhb4r.s 			page 2


  50              	.LFE134:
  52              		.section	.text.Laser_On,"ax",%progbits
  53              		.align	1
  54              		.global	Laser_On
  55              		.syntax unified
  56              		.thumb
  57              		.thumb_func
  59              	Laser_On:
  60              	.LFB135:
  10:control-base/devices/src/laser.c **** 
  11:control-base/devices/src/laser.c **** void Laser_On()
  12:control-base/devices/src/laser.c **** {
  61              		.loc 1 12 1 is_stmt 1 view -0
  62              		.cfi_startproc
  63              		@ args = 0, pretend = 0, frame = 0
  64              		@ frame_needed = 0, uses_anonymous_args = 0
  65              		@ link register save eliminated.
  13:control-base/devices/src/laser.c ****     __HAL_TIM_SetCompare(&htim3, TIM_CHANNEL_3, 65535/250);
  66              		.loc 1 13 5 view .LVU4
  67 0000 024B     		ldr	r3, .L6
  68 0002 1B68     		ldr	r3, [r3]
  69 0004 4FF48372 		mov	r2, #262
  70 0008 DA63     		str	r2, [r3, #60]
  14:control-base/devices/src/laser.c **** }
  71              		.loc 1 14 1 is_stmt 0 view .LVU5
  72 000a 7047     		bx	lr
  73              	.L7:
  74              		.align	2
  75              	.L6:
  76 000c 00000000 		.word	htim3
  77              		.cfi_endproc
  78              	.LFE135:
  80              		.section	.text.Laser_Off,"ax",%progbits
  81              		.align	1
  82              		.global	Laser_Off
  83              		.syntax unified
  84              		.thumb
  85              		.thumb_func
  87              	Laser_Off:
  88              	.LFB136:
  15:control-base/devices/src/laser.c **** void Laser_Off()
  16:control-base/devices/src/laser.c **** {
  89              		.loc 1 16 1 is_stmt 1 view -0
  90              		.cfi_startproc
  91              		@ args = 0, pretend = 0, frame = 0
  92              		@ frame_needed = 0, uses_anonymous_args = 0
  93              		@ link register save eliminated.
  17:control-base/devices/src/laser.c ****     __HAL_TIM_SetCompare(&htim3, TIM_CHANNEL_3, 0);
  94              		.loc 1 17 5 view .LVU7
  95 0000 024B     		ldr	r3, .L9
  96 0002 1B68     		ldr	r3, [r3]
  97 0004 0022     		movs	r2, #0
  98 0006 DA63     		str	r2, [r3, #60]
  18:control-base/devices/src/laser.c **** }...
  99              		.loc 1 18 1 is_stmt 0 view .LVU8
 100 0008 7047     		bx	lr
 101              	.L10:
ARM GAS  /var/folders/sg/pxk9dyzj7jz_x3889hx3b3dw0000gn/T//ccZYhb4r.s 			page 3


 102 000a 00BF     		.align	2
 103              	.L9:
 104 000c 00000000 		.word	htim3
 105              		.cfi_endproc
 106              	.LFE136:
 108              		.text
 109              	.Letext0:
 110              		.file 2 "/Applications/ArmGNUToolchain/14.3.rel1/arm-none-eabi/arm-none-eabi/include/machine/_defa
 111              		.file 3 "/Applications/ArmGNUToolchain/14.3.rel1/arm-none-eabi/arm-none-eabi/include/sys/_stdint.h
 112              		.file 4 "control-base/typec-board-base/Drivers/CMSIS/Device/ST/STM32F4xx/Include/stm32f407xx.h"
 113              		.file 5 "control-base/typec-board-base/Drivers/STM32F4xx_HAL_Driver/Inc/stm32f4xx_hal_def.h"
 114              		.file 6 "control-base/typec-board-base/Drivers/STM32F4xx_HAL_Driver/Inc/stm32f4xx_hal_dma.h"
 115              		.file 7 "control-base/typec-board-base/Drivers/STM32F4xx_HAL_Driver/Inc/stm32f4xx_hal_tim.h"
 116              		.file 8 "control-base/typec-board-base/Core/Inc/tim.h"
ARM GAS  /var/folders/sg/pxk9dyzj7jz_x3889hx3b3dw0000gn/T//ccZYhb4r.s 			page 4

