ARM GAS  /var/folders/sg/pxk9dyzj7jz_x3889hx3b3dw0000gn/T//ccgLpubu.s 			page 1


   1              		.cpu cortex-m4
   2              		.arch armv7e-m
   3              		.fpu fpv4-sp-d16
   4              		.eabi_attribute 27, 1
   5              		.eabi_attribute 28, 1
   6              		.eabi_attribute 20, 1
   7              		.eabi_attribute 21, 1
   8              		.eabi_attribute 23, 3
   9              		.eabi_attribute 24, 1
  10              		.eabi_attribute 25, 1
  11              		.eabi_attribute 26, 1
  12              		.eabi_attribute 30, 1
  13              		.eabi_attribute 34, 1
  14              		.eabi_attribute 18, 4
  15              		.file	"robot.c"
  16              		.text
  17              	.Ltext0:
  18              		.cfi_sections	.debug_frame
  19              		.file 1 "Swerve-Standard/src/robot.c"
  20              		.section	.text.Robot_Tasks_UI,"ax",%progbits
  21              		.align	1
  22              		.global	Robot_Tasks_UI
  23              		.syntax unified
  24              		.thumb
  25              		.thumb_func
  27              	Robot_Tasks_UI:
  28              	.LVL0:
  29              	.LFB146:
  30              		.file 2 "Swerve-Standard/inc/robot_tasks.h"
   1:Swerve-Standard/inc/robot_tasks.h **** #pragma once
   2:Swerve-Standard/inc/robot_tasks.h **** 
   3:Swerve-Standard/inc/robot_tasks.h **** #include "FreeRTOS.h"
   4:Swerve-Standard/inc/robot_tasks.h **** #include "task.h"
   5:Swerve-Standard/inc/robot_tasks.h **** #include "main.h"
   6:Swerve-Standard/inc/robot_tasks.h **** #include "cmsis_os.h"
   7:Swerve-Standard/inc/robot_tasks.h **** 
   8:Swerve-Standard/inc/robot_tasks.h **** #include "robot.h"
   9:Swerve-Standard/inc/robot_tasks.h **** #include "launch_task.h"
  10:Swerve-Standard/inc/robot_tasks.h **** #include "motor_task.h"
  11:Swerve-Standard/inc/robot_tasks.h **** #include "debug_task.h"
  12:Swerve-Standard/inc/robot_tasks.h **** #include "jetson_orin.h"
  13:Swerve-Standard/inc/robot_tasks.h **** #include "bsp_serial.h"
  14:Swerve-Standard/inc/robot_tasks.h **** #include "bsp_daemon.h"
  15:Swerve-Standard/inc/robot_tasks.h **** 
  16:Swerve-Standard/inc/robot_tasks.h **** extern void IMU_Task(void const *pvParameters);
  17:Swerve-Standard/inc/robot_tasks.h **** 
  18:Swerve-Standard/inc/robot_tasks.h **** osThreadId imu_task_handle;
  19:Swerve-Standard/inc/robot_tasks.h **** osThreadId robot_command_task_handle;
  20:Swerve-Standard/inc/robot_tasks.h **** osThreadId motor_task_handle;
  21:Swerve-Standard/inc/robot_tasks.h **** osThreadId ui_task_handle;
  22:Swerve-Standard/inc/robot_tasks.h **** osThreadId debug_task_handle;
  23:Swerve-Standard/inc/robot_tasks.h **** osThreadId jetson_orin_task_handle;
  24:Swerve-Standard/inc/robot_tasks.h **** osThreadId daemon_task_handle;
  25:Swerve-Standard/inc/robot_tasks.h **** 
  26:Swerve-Standard/inc/robot_tasks.h **** void Robot_Tasks_Robot_Command(void const *argument);
  27:Swerve-Standard/inc/robot_tasks.h **** void Robot_Tasks_Motor(void const *argument);
  28:Swerve-Standard/inc/robot_tasks.h **** void Robot_Tasks_IMU(void const *argument);
ARM GAS  /var/folders/sg/pxk9dyzj7jz_x3889hx3b3dw0000gn/T//ccgLpubu.s 			page 2


  29:Swerve-Standard/inc/robot_tasks.h **** void Robot_Tasks_UI(void const *argument);
  30:Swerve-Standard/inc/robot_tasks.h **** void Robot_Tasks_Debug(void const *argument);
  31:Swerve-Standard/inc/robot_tasks.h **** void Robot_Tasks_Jetson_Orin(void const *argument);
  32:Swerve-Standard/inc/robot_tasks.h **** void Robot_Tasks_Daemon(void const *argument);
  33:Swerve-Standard/inc/robot_tasks.h **** 
  34:Swerve-Standard/inc/robot_tasks.h **** void Robot_Tasks_Start()
  35:Swerve-Standard/inc/robot_tasks.h **** {
  36:Swerve-Standard/inc/robot_tasks.h ****     osThreadDef(imu_task, Robot_Tasks_IMU, osPriorityAboveNormal, 0, 1024);
  37:Swerve-Standard/inc/robot_tasks.h ****     imu_task_handle = osThreadCreate(osThread(imu_task), NULL);
  38:Swerve-Standard/inc/robot_tasks.h **** 
  39:Swerve-Standard/inc/robot_tasks.h ****     osThreadDef(motor_task, Robot_Tasks_Motor, osPriorityAboveNormal, 0, 256);
  40:Swerve-Standard/inc/robot_tasks.h ****     motor_task_handle = osThreadCreate(osThread(motor_task), NULL);
  41:Swerve-Standard/inc/robot_tasks.h **** 
  42:Swerve-Standard/inc/robot_tasks.h ****     osThreadDef(robot_command_task, Robot_Tasks_Robot_Command, osPriorityAboveNormal, 0, 256);
  43:Swerve-Standard/inc/robot_tasks.h ****     robot_command_task_handle = osThreadCreate(osThread(robot_command_task), NULL);
  44:Swerve-Standard/inc/robot_tasks.h **** 
  45:Swerve-Standard/inc/robot_tasks.h ****     osThreadDef(ui_task, Robot_Tasks_UI, osPriorityAboveNormal, 0, 256);
  46:Swerve-Standard/inc/robot_tasks.h ****     ui_task_handle = osThreadCreate(osThread(ui_task), NULL);
  47:Swerve-Standard/inc/robot_tasks.h **** 
  48:Swerve-Standard/inc/robot_tasks.h ****     osThreadDef(debug_task, Robot_Tasks_Debug, osPriorityIdle, 0, 256);
  49:Swerve-Standard/inc/robot_tasks.h ****     debug_task_handle = osThreadCreate(osThread(debug_task), NULL);
  50:Swerve-Standard/inc/robot_tasks.h **** 
  51:Swerve-Standard/inc/robot_tasks.h ****     osThreadDef(jetson_orin_task, Robot_Tasks_Jetson_Orin, osPriorityAboveNormal, 0, 256);
  52:Swerve-Standard/inc/robot_tasks.h ****     jetson_orin_task_handle = osThreadCreate(osThread(jetson_orin_task), NULL);
  53:Swerve-Standard/inc/robot_tasks.h **** 
  54:Swerve-Standard/inc/robot_tasks.h ****     osThreadDef(daemon_task, Robot_Tasks_Daemon, osPriorityAboveNormal, 0, 256);
  55:Swerve-Standard/inc/robot_tasks.h ****     daemon_task_handle = osThreadCreate(osThread(daemon_task), NULL);
  56:Swerve-Standard/inc/robot_tasks.h **** }
  57:Swerve-Standard/inc/robot_tasks.h **** 
  58:Swerve-Standard/inc/robot_tasks.h **** void Robot_Tasks_Robot_Command(void const *argument)
  59:Swerve-Standard/inc/robot_tasks.h **** {
  60:Swerve-Standard/inc/robot_tasks.h ****     portTickType xLastWakeTime;
  61:Swerve-Standard/inc/robot_tasks.h ****     xLastWakeTime = xTaskGetTickCount();
  62:Swerve-Standard/inc/robot_tasks.h ****     const TickType_t TimeIncrement = pdMS_TO_TICKS(2);
  63:Swerve-Standard/inc/robot_tasks.h ****     while (1)
  64:Swerve-Standard/inc/robot_tasks.h ****     {
  65:Swerve-Standard/inc/robot_tasks.h ****         Robot_Command_Loop();
  66:Swerve-Standard/inc/robot_tasks.h ****         vTaskDelayUntil(&xLastWakeTime, TimeIncrement);
  67:Swerve-Standard/inc/robot_tasks.h ****     }
  68:Swerve-Standard/inc/robot_tasks.h **** }
  69:Swerve-Standard/inc/robot_tasks.h **** 
  70:Swerve-Standard/inc/robot_tasks.h **** __weak void Robot_Tasks_IMU(void const *argument)
  71:Swerve-Standard/inc/robot_tasks.h **** {
  72:Swerve-Standard/inc/robot_tasks.h ****     IMU_Task(argument);
  73:Swerve-Standard/inc/robot_tasks.h **** }
  74:Swerve-Standard/inc/robot_tasks.h **** 
  75:Swerve-Standard/inc/robot_tasks.h **** void Robot_Tasks_Motor(void const *argument)
  76:Swerve-Standard/inc/robot_tasks.h **** {
  77:Swerve-Standard/inc/robot_tasks.h ****     portTickType xLastWakeTime;
  78:Swerve-Standard/inc/robot_tasks.h ****     xLastWakeTime = xTaskGetTickCount();
  79:Swerve-Standard/inc/robot_tasks.h ****     const TickType_t TimeIncrement = pdMS_TO_TICKS(2);
  80:Swerve-Standard/inc/robot_tasks.h ****     while (1)
  81:Swerve-Standard/inc/robot_tasks.h ****     {
  82:Swerve-Standard/inc/robot_tasks.h ****         Motor_Task_Loop();
  83:Swerve-Standard/inc/robot_tasks.h ****         vTaskDelayUntil(&xLastWakeTime, TimeIncrement);
  84:Swerve-Standard/inc/robot_tasks.h ****     }
  85:Swerve-Standard/inc/robot_tasks.h **** }
ARM GAS  /var/folders/sg/pxk9dyzj7jz_x3889hx3b3dw0000gn/T//ccgLpubu.s 			page 3


  86:Swerve-Standard/inc/robot_tasks.h **** 
  87:Swerve-Standard/inc/robot_tasks.h **** void Robot_Tasks_UI(void const *argument)
  88:Swerve-Standard/inc/robot_tasks.h **** {
  31              		.loc 2 88 1 view -0
  32              		.cfi_startproc
  33              		@ args = 0, pretend = 0, frame = 8
  34              		@ frame_needed = 0, uses_anonymous_args = 0
  35              		.loc 2 88 1 is_stmt 0 view .LVU1
  36 0000 00B5     		push	{lr}
  37              	.LCFI0:
  38              		.cfi_def_cfa_offset 4
  39              		.cfi_offset 14, -4
  40 0002 83B0     		sub	sp, sp, #12
  41              	.LCFI1:
  42              		.cfi_def_cfa_offset 16
  89:Swerve-Standard/inc/robot_tasks.h ****     portTickType xLastWakeTime;
  43              		.loc 2 89 5 is_stmt 1 view .LVU2
  90:Swerve-Standard/inc/robot_tasks.h ****     xLastWakeTime = xTaskGetTickCount();
  44              		.loc 2 90 5 view .LVU3
  45              		.loc 2 90 21 is_stmt 0 view .LVU4
  46 0004 FFF7FEFF 		bl	xTaskGetTickCount
  47              	.LVL1:
  48              		.loc 2 90 19 discriminator 1 view .LVU5
  49 0008 0190     		str	r0, [sp, #4]
  91:Swerve-Standard/inc/robot_tasks.h ****     const TickType_t TimeIncrement = pdMS_TO_TICKS(1);
  50              		.loc 2 91 5 is_stmt 1 view .LVU6
  51              	.LVL2:
  52              	.L2:
  92:Swerve-Standard/inc/robot_tasks.h ****     while (1)
  53              		.loc 2 92 5 view .LVU7
  93:Swerve-Standard/inc/robot_tasks.h ****     {
  94:Swerve-Standard/inc/robot_tasks.h ****         // UI_Task_Loop();
  95:Swerve-Standard/inc/robot_tasks.h ****         vTaskDelayUntil(&xLastWakeTime, TimeIncrement);
  54              		.loc 2 95 9 discriminator 1 view .LVU8
  55 000a 0121     		movs	r1, #1
  56 000c 01A8     		add	r0, sp, #4
  57 000e FFF7FEFF 		bl	vTaskDelayUntil
  58              	.LVL3:
  92:Swerve-Standard/inc/robot_tasks.h ****     while (1)
  59              		.loc 2 92 11 view .LVU9
  60 0012 FAE7     		b	.L2
  61              		.cfi_endproc
  62              	.LFE146:
  64              		.section	.text.Robot_Tasks_IMU,"ax",%progbits
  65              		.align	1
  66              		.weak	Robot_Tasks_IMU
  67              		.syntax unified
  68              		.thumb
  69              		.thumb_func
  71              	Robot_Tasks_IMU:
  72              	.LVL4:
  73              	.LFB144:
  71:Swerve-Standard/inc/robot_tasks.h ****     IMU_Task(argument);
  74              		.loc 2 71 1 view -0
  75              		.cfi_startproc
  76              		@ args = 0, pretend = 0, frame = 0
  77              		@ frame_needed = 0, uses_anonymous_args = 0
ARM GAS  /var/folders/sg/pxk9dyzj7jz_x3889hx3b3dw0000gn/T//ccgLpubu.s 			page 4


  71:Swerve-Standard/inc/robot_tasks.h ****     IMU_Task(argument);
  78              		.loc 2 71 1 is_stmt 0 view .LVU11
  79 0000 08B5     		push	{r3, lr}
  80              	.LCFI2:
  81              		.cfi_def_cfa_offset 8
  82              		.cfi_offset 3, -8
  83              		.cfi_offset 14, -4
  72:Swerve-Standard/inc/robot_tasks.h **** }
  84              		.loc 2 72 5 is_stmt 1 view .LVU12
  85 0002 FFF7FEFF 		bl	IMU_Task
  86              	.LVL5:
  73:Swerve-Standard/inc/robot_tasks.h **** 
  87              		.loc 2 73 1 is_stmt 0 view .LVU13
  88 0006 08BD     		pop	{r3, pc}
  89              		.cfi_endproc
  90              	.LFE144:
  92              		.section	.text.Robot_Tasks_Motor,"ax",%progbits
  93              		.align	1
  94              		.global	Robot_Tasks_Motor
  95              		.syntax unified
  96              		.thumb
  97              		.thumb_func
  99              	Robot_Tasks_Motor:
 100              	.LVL6:
 101              	.LFB145:
  76:Swerve-Standard/inc/robot_tasks.h ****     portTickType xLastWakeTime;
 102              		.loc 2 76 1 is_stmt 1 view -0
 103              		.cfi_startproc
 104              		@ args = 0, pretend = 0, frame = 8
 105              		@ frame_needed = 0, uses_anonymous_args = 0
  76:Swerve-Standard/inc/robot_tasks.h ****     portTickType xLastWakeTime;
 106              		.loc 2 76 1 is_stmt 0 view .LVU15
 107 0000 00B5     		push	{lr}
 108              	.LCFI3:
 109              		.cfi_def_cfa_offset 4
 110              		.cfi_offset 14, -4
 111 0002 83B0     		sub	sp, sp, #12
 112              	.LCFI4:
 113              		.cfi_def_cfa_offset 16
  77:Swerve-Standard/inc/robot_tasks.h ****     xLastWakeTime = xTaskGetTickCount();
 114              		.loc 2 77 5 is_stmt 1 view .LVU16
  78:Swerve-Standard/inc/robot_tasks.h ****     const TickType_t TimeIncrement = pdMS_TO_TICKS(2);
 115              		.loc 2 78 5 view .LVU17
  78:Swerve-Standard/inc/robot_tasks.h ****     const TickType_t TimeIncrement = pdMS_TO_TICKS(2);
 116              		.loc 2 78 21 is_stmt 0 view .LVU18
 117 0004 FFF7FEFF 		bl	xTaskGetTickCount
 118              	.LVL7:
  78:Swerve-Standard/inc/robot_tasks.h ****     const TickType_t TimeIncrement = pdMS_TO_TICKS(2);
 119              		.loc 2 78 19 discriminator 1 view .LVU19
 120 0008 0190     		str	r0, [sp, #4]
  79:Swerve-Standard/inc/robot_tasks.h ****     while (1)
 121              		.loc 2 79 5 is_stmt 1 view .LVU20
 122              	.LVL8:
 123              	.L7:
  80:Swerve-Standard/inc/robot_tasks.h ****     {
 124              		.loc 2 80 5 view .LVU21
  82:Swerve-Standard/inc/robot_tasks.h ****         vTaskDelayUntil(&xLastWakeTime, TimeIncrement);
ARM GAS  /var/folders/sg/pxk9dyzj7jz_x3889hx3b3dw0000gn/T//ccgLpubu.s 			page 5


 125              		.loc 2 82 9 view .LVU22
 126 000a FFF7FEFF 		bl	Motor_Task_Loop
 127              	.LVL9:
  83:Swerve-Standard/inc/robot_tasks.h ****     }
 128              		.loc 2 83 9 discriminator 1 view .LVU23
 129 000e 0221     		movs	r1, #2
 130 0010 01A8     		add	r0, sp, #4
 131 0012 FFF7FEFF 		bl	vTaskDelayUntil
 132              	.LVL10:
  80:Swerve-Standard/inc/robot_tasks.h ****     {
 133              		.loc 2 80 11 view .LVU24
 134 0016 F8E7     		b	.L7
 135              		.cfi_endproc
 136              	.LFE145:
 138              		.section	.text.Robot_Tasks_Debug,"ax",%progbits
 139              		.align	1
 140              		.global	Robot_Tasks_Debug
 141              		.syntax unified
 142              		.thumb
 143              		.thumb_func
 145              	Robot_Tasks_Debug:
 146              	.LVL11:
 147              	.LFB147:
  96:Swerve-Standard/inc/robot_tasks.h ****     }
  97:Swerve-Standard/inc/robot_tasks.h **** }
  98:Swerve-Standard/inc/robot_tasks.h **** 
  99:Swerve-Standard/inc/robot_tasks.h **** void Robot_Tasks_Debug(void const *argument)
 100:Swerve-Standard/inc/robot_tasks.h **** {
 148              		.loc 2 100 1 view -0
 149              		.cfi_startproc
 150              		@ args = 0, pretend = 0, frame = 8
 151              		@ frame_needed = 0, uses_anonymous_args = 0
 152              		.loc 2 100 1 is_stmt 0 view .LVU26
 153 0000 00B5     		push	{lr}
 154              	.LCFI5:
 155              		.cfi_def_cfa_offset 4
 156              		.cfi_offset 14, -4
 157 0002 83B0     		sub	sp, sp, #12
 158              	.LCFI6:
 159              		.cfi_def_cfa_offset 16
 101:Swerve-Standard/inc/robot_tasks.h ****     portTickType xLastWakeTime;
 160              		.loc 2 101 5 is_stmt 1 view .LVU27
 102:Swerve-Standard/inc/robot_tasks.h ****     xLastWakeTime = xTaskGetTickCount();
 161              		.loc 2 102 5 view .LVU28
 162              		.loc 2 102 21 is_stmt 0 view .LVU29
 163 0004 FFF7FEFF 		bl	xTaskGetTickCount
 164              	.LVL12:
 165              		.loc 2 102 19 discriminator 1 view .LVU30
 166 0008 0190     		str	r0, [sp, #4]
 103:Swerve-Standard/inc/robot_tasks.h ****     const TickType_t TimeIncrement = pdMS_TO_TICKS(DEBUG_PERIOD);
 167              		.loc 2 103 5 is_stmt 1 view .LVU31
 168              	.LVL13:
 169              	.L10:
 104:Swerve-Standard/inc/robot_tasks.h ****     while (1)
 170              		.loc 2 104 5 view .LVU32
 105:Swerve-Standard/inc/robot_tasks.h ****     {
 106:Swerve-Standard/inc/robot_tasks.h ****         Debug_Task_Loop();
ARM GAS  /var/folders/sg/pxk9dyzj7jz_x3889hx3b3dw0000gn/T//ccgLpubu.s 			page 6


 171              		.loc 2 106 9 view .LVU33
 172 000a FFF7FEFF 		bl	Debug_Task_Loop
 173              	.LVL14:
 107:Swerve-Standard/inc/robot_tasks.h ****         vTaskDelayUntil(&xLastWakeTime, TimeIncrement);
 174              		.loc 2 107 9 discriminator 1 view .LVU34
 175 000e 0A21     		movs	r1, #10
 176 0010 01A8     		add	r0, sp, #4
 177 0012 FFF7FEFF 		bl	vTaskDelayUntil
 178              	.LVL15:
 104:Swerve-Standard/inc/robot_tasks.h ****     while (1)
 179              		.loc 2 104 11 view .LVU35
 180 0016 F8E7     		b	.L10
 181              		.cfi_endproc
 182              	.LFE147:
 184              		.section	.text.Robot_Tasks_Jetson_Orin,"ax",%progbits
 185              		.align	1
 186              		.global	Robot_Tasks_Jetson_Orin
 187              		.syntax unified
 188              		.thumb
 189              		.thumb_func
 191              	Robot_Tasks_Jetson_Orin:
 192              	.LVL16:
 193              	.LFB148:
 108:Swerve-Standard/inc/robot_tasks.h ****     }
 109:Swerve-Standard/inc/robot_tasks.h **** }
 110:Swerve-Standard/inc/robot_tasks.h **** 
 111:Swerve-Standard/inc/robot_tasks.h **** void Robot_Tasks_Jetson_Orin(void const *argument)
 112:Swerve-Standard/inc/robot_tasks.h **** {
 194              		.loc 2 112 1 view -0
 195              		.cfi_startproc
 196              		@ args = 0, pretend = 0, frame = 8
 197              		@ frame_needed = 0, uses_anonymous_args = 0
 198              		.loc 2 112 1 is_stmt 0 view .LVU37
 199 0000 00B5     		push	{lr}
 200              	.LCFI7:
 201              		.cfi_def_cfa_offset 4
 202              		.cfi_offset 14, -4
 203 0002 83B0     		sub	sp, sp, #12
 204              	.LCFI8:
 205              		.cfi_def_cfa_offset 16
 113:Swerve-Standard/inc/robot_tasks.h ****     portTickType xLastWakeTime;
 206              		.loc 2 113 5 is_stmt 1 view .LVU38
 114:Swerve-Standard/inc/robot_tasks.h ****     xLastWakeTime = xTaskGetTickCount();
 207              		.loc 2 114 5 view .LVU39
 208              		.loc 2 114 21 is_stmt 0 view .LVU40
 209 0004 FFF7FEFF 		bl	xTaskGetTickCount
 210              	.LVL17:
 211              		.loc 2 114 19 discriminator 1 view .LVU41
 212 0008 0190     		str	r0, [sp, #4]
 115:Swerve-Standard/inc/robot_tasks.h ****     const TickType_t TimeIncrement = pdMS_TO_TICKS(JETSON_ORIN_PERIOD);
 213              		.loc 2 115 5 is_stmt 1 view .LVU42
 214              	.LVL18:
 215              	.L13:
 116:Swerve-Standard/inc/robot_tasks.h ****     while (1)
 216              		.loc 2 116 5 view .LVU43
 117:Swerve-Standard/inc/robot_tasks.h ****     {
 118:Swerve-Standard/inc/robot_tasks.h ****         Jetson_Orin_Send_Data();
ARM GAS  /var/folders/sg/pxk9dyzj7jz_x3889hx3b3dw0000gn/T//ccgLpubu.s 			page 7


 217              		.loc 2 118 9 view .LVU44
 218 000a FFF7FEFF 		bl	Jetson_Orin_Send_Data
 219              	.LVL19:
 119:Swerve-Standard/inc/robot_tasks.h ****         vTaskDelayUntil(&xLastWakeTime, TimeIncrement);
 220              		.loc 2 119 9 discriminator 1 view .LVU45
 221 000e 0421     		movs	r1, #4
 222 0010 0DEB0100 		add	r0, sp, r1
 223 0014 FFF7FEFF 		bl	vTaskDelayUntil
 224              	.LVL20:
 116:Swerve-Standard/inc/robot_tasks.h ****     while (1)
 225              		.loc 2 116 11 view .LVU46
 226 0018 F7E7     		b	.L13
 227              		.cfi_endproc
 228              	.LFE148:
 230              		.section	.text.Robot_Tasks_Daemon,"ax",%progbits
 231              		.align	1
 232              		.global	Robot_Tasks_Daemon
 233              		.syntax unified
 234              		.thumb
 235              		.thumb_func
 237              	Robot_Tasks_Daemon:
 238              	.LVL21:
 239              	.LFB149:
 120:Swerve-Standard/inc/robot_tasks.h ****     }
 121:Swerve-Standard/inc/robot_tasks.h **** }
 122:Swerve-Standard/inc/robot_tasks.h **** 
 123:Swerve-Standard/inc/robot_tasks.h **** void Robot_Tasks_Daemon(void const *argument)
 124:Swerve-Standard/inc/robot_tasks.h **** {
 240              		.loc 2 124 1 view -0
 241              		.cfi_startproc
 242              		@ args = 0, pretend = 0, frame = 8
 243              		@ frame_needed = 0, uses_anonymous_args = 0
 244              		.loc 2 124 1 is_stmt 0 view .LVU48
 245 0000 00B5     		push	{lr}
 246              	.LCFI9:
 247              		.cfi_def_cfa_offset 4
 248              		.cfi_offset 14, -4
 249 0002 83B0     		sub	sp, sp, #12
 250              	.LCFI10:
 251              		.cfi_def_cfa_offset 16
 125:Swerve-Standard/inc/robot_tasks.h ****     portTickType xLastWakeTime;
 252              		.loc 2 125 5 is_stmt 1 view .LVU49
 126:Swerve-Standard/inc/robot_tasks.h ****     xLastWakeTime = xTaskGetTickCount();
 253              		.loc 2 126 5 view .LVU50
 254              		.loc 2 126 21 is_stmt 0 view .LVU51
 255 0004 FFF7FEFF 		bl	xTaskGetTickCount
 256              	.LVL22:
 257              		.loc 2 126 19 discriminator 1 view .LVU52
 258 0008 0190     		str	r0, [sp, #4]
 127:Swerve-Standard/inc/robot_tasks.h ****     const TickType_t TimeIncrement = pdMS_TO_TICKS(DAEMON_PERIOD);
 259              		.loc 2 127 5 is_stmt 1 view .LVU53
 260              	.LVL23:
 261              	.L16:
 128:Swerve-Standard/inc/robot_tasks.h ****     while (1)
 262              		.loc 2 128 5 view .LVU54
 129:Swerve-Standard/inc/robot_tasks.h ****     {
 130:Swerve-Standard/inc/robot_tasks.h ****         Daemon_Task_Loop();
ARM GAS  /var/folders/sg/pxk9dyzj7jz_x3889hx3b3dw0000gn/T//ccgLpubu.s 			page 8


 263              		.loc 2 130 9 view .LVU55
 264 000a FFF7FEFF 		bl	Daemon_Task_Loop
 265              	.LVL24:
 131:Swerve-Standard/inc/robot_tasks.h ****         vTaskDelayUntil(&xLastWakeTime, TimeIncrement);
 266              		.loc 2 131 9 discriminator 1 view .LVU56
 267 000e 0A21     		movs	r1, #10
 268 0010 01A8     		add	r0, sp, #4
 269 0012 FFF7FEFF 		bl	vTaskDelayUntil
 270              	.LVL25:
 128:Swerve-Standard/inc/robot_tasks.h ****     while (1)
 271              		.loc 2 128 11 view .LVU57
 272 0016 F8E7     		b	.L16
 273              		.cfi_endproc
 274              	.LFE149:
 276              		.section	.text.Robot_Tasks_Start,"ax",%progbits
 277              		.align	1
 278              		.global	Robot_Tasks_Start
 279              		.syntax unified
 280              		.thumb
 281              		.thumb_func
 283              	Robot_Tasks_Start:
 284              	.LFB142:
  35:Swerve-Standard/inc/robot_tasks.h ****     osThreadDef(imu_task, Robot_Tasks_IMU, osPriorityAboveNormal, 0, 1024);
 285              		.loc 2 35 1 view -0
 286              		.cfi_startproc
 287              		@ args = 0, pretend = 0, frame = 200
 288              		@ frame_needed = 0, uses_anonymous_args = 0
 289 0000 10B5     		push	{r4, lr}
 290              	.LCFI11:
 291              		.cfi_def_cfa_offset 8
 292              		.cfi_offset 4, -8
 293              		.cfi_offset 14, -4
 294 0002 B2B0     		sub	sp, sp, #200
 295              	.LCFI12:
 296              		.cfi_def_cfa_offset 208
  36:Swerve-Standard/inc/robot_tasks.h ****     imu_task_handle = osThreadCreate(osThread(imu_task), NULL);
 297              		.loc 2 36 5 view .LVU59
 298 0004 3F4C     		ldr	r4, .L20
 299 0006 0DF1AC0C 		add	ip, sp, #172
 300 000a A646     		mov	lr, r4
 301 000c BEE80F00 		ldmia	lr!, {r0, r1, r2, r3}
 302 0010 ACE80F00 		stmia	ip!, {r0, r1, r2, r3}
 303 0014 9EE80700 		ldm	lr, {r0, r1, r2}
 304 0018 8CE80700 		stm	ip, {r0, r1, r2}
  37:Swerve-Standard/inc/robot_tasks.h **** 
 305              		.loc 2 37 5 view .LVU60
  37:Swerve-Standard/inc/robot_tasks.h **** 
 306              		.loc 2 37 23 is_stmt 0 view .LVU61
 307 001c 0021     		movs	r1, #0
 308 001e 2BA8     		add	r0, sp, #172
 309 0020 FFF7FEFF 		bl	osThreadCreate
 310              	.LVL26:
  37:Swerve-Standard/inc/robot_tasks.h **** 
 311              		.loc 2 37 21 discriminator 1 view .LVU62
 312 0024 384B     		ldr	r3, .L20+4
 313 0026 1860     		str	r0, [r3]
  39:Swerve-Standard/inc/robot_tasks.h ****     motor_task_handle = osThreadCreate(osThread(motor_task), NULL);
ARM GAS  /var/folders/sg/pxk9dyzj7jz_x3889hx3b3dw0000gn/T//ccgLpubu.s 			page 9


 314              		.loc 2 39 5 is_stmt 1 view .LVU63
 315 0028 0DF1900C 		add	ip, sp, #144
 316 002c 04F11C0E 		add	lr, r4, #28
 317 0030 BEE80F00 		ldmia	lr!, {r0, r1, r2, r3}
 318 0034 ACE80F00 		stmia	ip!, {r0, r1, r2, r3}
 319 0038 9EE80700 		ldm	lr, {r0, r1, r2}
 320 003c 8CE80700 		stm	ip, {r0, r1, r2}
  40:Swerve-Standard/inc/robot_tasks.h **** 
 321              		.loc 2 40 5 view .LVU64
  40:Swerve-Standard/inc/robot_tasks.h **** 
 322              		.loc 2 40 25 is_stmt 0 view .LVU65
 323 0040 0021     		movs	r1, #0
 324 0042 24A8     		add	r0, sp, #144
 325 0044 FFF7FEFF 		bl	osThreadCreate
 326              	.LVL27:
  40:Swerve-Standard/inc/robot_tasks.h **** 
 327              		.loc 2 40 23 discriminator 1 view .LVU66
 328 0048 304B     		ldr	r3, .L20+8
 329 004a 1860     		str	r0, [r3]
  42:Swerve-Standard/inc/robot_tasks.h ****     robot_command_task_handle = osThreadCreate(osThread(robot_command_task), NULL);
 330              		.loc 2 42 5 is_stmt 1 view .LVU67
 331 004c 0DF1740C 		add	ip, sp, #116
 332 0050 04F1380E 		add	lr, r4, #56
 333 0054 BEE80F00 		ldmia	lr!, {r0, r1, r2, r3}
 334 0058 ACE80F00 		stmia	ip!, {r0, r1, r2, r3}
 335 005c 9EE80700 		ldm	lr, {r0, r1, r2}
 336 0060 8CE80700 		stm	ip, {r0, r1, r2}
  43:Swerve-Standard/inc/robot_tasks.h **** 
 337              		.loc 2 43 5 view .LVU68
  43:Swerve-Standard/inc/robot_tasks.h **** 
 338              		.loc 2 43 33 is_stmt 0 view .LVU69
 339 0064 0021     		movs	r1, #0
 340 0066 1DA8     		add	r0, sp, #116
 341 0068 FFF7FEFF 		bl	osThreadCreate
 342              	.LVL28:
  43:Swerve-Standard/inc/robot_tasks.h **** 
 343              		.loc 2 43 31 discriminator 1 view .LVU70
 344 006c 284B     		ldr	r3, .L20+12
 345 006e 1860     		str	r0, [r3]
  45:Swerve-Standard/inc/robot_tasks.h ****     ui_task_handle = osThreadCreate(osThread(ui_task), NULL);
 346              		.loc 2 45 5 is_stmt 1 view .LVU71
 347 0070 0DF1580C 		add	ip, sp, #88
 348 0074 04F1540E 		add	lr, r4, #84
 349 0078 BEE80F00 		ldmia	lr!, {r0, r1, r2, r3}
 350 007c ACE80F00 		stmia	ip!, {r0, r1, r2, r3}
 351 0080 9EE80700 		ldm	lr, {r0, r1, r2}
 352 0084 8CE80700 		stm	ip, {r0, r1, r2}
  46:Swerve-Standard/inc/robot_tasks.h **** 
 353              		.loc 2 46 5 view .LVU72
  46:Swerve-Standard/inc/robot_tasks.h **** 
 354              		.loc 2 46 22 is_stmt 0 view .LVU73
 355 0088 0021     		movs	r1, #0
 356 008a 16A8     		add	r0, sp, #88
 357 008c FFF7FEFF 		bl	osThreadCreate
 358              	.LVL29:
  46:Swerve-Standard/inc/robot_tasks.h **** 
 359              		.loc 2 46 20 discriminator 1 view .LVU74
ARM GAS  /var/folders/sg/pxk9dyzj7jz_x3889hx3b3dw0000gn/T//ccgLpubu.s 			page 10


 360 0090 204B     		ldr	r3, .L20+16
 361 0092 1860     		str	r0, [r3]
  48:Swerve-Standard/inc/robot_tasks.h ****     debug_task_handle = osThreadCreate(osThread(debug_task), NULL);
 362              		.loc 2 48 5 is_stmt 1 view .LVU75
 363 0094 0DF13C0C 		add	ip, sp, #60
 364 0098 04F1700E 		add	lr, r4, #112
 365 009c BEE80F00 		ldmia	lr!, {r0, r1, r2, r3}
 366 00a0 ACE80F00 		stmia	ip!, {r0, r1, r2, r3}
 367 00a4 9EE80700 		ldm	lr, {r0, r1, r2}
 368 00a8 8CE80700 		stm	ip, {r0, r1, r2}
  49:Swerve-Standard/inc/robot_tasks.h **** 
 369              		.loc 2 49 5 view .LVU76
  49:Swerve-Standard/inc/robot_tasks.h **** 
 370              		.loc 2 49 25 is_stmt 0 view .LVU77
 371 00ac 0021     		movs	r1, #0
 372 00ae 0FA8     		add	r0, sp, #60
 373 00b0 FFF7FEFF 		bl	osThreadCreate
 374              	.LVL30:
  49:Swerve-Standard/inc/robot_tasks.h **** 
 375              		.loc 2 49 23 discriminator 1 view .LVU78
 376 00b4 184B     		ldr	r3, .L20+20
 377 00b6 1860     		str	r0, [r3]
  51:Swerve-Standard/inc/robot_tasks.h ****     jetson_orin_task_handle = osThreadCreate(osThread(jetson_orin_task), NULL);
 378              		.loc 2 51 5 is_stmt 1 view .LVU79
 379 00b8 0DF1200C 		add	ip, sp, #32
 380 00bc 04F18C0E 		add	lr, r4, #140
 381 00c0 BEE80F00 		ldmia	lr!, {r0, r1, r2, r3}
 382 00c4 ACE80F00 		stmia	ip!, {r0, r1, r2, r3}
 383 00c8 9EE80700 		ldm	lr, {r0, r1, r2}
 384 00cc 8CE80700 		stm	ip, {r0, r1, r2}
  52:Swerve-Standard/inc/robot_tasks.h **** 
 385              		.loc 2 52 5 view .LVU80
  52:Swerve-Standard/inc/robot_tasks.h **** 
 386              		.loc 2 52 31 is_stmt 0 view .LVU81
 387 00d0 0021     		movs	r1, #0
 388 00d2 08A8     		add	r0, sp, #32
 389 00d4 FFF7FEFF 		bl	osThreadCreate
 390              	.LVL31:
  52:Swerve-Standard/inc/robot_tasks.h **** 
 391              		.loc 2 52 29 discriminator 1 view .LVU82
 392 00d8 104B     		ldr	r3, .L20+24
 393 00da 1860     		str	r0, [r3]
  54:Swerve-Standard/inc/robot_tasks.h ****     daemon_task_handle = osThreadCreate(osThread(daemon_task), NULL);
 394              		.loc 2 54 5 is_stmt 1 view .LVU83
 395 00dc 0DF1040E 		add	lr, sp, #4
 396 00e0 04F1A80C 		add	ip, r4, #168
 397 00e4 BCE80F00 		ldmia	ip!, {r0, r1, r2, r3}
 398 00e8 AEE80F00 		stmia	lr!, {r0, r1, r2, r3}
 399 00ec 9CE80700 		ldm	ip, {r0, r1, r2}
 400 00f0 8EE80700 		stm	lr, {r0, r1, r2}
  55:Swerve-Standard/inc/robot_tasks.h **** }
 401              		.loc 2 55 5 view .LVU84
  55:Swerve-Standard/inc/robot_tasks.h **** }
 402              		.loc 2 55 26 is_stmt 0 view .LVU85
 403 00f4 0021     		movs	r1, #0
 404 00f6 01A8     		add	r0, sp, #4
 405 00f8 FFF7FEFF 		bl	osThreadCreate
ARM GAS  /var/folders/sg/pxk9dyzj7jz_x3889hx3b3dw0000gn/T//ccgLpubu.s 			page 11


 406              	.LVL32:
  55:Swerve-Standard/inc/robot_tasks.h **** }
 407              		.loc 2 55 24 discriminator 1 view .LVU86
 408 00fc 084B     		ldr	r3, .L20+28
 409 00fe 1860     		str	r0, [r3]
  56:Swerve-Standard/inc/robot_tasks.h **** 
 410              		.loc 2 56 1 view .LVU87
 411 0100 32B0     		add	sp, sp, #200
 412              	.LCFI13:
 413              		.cfi_def_cfa_offset 8
 414              		@ sp needed
 415 0102 10BD     		pop	{r4, pc}
 416              	.L21:
 417              		.align	2
 418              	.L20:
 419 0104 00000000 		.word	.LANCHOR0
 420 0108 00000000 		.word	imu_task_handle
 421 010c 00000000 		.word	motor_task_handle
 422 0110 00000000 		.word	robot_command_task_handle
 423 0114 00000000 		.word	ui_task_handle
 424 0118 00000000 		.word	debug_task_handle
 425 011c 00000000 		.word	jetson_orin_task_handle
 426 0120 00000000 		.word	daemon_task_handle
 427              		.cfi_endproc
 428              	.LFE142:
 430              		.section	.text.Robot_Init,"ax",%progbits
 431              		.align	1
 432              		.global	Robot_Init
 433              		.syntax unified
 434              		.thumb
 435              		.thumb_func
 437              	Robot_Init:
 438              	.LFB150:
   1:Swerve-Standard/src/robot.c **** #include "robot.h"
   2:Swerve-Standard/src/robot.c **** 
   3:Swerve-Standard/src/robot.c **** #include "robot_tasks.h"
   4:Swerve-Standard/src/robot.c **** #include "chassis_task.h"
   5:Swerve-Standard/src/robot.c **** #include "gimbal_task.h"
   6:Swerve-Standard/src/robot.c **** #include "launch_task.h"
   7:Swerve-Standard/src/robot.c **** #include "gimbal_task.h"
   8:Swerve-Standard/src/robot.c **** #include "referee_system.h"
   9:Swerve-Standard/src/robot.c **** #include "remote.h"
  10:Swerve-Standard/src/robot.c **** #include "buzzer.h"
  11:Swerve-Standard/src/robot.c **** #include "supercap.h"
  12:Swerve-Standard/src/robot.c **** #include "user_math.h"
  13:Swerve-Standard/src/robot.c **** #include "math.h"
  14:Swerve-Standard/src/robot.c **** #include "rate_limiter.h"
  15:Swerve-Standard/src/robot.c **** 
  16:Swerve-Standard/src/robot.c **** Robot_State_t g_robot_state = {0};
  17:Swerve-Standard/src/robot.c **** extern Remote_t g_remote;
  18:Swerve-Standard/src/robot.c **** extern Supercap_t g_supercap;
  19:Swerve-Standard/src/robot.c **** 
  20:Swerve-Standard/src/robot.c **** extern DJI_Motor_Handle_t *g_yaw;
  21:Swerve-Standard/src/robot.c **** 
  22:Swerve-Standard/src/robot.c **** Input_State_t g_input_state = {0};
  23:Swerve-Standard/src/robot.c **** 
  24:Swerve-Standard/src/robot.c **** #define KEYBOARD_RAMP_COEF (0.01f)
ARM GAS  /var/folders/sg/pxk9dyzj7jz_x3889hx3b3dw0000gn/T//ccgLpubu.s 			page 12


  25:Swerve-Standard/src/robot.c **** 
  26:Swerve-Standard/src/robot.c **** /**
  27:Swerve-Standard/src/robot.c ****  * @brief This function initializes the robot.
  28:Swerve-Standard/src/robot.c ****  * This means setting the state to STARTING_UP,
  29:Swerve-Standard/src/robot.c ****  * initializing the buzzer, and calling the
  30:Swerve-Standard/src/robot.c ****  * Robot_Task_Start() for the task scheduling
  31:Swerve-Standard/src/robot.c ****  */
  32:Swerve-Standard/src/robot.c **** void Robot_Init()
  33:Swerve-Standard/src/robot.c **** {
 439              		.loc 1 33 1 is_stmt 1 view -0
 440              		.cfi_startproc
 441              		@ args = 0, pretend = 0, frame = 408
 442              		@ frame_needed = 0, uses_anonymous_args = 0
 443 0000 30B5     		push	{r4, r5, lr}
 444              	.LCFI14:
 445              		.cfi_def_cfa_offset 12
 446              		.cfi_offset 4, -12
 447              		.cfi_offset 5, -8
 448              		.cfi_offset 14, -4
 449 0002 ADF5497D 		sub	sp, sp, #804
 450              	.LCFI15:
 451              		.cfi_def_cfa_offset 816
  34:Swerve-Standard/src/robot.c ****     g_robot_state.state = STARTING_UP;
 452              		.loc 1 34 5 view .LVU89
 453              		.loc 1 34 25 is_stmt 0 view .LVU90
 454 0006 0025     		movs	r5, #0
 455 0008 1B4B     		ldr	r3, .L24
 456 000a 1D70     		strb	r5, [r3]
  35:Swerve-Standard/src/robot.c **** 
  36:Swerve-Standard/src/robot.c ****     Buzzer_Init();
 457              		.loc 1 36 5 is_stmt 1 view .LVU91
 458 000c FFF7FEFF 		bl	Buzzer_Init
 459              	.LVL33:
  37:Swerve-Standard/src/robot.c ****     Melody_t system_init_melody = {
 460              		.loc 1 37 5 view .LVU92
 461              		.loc 1 37 14 is_stmt 0 view .LVU93
 462 0010 62AC     		add	r4, sp, #392
 463 0012 4FF4CC72 		mov	r2, #408
 464 0016 2946     		mov	r1, r5
 465 0018 2046     		mov	r0, r4
 466 001a FFF7FEFF 		bl	memset
 467              	.LVL34:
 468 001e 174B     		ldr	r3, .L24+4
 469 0020 2360     		str	r3, [r4]	@ float
 470 0022 174B     		ldr	r3, .L24+8
 471 0024 6360     		str	r3, [r4, #4]	@ float
 472 0026 174A     		ldr	r2, .L24+12
 473 0028 A260     		str	r2, [r4, #8]	@ float
 474 002a E360     		str	r3, [r4, #12]	@ float
 475 002c 164A     		ldr	r2, .L24+16
 476 002e 2261     		str	r2, [r4, #16]	@ float
 477 0030 6361     		str	r3, [r4, #20]	@ float
 478 0032 164A     		ldr	r2, .L24+20
 479 0034 A261     		str	r2, [r4, #24]	@ float
 480 0036 E361     		str	r3, [r4, #28]	@ float
 481 0038 154A     		ldr	r2, .L24+24
 482 003a 2262     		str	r2, [r4, #32]	@ float
ARM GAS  /var/folders/sg/pxk9dyzj7jz_x3889hx3b3dw0000gn/T//ccgLpubu.s 			page 13


 483 003c 6362     		str	r3, [r4, #36]	@ float
 484 003e 154A     		ldr	r2, .L24+28
 485 0040 A262     		str	r2, [r4, #40]	@ float
 486 0042 E362     		str	r3, [r4, #44]	@ float
 487 0044 144B     		ldr	r3, .L24+32
 488 0046 2363     		str	r3, [r4, #48]	@ float
 489 0048 144B     		ldr	r3, .L24+36
 490 004a 6363     		str	r3, [r4, #52]	@ float
 491 004c 4FF07C53 		mov	r3, #1056964608
 492 0050 C4F89031 		str	r3, [r4, #400]	@ float
 493 0054 0723     		movs	r3, #7
 494 0056 A4F89431 		strh	r3, [r4, #404]	@ movhi
  38:Swerve-Standard/src/robot.c ****         .notes = SYSTEM_INITIALIZING,
  39:Swerve-Standard/src/robot.c ****         .loudness = 0.5f,
  40:Swerve-Standard/src/robot.c ****         .note_num = SYSTEM_INITIALIZING_NOTE_NUM,
  41:Swerve-Standard/src/robot.c ****     };
  42:Swerve-Standard/src/robot.c ****     Buzzer_Play_Melody(system_init_melody); // TODO: Change to non-blocking
 495              		.loc 1 42 5 is_stmt 1 view .LVU94
 496 005a 4FF4C472 		mov	r2, #392
 497 005e 66A9     		add	r1, sp, #408
 498 0060 6846     		mov	r0, sp
 499 0062 FFF7FEFF 		bl	memcpy
 500              	.LVL35:
 501 0066 94E80F00 		ldm	r4, {r0, r1, r2, r3}
 502 006a FFF7FEFF 		bl	Buzzer_Play_Melody
 503              	.LVL36:
  43:Swerve-Standard/src/robot.c **** 
  44:Swerve-Standard/src/robot.c ****     // Initialize all tasks
  45:Swerve-Standard/src/robot.c ****     Robot_Tasks_Start();
 504              		.loc 1 45 5 view .LVU95
 505 006e FFF7FEFF 		bl	Robot_Tasks_Start
 506              	.LVL37:
  46:Swerve-Standard/src/robot.c **** }
 507              		.loc 1 46 1 is_stmt 0 view .LVU96
 508 0072 0DF5497D 		add	sp, sp, #804
 509              	.LCFI16:
 510              		.cfi_def_cfa_offset 12
 511              		@ sp needed
 512 0076 30BD     		pop	{r4, r5, pc}
 513              	.L25:
 514              		.align	2
 515              	.L24:
 516 0078 00000000 		.word	g_robot_state
 517 007c 00008343 		.word	1132658688
 518 0080 0000FA42 		.word	1123680256
 519 0084 0000A543 		.word	1134886912
 520 0088 0000C443 		.word	1136918528
 521 008c 00C00244 		.word	1141030912
 522 0090 00C02444 		.word	1143259136
 523 0094 00004444 		.word	1145307136
 524 0098 00E08244 		.word	1149427712
 525 009c 0000FA43 		.word	1140457472
 526              		.cfi_endproc
 527              	.LFE150:
 529              		.section	.text.Handle_Starting_Up_State,"ax",%progbits
 530              		.align	1
 531              		.global	Handle_Starting_Up_State
ARM GAS  /var/folders/sg/pxk9dyzj7jz_x3889hx3b3dw0000gn/T//ccgLpubu.s 			page 14


 532              		.syntax unified
 533              		.thumb
 534              		.thumb_func
 536              	Handle_Starting_Up_State:
 537              	.LFB151:
  47:Swerve-Standard/src/robot.c **** 
  48:Swerve-Standard/src/robot.c **** /**
  49:Swerve-Standard/src/robot.c ****  * @brief This function handles the starting up state of the robot, initializing all hardware.
  50:Swerve-Standard/src/robot.c ****  */
  51:Swerve-Standard/src/robot.c **** void Handle_Starting_Up_State()
  52:Swerve-Standard/src/robot.c **** {
 538              		.loc 1 52 1 is_stmt 1 view -0
 539              		.cfi_startproc
 540              		@ args = 0, pretend = 0, frame = 0
 541              		@ frame_needed = 0, uses_anonymous_args = 0
 542 0000 08B5     		push	{r3, lr}
 543              	.LCFI17:
 544              		.cfi_def_cfa_offset 8
 545              		.cfi_offset 3, -8
 546              		.cfi_offset 14, -4
  53:Swerve-Standard/src/robot.c ****     // Initialize all hardware
  54:Swerve-Standard/src/robot.c ****     CAN_Service_Init();
 547              		.loc 1 54 5 view .LVU98
 548 0002 FFF7FEFF 		bl	CAN_Service_Init
 549              	.LVL38:
  55:Swerve-Standard/src/robot.c ****     Referee_System_Init(&huart1);
 550              		.loc 1 55 5 view .LVU99
 551 0006 0B48     		ldr	r0, .L28
 552 0008 FFF7FEFF 		bl	Referee_System_Init
 553              	.LVL39:
  56:Swerve-Standard/src/robot.c ****     Supercap_Init(&g_supercap);
 554              		.loc 1 56 5 view .LVU100
 555 000c 0A48     		ldr	r0, .L28+4
 556 000e FFF7FEFF 		bl	Supercap_Init
 557              	.LVL40:
  57:Swerve-Standard/src/robot.c ****     Chassis_Task_Init();
 558              		.loc 1 57 5 view .LVU101
 559 0012 FFF7FEFF 		bl	Chassis_Task_Init
 560              	.LVL41:
  58:Swerve-Standard/src/robot.c ****     Gimbal_Task_Init();
 561              		.loc 1 58 5 view .LVU102
 562 0016 FFF7FEFF 		bl	Gimbal_Task_Init
 563              	.LVL42:
  59:Swerve-Standard/src/robot.c ****     Launch_Task_Init();
 564              		.loc 1 59 5 view .LVU103
 565 001a FFF7FEFF 		bl	Launch_Task_Init
 566              	.LVL43:
  60:Swerve-Standard/src/robot.c ****     Jetson_Orin_Init(&huart6);
 567              		.loc 1 60 5 view .LVU104
 568 001e 0748     		ldr	r0, .L28+8
 569 0020 FFF7FEFF 		bl	Jetson_Orin_Init
 570              	.LVL44:
  61:Swerve-Standard/src/robot.c **** 
  62:Swerve-Standard/src/robot.c ****     Remote_Init(&huart3);
 571              		.loc 1 62 5 view .LVU105
 572 0024 0648     		ldr	r0, .L28+12
 573 0026 FFF7FEFF 		bl	Remote_Init
ARM GAS  /var/folders/sg/pxk9dyzj7jz_x3889hx3b3dw0000gn/T//ccgLpubu.s 			page 15


 574              	.LVL45:
  63:Swerve-Standard/src/robot.c **** 
  64:Swerve-Standard/src/robot.c ****     g_robot_state.state = DISABLED;
 575              		.loc 1 64 5 view .LVU106
 576              		.loc 1 64 25 is_stmt 0 view .LVU107
 577 002a 064B     		ldr	r3, .L28+16
 578 002c 0122     		movs	r2, #1
 579 002e 1A70     		strb	r2, [r3]
  65:Swerve-Standard/src/robot.c **** }
 580              		.loc 1 65 1 view .LVU108
 581 0030 08BD     		pop	{r3, pc}
 582              	.L29:
 583 0032 00BF     		.align	2
 584              	.L28:
 585 0034 00000000 		.word	huart1
 586 0038 00000000 		.word	g_supercap
 587 003c 00000000 		.word	huart6
 588 0040 00000000 		.word	huart3
 589 0044 00000000 		.word	g_robot_state
 590              		.cfi_endproc
 591              	.LFE151:
 593              		.section	.text.Handle_Disabled_State,"ax",%progbits
 594              		.align	1
 595              		.global	Handle_Disabled_State
 596              		.syntax unified
 597              		.thumb
 598              		.thumb_func
 600              	Handle_Disabled_State:
 601              	.LFB153:
  66:Swerve-Standard/src/robot.c **** 
  67:Swerve-Standard/src/robot.c **** /**
  68:Swerve-Standard/src/robot.c ****  * @brief This function handles the enabled state of the robot.
  69:Swerve-Standard/src/robot.c ****  * This means processing remote input, and subsystem control.
  70:Swerve-Standard/src/robot.c ****  */
  71:Swerve-Standard/src/robot.c **** void Handle_Enabled_State()
  72:Swerve-Standard/src/robot.c **** {
  73:Swerve-Standard/src/robot.c ****     if ((g_remote.online_flag == REMOTE_OFFLINE) || (g_remote.controller.right_switch == DOWN))
  74:Swerve-Standard/src/robot.c ****     {
  75:Swerve-Standard/src/robot.c ****         g_robot_state.state = DISABLED;
  76:Swerve-Standard/src/robot.c ****     }
  77:Swerve-Standard/src/robot.c ****     else
  78:Swerve-Standard/src/robot.c ****     {
  79:Swerve-Standard/src/robot.c ****         // Process movement and components in enabled state
  80:Swerve-Standard/src/robot.c ****         Referee_Set_Robot_State();
  81:Swerve-Standard/src/robot.c ****         Process_Remote_Input();
  82:Swerve-Standard/src/robot.c ****         Process_Chassis_Control();
  83:Swerve-Standard/src/robot.c ****         Process_Gimbal_Control();
  84:Swerve-Standard/src/robot.c ****         Process_Launch_Control();
  85:Swerve-Standard/src/robot.c ****     }
  86:Swerve-Standard/src/robot.c **** }
  87:Swerve-Standard/src/robot.c **** 
  88:Swerve-Standard/src/robot.c **** /**
  89:Swerve-Standard/src/robot.c ****  * @brief This function handles the disabled state of the robot.
  90:Swerve-Standard/src/robot.c ****  * This means disabling all motors and components
  91:Swerve-Standard/src/robot.c ****  */
  92:Swerve-Standard/src/robot.c **** void Handle_Disabled_State()
  93:Swerve-Standard/src/robot.c **** {
ARM GAS  /var/folders/sg/pxk9dyzj7jz_x3889hx3b3dw0000gn/T//ccgLpubu.s 			page 16


 602              		.loc 1 93 1 is_stmt 1 view -0
 603              		.cfi_startproc
 604              		@ args = 0, pretend = 0, frame = 0
 605              		@ frame_needed = 0, uses_anonymous_args = 0
 606 0000 08B5     		push	{r3, lr}
 607              	.LCFI18:
 608              		.cfi_def_cfa_offset 8
 609              		.cfi_offset 3, -8
 610              		.cfi_offset 14, -4
  94:Swerve-Standard/src/robot.c ****     DJI_Motor_Disable_All();
 611              		.loc 1 94 5 view .LVU110
 612 0002 FFF7FEFF 		bl	DJI_Motor_Disable_All
 613              	.LVL46:
  95:Swerve-Standard/src/robot.c **** 
  96:Swerve-Standard/src/robot.c ****     //  Disable all major components
  97:Swerve-Standard/src/robot.c ****     g_robot_state.launch.IS_FLYWHEEL_ENABLED = 0;
 614              		.loc 1 97 5 view .LVU111
 615              		.loc 1 97 46 is_stmt 0 view .LVU112
 616 0006 0B4B     		ldr	r3, .L34
 617 0008 0022     		movs	r2, #0
 618 000a 83F82E20 		strb	r2, [r3, #46]
  98:Swerve-Standard/src/robot.c ****     g_robot_state.chassis.x_speed = 0;
 619              		.loc 1 98 5 is_stmt 1 view .LVU113
 620              		.loc 1 98 35 is_stmt 0 view .LVU114
 621 000e 0022     		movs	r2, #0
 622 0010 5A60     		str	r2, [r3, #4]	@ float
  99:Swerve-Standard/src/robot.c ****     g_robot_state.chassis.y_speed = 0;
 623              		.loc 1 99 5 is_stmt 1 view .LVU115
 624              		.loc 1 99 35 is_stmt 0 view .LVU116
 625 0012 9A60     		str	r2, [r3, #8]	@ float
 100:Swerve-Standard/src/robot.c **** 
 101:Swerve-Standard/src/robot.c ****     if ((g_remote.online_flag == REMOTE_ONLINE) && (g_remote.controller.right_switch != DOWN))
 626              		.loc 1 101 5 is_stmt 1 view .LVU117
 627              		.loc 1 101 18 is_stmt 0 view .LVU118
 628 0014 084B     		ldr	r3, .L34+4
 629 0016 93F82830 		ldrb	r3, [r3, #40]	@ zero_extendqisi2
 630              		.loc 1 101 8 view .LVU119
 631 001a 012B     		cmp	r3, #1
 632 001c 00D0     		beq	.L33
 633              	.L30:
 102:Swerve-Standard/src/robot.c ****     {
 103:Swerve-Standard/src/robot.c ****         g_robot_state.state = ENABLED;
 104:Swerve-Standard/src/robot.c ****         DJI_Motor_Enable_All();
 105:Swerve-Standard/src/robot.c ****     }
 106:Swerve-Standard/src/robot.c **** }
 634              		.loc 1 106 1 view .LVU120
 635 001e 08BD     		pop	{r3, pc}
 636              	.L33:
 101:Swerve-Standard/src/robot.c ****     {
 637              		.loc 1 101 72 discriminator 1 view .LVU121
 638 0020 054B     		ldr	r3, .L34+4
 639 0022 5B7B     		ldrb	r3, [r3, #13]	@ zero_extendqisi2
 101:Swerve-Standard/src/robot.c ****     {
 640              		.loc 1 101 49 discriminator 1 view .LVU122
 641 0024 022B     		cmp	r3, #2
 642 0026 FAD0     		beq	.L30
 103:Swerve-Standard/src/robot.c ****         DJI_Motor_Enable_All();
ARM GAS  /var/folders/sg/pxk9dyzj7jz_x3889hx3b3dw0000gn/T//ccgLpubu.s 			page 17


 643              		.loc 1 103 9 is_stmt 1 view .LVU123
 103:Swerve-Standard/src/robot.c ****         DJI_Motor_Enable_All();
 644              		.loc 1 103 29 is_stmt 0 view .LVU124
 645 0028 024B     		ldr	r3, .L34
 646 002a 0222     		movs	r2, #2
 647 002c 1A70     		strb	r2, [r3]
 104:Swerve-Standard/src/robot.c ****     }
 648              		.loc 1 104 9 is_stmt 1 view .LVU125
 649 002e FFF7FEFF 		bl	DJI_Motor_Enable_All
 650              	.LVL47:
 651              		.loc 1 106 1 is_stmt 0 view .LVU126
 652 0032 F4E7     		b	.L30
 653              	.L35:
 654              		.align	2
 655              	.L34:
 656 0034 00000000 		.word	g_robot_state
 657 0038 00000000 		.word	g_remote
 658              		.cfi_endproc
 659              	.LFE153:
 661              		.section	.text.Process_Remote_Input,"ax",%progbits
 662              		.align	1
 663              		.global	Process_Remote_Input
 664              		.syntax unified
 665              		.thumb
 666              		.thumb_func
 668              	Process_Remote_Input:
 669              	.LFB154:
 107:Swerve-Standard/src/robot.c **** 
 108:Swerve-Standard/src/robot.c **** void Process_Remote_Input()
 109:Swerve-Standard/src/robot.c **** {
 670              		.loc 1 109 1 is_stmt 1 view -0
 671              		.cfi_startproc
 672              		@ args = 0, pretend = 0, frame = 16
 673              		@ frame_needed = 0, uses_anonymous_args = 0
 674 0000 2DE9F04F 		push	{r4, r5, r6, r7, r8, r9, r10, fp, lr}
 675              	.LCFI19:
 676              		.cfi_def_cfa_offset 36
 677              		.cfi_offset 4, -36
 678              		.cfi_offset 5, -32
 679              		.cfi_offset 6, -28
 680              		.cfi_offset 7, -24
 681              		.cfi_offset 8, -20
 682              		.cfi_offset 9, -16
 683              		.cfi_offset 10, -12
 684              		.cfi_offset 11, -8
 685              		.cfi_offset 14, -4
 686 0004 2DED028B 		vpush.64	{d8}
 687              	.LCFI20:
 688              		.cfi_def_cfa_offset 44
 689              		.cfi_offset 80, -44
 690              		.cfi_offset 81, -40
 691 0008 85B0     		sub	sp, sp, #20
 692              	.LCFI21:
 693              		.cfi_def_cfa_offset 64
 110:Swerve-Standard/src/robot.c ****     // Process remote input
 111:Swerve-Standard/src/robot.c ****     g_robot_state.input.vy_keyboard = ((1.0f - KEYBOARD_RAMP_COEF) * g_robot_state.input.vy_keyboar
 694              		.loc 1 111 5 view .LVU128
ARM GAS  /var/folders/sg/pxk9dyzj7jz_x3889hx3b3dw0000gn/T//ccgLpubu.s 			page 18


 695              		.loc 1 111 89 is_stmt 0 view .LVU129
 696 000a A84C     		ldr	r4, .L55
 697 000c D4ED137A 		vldr.32	s15, [r4, #76]
 698              		.loc 1 111 68 view .LVU130
 699 0010 DFEDA76A 		vldr.32	s13, .L55+4
 700 0014 67EEA67A 		vmul.f32	s15, s15, s13
 701              		.loc 1 111 121 view .LVU131
 702 0018 A64D     		ldr	r5, .L55+8
 703 001a 2B7C     		ldrb	r3, [r5, #16]	@ zero_extendqisi2
 704 001c 07EE103A 		vmov	s14, r3	@ int
 705              		.loc 1 111 124 view .LVU132
 706 0020 B8EEC77A 		vcvt.f32.s32	s14, s14
 707 0024 9FEDA46A 		vldr.32	s12, .L55+12
 708 0028 27EE067A 		vmul.f32	s14, s14, s12
 709              		.loc 1 111 102 view .LVU133
 710 002c 77EE877A 		vadd.f32	s15, s15, s14
 711              		.loc 1 111 164 view .LVU134
 712 0030 6B7C     		ldrb	r3, [r5, #17]	@ zero_extendqisi2
 713 0032 07EE103A 		vmov	s14, r3	@ int
 714              		.loc 1 111 167 view .LVU135
 715 0036 B8EEC77A 		vcvt.f32.s32	s14, s14
 716 003a 27EE067A 		vmul.f32	s14, s14, s12
 717              		.loc 1 111 145 view .LVU136
 718 003e 77EEC77A 		vsub.f32	s15, s15, s14
 719              		.loc 1 111 37 view .LVU137
 720 0042 C4ED137A 		vstr.32	s15, [r4, #76]
 112:Swerve-Standard/src/robot.c ****     g_robot_state.input.vx_keyboard = ((1.0f - KEYBOARD_RAMP_COEF) * g_robot_state.input.vx_keyboar
 721              		.loc 1 112 5 is_stmt 1 view .LVU138
 722              		.loc 1 112 89 is_stmt 0 view .LVU139
 723 0046 94ED127A 		vldr.32	s14, [r4, #72]
 724              		.loc 1 112 68 view .LVU140
 725 004a 27EE267A 		vmul.f32	s14, s14, s13
 726              		.loc 1 112 121 view .LVU141
 727 004e AB7C     		ldrb	r3, [r5, #18]	@ zero_extendqisi2
 728 0050 06EE903A 		vmov	s13, r3	@ int
 729              		.loc 1 112 124 view .LVU142
 730 0054 F8EEE66A 		vcvt.f32.s32	s13, s13
 731 0058 66EE866A 		vmul.f32	s13, s13, s12
 732              		.loc 1 112 102 view .LVU143
 733 005c 37EE667A 		vsub.f32	s14, s14, s13
 734              		.loc 1 112 164 view .LVU144
 735 0060 EB7C     		ldrb	r3, [r5, #19]	@ zero_extendqisi2
 736 0062 06EE903A 		vmov	s13, r3	@ int
 737              		.loc 1 112 167 view .LVU145
 738 0066 F8EEE66A 		vcvt.f32.s32	s13, s13
 739 006a 66EE866A 		vmul.f32	s13, s13, s12
 740              		.loc 1 112 145 view .LVU146
 741 006e 37EE267A 		vadd.f32	s14, s14, s13
 742              		.loc 1 112 37 view .LVU147
 743 0072 84ED127A 		vstr.32	s14, [r4, #72]
 113:Swerve-Standard/src/robot.c ****     float temp_x = g_robot_state.input.vx_keyboard + g_remote.controller.left_stick.x / REMOTE_STIC
 744              		.loc 1 113 5 is_stmt 1 view .LVU148
 745              		.loc 1 113 84 is_stmt 0 view .LVU149
 746 0076 B5F90030 		ldrsh	r3, [r5]
 747 007a 06EE903A 		vmov	s13, r3	@ int
 748              		.loc 1 113 87 view .LVU150
 749 007e F8EEE66A 		vcvt.f32.s32	s13, s13
ARM GAS  /var/folders/sg/pxk9dyzj7jz_x3889hx3b3dw0000gn/T//ccgLpubu.s 			page 19


 750 0082 9FED8E6A 		vldr.32	s12, .L55+16
 751 0086 C6EE865A 		vdiv.f32	s11, s13, s12
 752              		.loc 1 113 11 view .LVU151
 753 008a 37EE257A 		vadd.f32	s14, s14, s11
 754              	.LVL48:
 114:Swerve-Standard/src/robot.c ****     float temp_y = g_robot_state.input.vy_keyboard + g_remote.controller.left_stick.y / REMOTE_STIC
 755              		.loc 1 114 5 is_stmt 1 view .LVU152
 756              		.loc 1 114 84 is_stmt 0 view .LVU153
 757 008e B5F90230 		ldrsh	r3, [r5, #2]
 758 0092 06EE903A 		vmov	s13, r3	@ int
 759              		.loc 1 114 87 view .LVU154
 760 0096 F8EEE66A 		vcvt.f32.s32	s13, s13
 761 009a C6EE865A 		vdiv.f32	s11, s13, s12
 762              		.loc 1 114 11 view .LVU155
 763 009e 77EEA57A 		vadd.f32	s15, s15, s11
 764              	.LVL49:
 115:Swerve-Standard/src/robot.c ****     g_robot_state.input.vx = temp_x;
 765              		.loc 1 115 5 is_stmt 1 view .LVU156
 766              		.loc 1 115 28 is_stmt 0 view .LVU157
 767 00a2 84ED107A 		vstr.32	s14, [r4, #64]
 116:Swerve-Standard/src/robot.c ****     g_robot_state.input.vy = temp_y;
 768              		.loc 1 116 5 is_stmt 1 view .LVU158
 769              		.loc 1 116 28 is_stmt 0 view .LVU159
 770 00a6 C4ED117A 		vstr.32	s15, [r4, #68]
 117:Swerve-Standard/src/robot.c **** 
 118:Swerve-Standard/src/robot.c **** 
 119:Swerve-Standard/src/robot.c ****     // Calculate Gimbal Oriented Control
 120:Swerve-Standard/src/robot.c ****     float theta = DJI_Motor_Get_Absolute_Angle(g_yaw);
 771              		.loc 1 120 5 is_stmt 1 view .LVU160
 772              		.loc 1 120 19 is_stmt 0 view .LVU161
 773 00aa 854B     		ldr	r3, .L55+20
 774 00ac 1868     		ldr	r0, [r3]
 775 00ae FFF7FEFF 		bl	DJI_Motor_Get_Absolute_Angle
 776              	.LVL50:
 777              		.loc 1 120 19 view .LVU162
 778 00b2 10EE108A 		vmov	r8, s0
 779              	.LVL51:
 121:Swerve-Standard/src/robot.c ****     g_robot_state.chassis.x_speed = -g_robot_state.input.vy * sin(theta) + g_robot_state.input.vx *
 780              		.loc 1 121 5 is_stmt 1 view .LVU163
 781              		.loc 1 121 57 is_stmt 0 view .LVU164
 782 00b6 D4F84490 		ldr	r9, [r4, #68]	@ float
 783              		.loc 1 121 37 view .LVU165
 784 00ba 89F00040 		eor	r0, r9, #-2147483648
 785 00be FFF7FEFF 		bl	__aeabi_f2d
 786              	.LVL52:
 787 00c2 0646     		mov	r6, r0
 788 00c4 0F46     		mov	r7, r1
 789              		.loc 1 121 63 view .LVU166
 790 00c6 4046     		mov	r0, r8	@ float
 791 00c8 FFF7FEFF 		bl	__aeabi_f2d
 792              	.LVL53:
 793 00cc 41EC180B 		vmov	d8, r0, r1
 794 00d0 B0EE480A 		vmov.f32	s0, s16
 795 00d4 F0EE680A 		vmov.f32	s1, s17
 796 00d8 FFF7FEFF 		bl	sin
 797              	.LVL54:
 798 00dc 5BEC10AB 		vmov	r10, fp, d0
ARM GAS  /var/folders/sg/pxk9dyzj7jz_x3889hx3b3dw0000gn/T//ccgLpubu.s 			page 20


 799              		.loc 1 121 61 discriminator 1 view .LVU167
 800 00e0 5246     		mov	r2, r10
 801 00e2 5B46     		mov	r3, fp
 802 00e4 3046     		mov	r0, r6
 803 00e6 3946     		mov	r1, r7
 804 00e8 FFF7FEFF 		bl	__aeabi_dmul
 805              	.LVL55:
 806 00ec CDE90201 		strd	r0, [sp, #8]
 807              		.loc 1 121 95 discriminator 1 view .LVU168
 808 00f0 206C     		ldr	r0, [r4, #64]	@ float
 809 00f2 FFF7FEFF 		bl	__aeabi_f2d
 810              	.LVL56:
 811 00f6 0646     		mov	r6, r0
 812 00f8 0F46     		mov	r7, r1
 813              		.loc 1 121 101 discriminator 1 view .LVU169
 814 00fa B0EE480A 		vmov.f32	s0, s16
 815 00fe F0EE680A 		vmov.f32	s1, s17
 816 0102 FFF7FEFF 		bl	cos
 817              	.LVL57:
 818 0106 53EC102B 		vmov	r2, r3, d0
 819              		.loc 1 121 99 discriminator 2 view .LVU170
 820 010a 8DED000B 		vstr.64	d0, [sp]
 821 010e 3046     		mov	r0, r6
 822 0110 3946     		mov	r1, r7
 823 0112 FFF7FEFF 		bl	__aeabi_dmul
 824              	.LVL58:
 825 0116 0246     		mov	r2, r0
 826 0118 0B46     		mov	r3, r1
 827              		.loc 1 121 74 discriminator 2 view .LVU171
 828 011a DDE90201 		ldrd	r0, [sp, #8]
 829 011e FFF7FEFF 		bl	__aeabi_dadd
 830              	.LVL59:
 831 0122 FFF7FEFF 		bl	__aeabi_d2f
 832              	.LVL60:
 833              		.loc 1 121 35 discriminator 2 view .LVU172
 834 0126 6060     		str	r0, [r4, #4]	@ float
 122:Swerve-Standard/src/robot.c ****     g_robot_state.chassis.y_speed = g_robot_state.input.vy * cos(theta) + g_robot_state.input.vx * 
 835              		.loc 1 122 5 is_stmt 1 view .LVU173
 836              		.loc 1 122 56 is_stmt 0 view .LVU174
 837 0128 4846     		mov	r0, r9	@ float
 838 012a FFF7FEFF 		bl	__aeabi_f2d
 839              	.LVL61:
 840 012e 0246     		mov	r2, r0
 841 0130 0B46     		mov	r3, r1
 842              		.loc 1 122 60 discriminator 1 view .LVU175
 843 0132 DDE90001 		ldrd	r0, [sp]
 844 0136 FFF7FEFF 		bl	__aeabi_dmul
 845              	.LVL62:
 846 013a 8046     		mov	r8, r0
 847              	.LVL63:
 848              		.loc 1 122 60 discriminator 1 view .LVU176
 849 013c 8946     		mov	r9, r1
 850              		.loc 1 122 98 discriminator 2 view .LVU177
 851 013e 3246     		mov	r2, r6
 852 0140 3B46     		mov	r3, r7
 853 0142 5046     		mov	r0, r10
 854 0144 5946     		mov	r1, fp
ARM GAS  /var/folders/sg/pxk9dyzj7jz_x3889hx3b3dw0000gn/T//ccgLpubu.s 			page 21


 855 0146 FFF7FEFF 		bl	__aeabi_dmul
 856              	.LVL64:
 857 014a 0246     		mov	r2, r0
 858 014c 0B46     		mov	r3, r1
 859              		.loc 1 122 73 discriminator 2 view .LVU178
 860 014e 4046     		mov	r0, r8
 861 0150 4946     		mov	r1, r9
 862 0152 FFF7FEFF 		bl	__aeabi_dadd
 863              	.LVL65:
 864 0156 FFF7FEFF 		bl	__aeabi_d2f
 865              	.LVL66:
 866              		.loc 1 122 35 discriminator 2 view .LVU179
 867 015a A060     		str	r0, [r4, #8]	@ float
 123:Swerve-Standard/src/robot.c **** 
 124:Swerve-Standard/src/robot.c ****     g_robot_state.gimbal.yaw_angle -= (g_remote.controller.right_stick.x / 50000.0f + g_remote.mous
 868              		.loc 1 124 5 is_stmt 1 view .LVU180
 869              		.loc 1 124 25 is_stmt 0 view .LVU181
 870 015c D4ED0A7A 		vldr.32	s15, [r4, #40]
 871              		.loc 1 124 71 view .LVU182
 872 0160 B5F90430 		ldrsh	r3, [r5, #4]
 873 0164 06EE903A 		vmov	s13, r3	@ int
 874              		.loc 1 124 74 view .LVU183
 875 0168 F8EEE66A 		vcvt.f32.s32	s13, s13
 876 016c 9FED556A 		vldr.32	s12, .L55+24
 877 0170 86EE867A 		vdiv.f32	s14, s13, s12
 878              		.loc 1 124 101 view .LVU184
 879 0174 B5F92030 		ldrsh	r3, [r5, #32]
 880 0178 06EE903A 		vmov	s13, r3	@ int
 881              		.loc 1 124 104 view .LVU185
 882 017c F8EEE66A 		vcvt.f32.s32	s13, s13
 883 0180 9FED515A 		vldr.32	s10, .L55+28
 884 0184 C6EE855A 		vdiv.f32	s11, s13, s10
 885              		.loc 1 124 85 view .LVU186
 886 0188 37EE257A 		vadd.f32	s14, s14, s11
 887              		.loc 1 124 36 view .LVU187
 888 018c 77EEC77A 		vsub.f32	s15, s15, s14
 889 0190 C4ED0A7A 		vstr.32	s15, [r4, #40]
 125:Swerve-Standard/src/robot.c ****     g_robot_state.gimbal.pitch_angle -= (g_remote.controller.right_stick.y / 100000.0f - g_remote.m
 890              		.loc 1 125 5 is_stmt 1 view .LVU188
 891              		.loc 1 125 25 is_stmt 0 view .LVU189
 892 0194 D4ED097A 		vldr.32	s15, [r4, #36]
 893              		.loc 1 125 73 view .LVU190
 894 0198 B5F90630 		ldrsh	r3, [r5, #6]
 895 019c 06EE903A 		vmov	s13, r3	@ int
 896              		.loc 1 125 76 view .LVU191
 897 01a0 F8EEE66A 		vcvt.f32.s32	s13, s13
 898 01a4 DFED495A 		vldr.32	s11, .L55+32
 899 01a8 86EEA57A 		vdiv.f32	s14, s13, s11
 900              		.loc 1 125 104 view .LVU192
 901 01ac B5F92230 		ldrsh	r3, [r5, #34]
 902 01b0 06EE903A 		vmov	s13, r3	@ int
 903              		.loc 1 125 107 view .LVU193
 904 01b4 F8EEE66A 		vcvt.f32.s32	s13, s13
 905 01b8 C6EE865A 		vdiv.f32	s11, s13, s12
 906              		.loc 1 125 88 view .LVU194
 907 01bc 37EE657A 		vsub.f32	s14, s14, s11
 908              		.loc 1 125 38 view .LVU195
ARM GAS  /var/folders/sg/pxk9dyzj7jz_x3889hx3b3dw0000gn/T//ccgLpubu.s 			page 22


 909 01c0 77EEC77A 		vsub.f32	s15, s15, s14
 910 01c4 C4ED097A 		vstr.32	s15, [r4, #36]
 126:Swerve-Standard/src/robot.c **** 
 127:Swerve-Standard/src/robot.c ****     // if (__IS_TOGGLED(g_remote.keyboard.B, g_input_state.prev_B))
 128:Swerve-Standard/src/robot.c ****     // {
 129:Swerve-Standard/src/robot.c ****     //     g_robot_state.UI_ENABLED ^= 0x01; // Toggle UI
 130:Swerve-Standard/src/robot.c ****     // }
 131:Swerve-Standard/src/robot.c **** 
 132:Swerve-Standard/src/robot.c ****     if ((g_remote.keyboard.Shift) || (g_remote.controller.right_switch == UP)) // Hold shift to boo
 911              		.loc 1 132 5 is_stmt 1 view .LVU196
 912              		.loc 1 132 27 is_stmt 0 view .LVU197
 913 01c8 A87D     		ldrb	r0, [r5, #22]	@ zero_extendqisi2
 914              		.loc 1 132 8 view .LVU198
 915 01ca 38B9     		cbnz	r0, .L37
 916              		.loc 1 132 58 discriminator 1 view .LVU199
 917 01cc 6B7B     		ldrb	r3, [r5, #13]	@ zero_extendqisi2
 918              		.loc 1 132 35 discriminator 1 view .LVU200
 919 01ce 012B     		cmp	r3, #1
 920 01d0 04D0     		beq	.L37
 133:Swerve-Standard/src/robot.c ****     {
 134:Swerve-Standard/src/robot.c ****         g_robot_state.IS_SUPER_CAPACITOR_ENABLED = 1;
 135:Swerve-Standard/src/robot.c ****     } else {
 136:Swerve-Standard/src/robot.c ****         g_robot_state.IS_SUPER_CAPACITOR_ENABLED = 0;
 921              		.loc 1 136 9 is_stmt 1 view .LVU201
 922              		.loc 1 136 50 is_stmt 0 view .LVU202
 923 01d2 364B     		ldr	r3, .L55
 924 01d4 0022     		movs	r2, #0
 925 01d6 83F85820 		strb	r2, [r3, #88]
 926 01da 03E0     		b	.L39
 927              	.L37:
 134:Swerve-Standard/src/robot.c ****     } else {
 928              		.loc 1 134 9 is_stmt 1 view .LVU203
 134:Swerve-Standard/src/robot.c ****     } else {
 929              		.loc 1 134 50 is_stmt 0 view .LVU204
 930 01dc 334B     		ldr	r3, .L55
 931 01de 0122     		movs	r2, #1
 932 01e0 83F85820 		strb	r2, [r3, #88]
 933              	.L39:
 137:Swerve-Standard/src/robot.c ****     }
 138:Swerve-Standard/src/robot.c **** 
 139:Swerve-Standard/src/robot.c ****     if (g_remote.mouse.right) { // Hold right mouse button to enable auto aim
 934              		.loc 1 139 5 is_stmt 1 view .LVU205
 935              		.loc 1 139 23 is_stmt 0 view .LVU206
 936 01e4 334B     		ldr	r3, .L55+8
 937 01e6 93F82730 		ldrb	r3, [r3, #39]	@ zero_extendqisi2
 938              		.loc 1 139 8 view .LVU207
 939 01ea 002B     		cmp	r3, #0
 940 01ec 38D0     		beq	.L40
 140:Swerve-Standard/src/robot.c ****         g_robot_state.launch.IS_AUTO_AIMING_ENABLED = 1;
 941              		.loc 1 140 9 is_stmt 1 view .LVU208
 942              		.loc 1 140 53 is_stmt 0 view .LVU209
 943 01ee 2F4B     		ldr	r3, .L55
 944 01f0 0122     		movs	r2, #1
 945 01f2 83F82D20 		strb	r2, [r3, #45]
 946              	.L41:
 141:Swerve-Standard/src/robot.c ****     } else {
 142:Swerve-Standard/src/robot.c ****         g_robot_state.launch.IS_AUTO_AIMING_ENABLED = 0;
ARM GAS  /var/folders/sg/pxk9dyzj7jz_x3889hx3b3dw0000gn/T//ccgLpubu.s 			page 23


 143:Swerve-Standard/src/robot.c ****     }
 144:Swerve-Standard/src/robot.c **** 
 145:Swerve-Standard/src/robot.c ****     if ((g_remote.mouse.left) || (g_remote.controller.wheel > 50.0f)) { // Hold left mouse to fire
 947              		.loc 1 145 5 is_stmt 1 view .LVU210
 948              		.loc 1 145 24 is_stmt 0 view .LVU211
 949 01f6 2F4B     		ldr	r3, .L55+8
 950 01f8 93F82630 		ldrb	r3, [r3, #38]	@ zero_extendqisi2
 951              		.loc 1 145 8 view .LVU212
 952 01fc 5BB9     		cbnz	r3, .L42
 953              		.loc 1 145 54 discriminator 1 view .LVU213
 954 01fe 2D4B     		ldr	r3, .L55+8
 955 0200 D3ED027A 		vldr.32	s15, [r3, #8]	@ int
 956              		.loc 1 145 61 discriminator 1 view .LVU214
 957 0204 F8EEE77A 		vcvt.f32.s32	s15, s15
 958              		.loc 1 145 31 discriminator 1 view .LVU215
 959 0208 9FED317A 		vldr.32	s14, .L55+36
 960 020c F4EEC77A 		vcmpe.f32	s15, s14
 961 0210 F1EE10FA 		vmrs	APSR_nzcv, FPSCR
 962 0214 29DD     		ble	.L50
 963              	.L42:
 146:Swerve-Standard/src/robot.c ****         g_robot_state.launch.fire_mode = FULL_AUTO;
 964              		.loc 1 146 9 is_stmt 1 view .LVU216
 965              		.loc 1 146 40 is_stmt 0 view .LVU217
 966 0216 254B     		ldr	r3, .L55
 967 0218 0322     		movs	r2, #3
 968 021a 83F83020 		strb	r2, [r3, #48]
 969              	.L45:
 147:Swerve-Standard/src/robot.c ****     } else {
 148:Swerve-Standard/src/robot.c ****         g_robot_state.launch.fire_mode = NO_FIRE;
 149:Swerve-Standard/src/robot.c ****     }
 150:Swerve-Standard/src/robot.c **** 
 151:Swerve-Standard/src/robot.c ****     if (__IS_TOGGLED(g_remote.keyboard.G, g_input_state.prev_G)) { 
 970              		.loc 1 151 5 is_stmt 1 view .LVU218
 971              		.loc 1 151 9 is_stmt 0 view .LVU219
 972 021e 254B     		ldr	r3, .L55+8
 973 0220 9A7E     		ldrb	r2, [r3, #26]	@ zero_extendqisi2
 974              		.loc 1 151 8 view .LVU220
 975 0222 012A     		cmp	r2, #1
 976 0224 26D0     		beq	.L52
 977              	.L46:
 152:Swerve-Standard/src/robot.c ****         g_robot_state.launch.IS_FIRING_ENABLED ^= 0x01; // Toggle firing with G
 153:Swerve-Standard/src/robot.c ****     }
 154:Swerve-Standard/src/robot.c **** 
 155:Swerve-Standard/src/robot.c ****     if (__IS_TOGGLED(g_remote.keyboard.B, g_input_state.prev_B)) { // Toggle spintop with B
 978              		.loc 1 155 5 is_stmt 1 view .LVU221
 979              		.loc 1 155 9 is_stmt 0 view .LVU222
 980 0226 234B     		ldr	r3, .L55+8
 981 0228 DC7F     		ldrb	r4, [r3, #31]	@ zero_extendqisi2
 982              		.loc 1 155 8 view .LVU223
 983 022a 012C     		cmp	r4, #1
 984 022c 2ED0     		beq	.L53
 985              	.L47:
 156:Swerve-Standard/src/robot.c ****         g_robot_state.chassis.IS_SPINTOP_ENABLED ^= 0x01;
 157:Swerve-Standard/src/robot.c ****     }
 158:Swerve-Standard/src/robot.c **** 
 159:Swerve-Standard/src/robot.c ****     if (g_remote.controller.left_switch == UP) { // Left switch high to enable spintop
 986              		.loc 1 159 5 is_stmt 1 view .LVU224
ARM GAS  /var/folders/sg/pxk9dyzj7jz_x3889hx3b3dw0000gn/T//ccgLpubu.s 			page 24


 987              		.loc 1 159 28 is_stmt 0 view .LVU225
 988 022e 214B     		ldr	r3, .L55+8
 989 0230 197B     		ldrb	r1, [r3, #12]	@ zero_extendqisi2
 990              		.loc 1 159 8 view .LVU226
 991 0232 0129     		cmp	r1, #1
 992 0234 34D0     		beq	.L54
 160:Swerve-Standard/src/robot.c ****         //g_robot_state.chassis.IS_SPINTOP_ENABLED = 1;
 161:Swerve-Standard/src/robot.c ****         g_robot_state.launch.IS_FIRING_ENABLED = 1;
 162:Swerve-Standard/src/robot.c ****         // g_robot_state.launch.IS_AUTO_AIMING_ENABLED = 1;
 163:Swerve-Standard/src/robot.c ****     } else {
 164:Swerve-Standard/src/robot.c ****         //g_robot_state.chassis.IS_SPINTOP_ENABLED = 0;
 165:Swerve-Standard/src/robot.c ****         g_robot_state.launch.IS_FIRING_ENABLED = 0;
 993              		.loc 1 165 9 is_stmt 1 view .LVU227
 994              		.loc 1 165 48 is_stmt 0 view .LVU228
 995 0236 1D4B     		ldr	r3, .L55
 996 0238 0025     		movs	r5, #0
 997 023a 83F82C50 		strb	r5, [r3, #44]
 998              	.L49:
 166:Swerve-Standard/src/robot.c ****         //g_robot_state.launch.IS_AUTO_AIMING_ENABLED = 0;
 167:Swerve-Standard/src/robot.c ****     } 
 168:Swerve-Standard/src/robot.c **** 
 169:Swerve-Standard/src/robot.c ****     // Update previous states keyboard
 170:Swerve-Standard/src/robot.c ****     g_input_state.prev_B = g_remote.keyboard.B;
 999              		.loc 1 170 5 is_stmt 1 view .LVU229
 1000              		.loc 1 170 26 is_stmt 0 view .LVU230
 1001 023e 254B     		ldr	r3, .L55+40
 1002 0240 9C74     		strb	r4, [r3, #18]
 171:Swerve-Standard/src/robot.c ****     g_input_state.prev_G = g_remote.keyboard.G;
 1003              		.loc 1 171 5 is_stmt 1 view .LVU231
 1004              		.loc 1 171 26 is_stmt 0 view .LVU232
 1005 0242 DA74     		strb	r2, [r3, #19]
 172:Swerve-Standard/src/robot.c ****     g_input_state.prev_V = g_remote.keyboard.V;
 1006              		.loc 1 172 5 is_stmt 1 view .LVU233
 1007              		.loc 1 172 45 is_stmt 0 view .LVU234
 1008 0244 1B4A     		ldr	r2, .L55+8
 1009 0246 947F     		ldrb	r4, [r2, #30]	@ zero_extendqisi2
 1010              		.loc 1 172 26 view .LVU235
 1011 0248 1C75     		strb	r4, [r3, #20]
 173:Swerve-Standard/src/robot.c ****     g_input_state.prev_Z = g_remote.keyboard.Z;
 1012              		.loc 1 173 5 is_stmt 1 view .LVU236
 1013              		.loc 1 173 45 is_stmt 0 view .LVU237
 1014 024a D47E     		ldrb	r4, [r2, #27]	@ zero_extendqisi2
 1015              		.loc 1 173 26 view .LVU238
 1016 024c 5C75     		strb	r4, [r3, #21]
 174:Swerve-Standard/src/robot.c ****     g_input_state.prev_Shift = g_remote.keyboard.Shift;
 1017              		.loc 1 174 5 is_stmt 1 view .LVU239
 1018              		.loc 1 174 30 is_stmt 0 view .LVU240
 1019 024e 9875     		strb	r0, [r3, #22]
 175:Swerve-Standard/src/robot.c **** 
 176:Swerve-Standard/src/robot.c ****     // Update previous states remote
 177:Swerve-Standard/src/robot.c ****     g_input_state.prev_left_switch = g_remote.controller.left_switch;
 1020              		.loc 1 177 5 is_stmt 1 view .LVU241
 1021              		.loc 1 177 36 is_stmt 0 view .LVU242
 1022 0250 1974     		strb	r1, [r3, #16]
 178:Swerve-Standard/src/robot.c ****     g_input_state.prev_right_switch = g_remote.controller.right_switch;
 1023              		.loc 1 178 5 is_stmt 1 view .LVU243
 1024              		.loc 1 178 58 is_stmt 0 view .LVU244
ARM GAS  /var/folders/sg/pxk9dyzj7jz_x3889hx3b3dw0000gn/T//ccgLpubu.s 			page 25


 1025 0252 527B     		ldrb	r2, [r2, #13]	@ zero_extendqisi2
 1026              		.loc 1 178 37 view .LVU245
 1027 0254 5A74     		strb	r2, [r3, #17]
 179:Swerve-Standard/src/robot.c **** }
 1028              		.loc 1 179 1 view .LVU246
 1029 0256 05B0     		add	sp, sp, #20
 1030              	.LCFI22:
 1031              		.cfi_remember_state
 1032              		.cfi_def_cfa_offset 44
 1033              		@ sp needed
 1034 0258 BDEC028B 		vldm	sp!, {d8}
 1035              	.LCFI23:
 1036              		.cfi_restore 80
 1037              		.cfi_restore 81
 1038              		.cfi_def_cfa_offset 36
 1039 025c BDE8F08F 		pop	{r4, r5, r6, r7, r8, r9, r10, fp, pc}
 1040              	.L40:
 1041              	.LCFI24:
 1042              		.cfi_restore_state
 142:Swerve-Standard/src/robot.c ****     }
 1043              		.loc 1 142 9 is_stmt 1 view .LVU247
 142:Swerve-Standard/src/robot.c ****     }
 1044              		.loc 1 142 53 is_stmt 0 view .LVU248
 1045 0260 124B     		ldr	r3, .L55
 1046 0262 0022     		movs	r2, #0
 1047 0264 83F82D20 		strb	r2, [r3, #45]
 1048 0268 C5E7     		b	.L41
 1049              	.L50:
 148:Swerve-Standard/src/robot.c ****     }
 1050              		.loc 1 148 9 is_stmt 1 view .LVU249
 148:Swerve-Standard/src/robot.c ****     }
 1051              		.loc 1 148 40 is_stmt 0 view .LVU250
 1052 026a 104B     		ldr	r3, .L55
 1053 026c 0022     		movs	r2, #0
 1054 026e 83F83020 		strb	r2, [r3, #48]
 1055 0272 D4E7     		b	.L45
 1056              	.L52:
 151:Swerve-Standard/src/robot.c ****         g_robot_state.launch.IS_FIRING_ENABLED ^= 0x01; // Toggle firing with G
 1057              		.loc 1 151 9 discriminator 1 view .LVU251
 1058 0274 174B     		ldr	r3, .L55+40
 1059 0276 DB7C     		ldrb	r3, [r3, #19]	@ zero_extendqisi2
 1060 0278 002B     		cmp	r3, #0
 1061 027a D4D1     		bne	.L46
 152:Swerve-Standard/src/robot.c ****     }
 1062              		.loc 1 152 9 is_stmt 1 view .LVU252
 152:Swerve-Standard/src/robot.c ****     }
 1063              		.loc 1 152 29 is_stmt 0 view .LVU253
 1064 027c 0B49     		ldr	r1, .L55
 1065 027e 91F82C30 		ldrb	r3, [r1, #44]	@ zero_extendqisi2
 152:Swerve-Standard/src/robot.c ****     }
 1066              		.loc 1 152 48 view .LVU254
 1067 0282 83F00103 		eor	r3, r3, #1
 1068 0286 81F82C30 		strb	r3, [r1, #44]
 1069 028a CCE7     		b	.L46
 1070              	.L53:
 155:Swerve-Standard/src/robot.c ****         g_robot_state.chassis.IS_SPINTOP_ENABLED ^= 0x01;
 1071              		.loc 1 155 9 discriminator 1 view .LVU255
ARM GAS  /var/folders/sg/pxk9dyzj7jz_x3889hx3b3dw0000gn/T//ccgLpubu.s 			page 26


 1072 028c 114B     		ldr	r3, .L55+40
 1073 028e 9B7C     		ldrb	r3, [r3, #18]	@ zero_extendqisi2
 1074 0290 002B     		cmp	r3, #0
 1075 0292 CCD1     		bne	.L47
 156:Swerve-Standard/src/robot.c ****     }
 1076              		.loc 1 156 9 is_stmt 1 view .LVU256
 156:Swerve-Standard/src/robot.c ****     }
 1077              		.loc 1 156 30 is_stmt 0 view .LVU257
 1078 0294 0549     		ldr	r1, .L55
 1079 0296 0B7C     		ldrb	r3, [r1, #16]	@ zero_extendqisi2
 156:Swerve-Standard/src/robot.c ****     }
 1080              		.loc 1 156 50 view .LVU258
 1081 0298 83F00103 		eor	r3, r3, #1
 1082 029c 0B74     		strb	r3, [r1, #16]
 1083 029e C6E7     		b	.L47
 1084              	.L54:
 161:Swerve-Standard/src/robot.c ****         // g_robot_state.launch.IS_AUTO_AIMING_ENABLED = 1;
 1085              		.loc 1 161 9 is_stmt 1 view .LVU259
 161:Swerve-Standard/src/robot.c ****         // g_robot_state.launch.IS_AUTO_AIMING_ENABLED = 1;
 1086              		.loc 1 161 48 is_stmt 0 view .LVU260
 1087 02a0 024B     		ldr	r3, .L55
 1088 02a2 0125     		movs	r5, #1
 1089 02a4 83F82C50 		strb	r5, [r3, #44]
 1090 02a8 C9E7     		b	.L49
 1091              	.L56:
 1092 02aa 00BF     		.align	2
 1093              	.L55:
 1094 02ac 00000000 		.word	g_robot_state
 1095 02b0 A4707D3F 		.word	1065185444
 1096 02b4 00000000 		.word	g_remote
 1097 02b8 0AD7233C 		.word	1008981770
 1098 02bc 00002544 		.word	1143275520
 1099 02c0 00000000 		.word	g_yaw
 1100 02c4 00504347 		.word	1195593728
 1101 02c8 00401C46 		.word	1176256512
 1102 02cc 0050C347 		.word	1203982336
 1103 02d0 00004842 		.word	1112014848
 1104 02d4 00000000 		.word	g_input_state
 1105              		.cfi_endproc
 1106              	.LFE154:
 1108              		.section	.text.Process_Chassis_Control,"ax",%progbits
 1109              		.align	1
 1110              		.global	Process_Chassis_Control
 1111              		.syntax unified
 1112              		.thumb
 1113              		.thumb_func
 1115              	Process_Chassis_Control:
 1116              	.LFB155:
 180:Swerve-Standard/src/robot.c **** 
 181:Swerve-Standard/src/robot.c **** void Process_Chassis_Control()
 182:Swerve-Standard/src/robot.c **** {
 1117              		.loc 1 182 1 is_stmt 1 view -0
 1118              		.cfi_startproc
 1119              		@ args = 0, pretend = 0, frame = 0
 1120              		@ frame_needed = 0, uses_anonymous_args = 0
 1121 0000 08B5     		push	{r3, lr}
 1122              	.LCFI25:
ARM GAS  /var/folders/sg/pxk9dyzj7jz_x3889hx3b3dw0000gn/T//ccgLpubu.s 			page 27


 1123              		.cfi_def_cfa_offset 8
 1124              		.cfi_offset 3, -8
 1125              		.cfi_offset 14, -4
 183:Swerve-Standard/src/robot.c ****     Chassis_Ctrl_Loop();
 1126              		.loc 1 183 5 view .LVU262
 1127 0002 FFF7FEFF 		bl	Chassis_Ctrl_Loop
 1128              	.LVL67:
 184:Swerve-Standard/src/robot.c **** }
 1129              		.loc 1 184 1 is_stmt 0 view .LVU263
 1130 0006 08BD     		pop	{r3, pc}
 1131              		.cfi_endproc
 1132              	.LFE155:
 1134              		.section	.text.Process_Gimbal_Control,"ax",%progbits
 1135              		.align	1
 1136              		.global	Process_Gimbal_Control
 1137              		.syntax unified
 1138              		.thumb
 1139              		.thumb_func
 1141              	Process_Gimbal_Control:
 1142              	.LFB156:
 185:Swerve-Standard/src/robot.c **** 
 186:Swerve-Standard/src/robot.c **** void Process_Gimbal_Control()
 187:Swerve-Standard/src/robot.c **** {
 1143              		.loc 1 187 1 is_stmt 1 view -0
 1144              		.cfi_startproc
 1145              		@ args = 0, pretend = 0, frame = 0
 1146              		@ frame_needed = 0, uses_anonymous_args = 0
 1147 0000 08B5     		push	{r3, lr}
 1148              	.LCFI26:
 1149              		.cfi_def_cfa_offset 8
 1150              		.cfi_offset 3, -8
 1151              		.cfi_offset 14, -4
 188:Swerve-Standard/src/robot.c ****     Gimbal_Ctrl_Loop();
 1152              		.loc 1 188 5 view .LVU265
 1153 0002 FFF7FEFF 		bl	Gimbal_Ctrl_Loop
 1154              	.LVL68:
 189:Swerve-Standard/src/robot.c **** }
 1155              		.loc 1 189 1 is_stmt 0 view .LVU266
 1156 0006 08BD     		pop	{r3, pc}
 1157              		.cfi_endproc
 1158              	.LFE156:
 1160              		.section	.text.Process_Launch_Control,"ax",%progbits
 1161              		.align	1
 1162              		.global	Process_Launch_Control
 1163              		.syntax unified
 1164              		.thumb
 1165              		.thumb_func
 1167              	Process_Launch_Control:
 1168              	.LFB157:
 190:Swerve-Standard/src/robot.c **** 
 191:Swerve-Standard/src/robot.c **** void Process_Launch_Control()
 192:Swerve-Standard/src/robot.c **** {
 1169              		.loc 1 192 1 is_stmt 1 view -0
 1170              		.cfi_startproc
 1171              		@ args = 0, pretend = 0, frame = 0
 1172              		@ frame_needed = 0, uses_anonymous_args = 0
 1173 0000 08B5     		push	{r3, lr}
ARM GAS  /var/folders/sg/pxk9dyzj7jz_x3889hx3b3dw0000gn/T//ccgLpubu.s 			page 28


 1174              	.LCFI27:
 1175              		.cfi_def_cfa_offset 8
 1176              		.cfi_offset 3, -8
 1177              		.cfi_offset 14, -4
 193:Swerve-Standard/src/robot.c ****     Launch_Ctrl_Loop();
 1178              		.loc 1 193 5 view .LVU268
 1179 0002 FFF7FEFF 		bl	Launch_Ctrl_Loop
 1180              	.LVL69:
 194:Swerve-Standard/src/robot.c **** }
 1181              		.loc 1 194 1 is_stmt 0 view .LVU269
 1182 0006 08BD     		pop	{r3, pc}
 1183              		.cfi_endproc
 1184              	.LFE157:
 1186              		.section	.text.Handle_Enabled_State,"ax",%progbits
 1187              		.align	1
 1188              		.global	Handle_Enabled_State
 1189              		.syntax unified
 1190              		.thumb
 1191              		.thumb_func
 1193              	Handle_Enabled_State:
 1194              	.LFB152:
  72:Swerve-Standard/src/robot.c ****     if ((g_remote.online_flag == REMOTE_OFFLINE) || (g_remote.controller.right_switch == DOWN))
 1195              		.loc 1 72 1 is_stmt 1 view -0
 1196              		.cfi_startproc
 1197              		@ args = 0, pretend = 0, frame = 0
 1198              		@ frame_needed = 0, uses_anonymous_args = 0
 1199 0000 08B5     		push	{r3, lr}
 1200              	.LCFI28:
 1201              		.cfi_def_cfa_offset 8
 1202              		.cfi_offset 3, -8
 1203              		.cfi_offset 14, -4
  73:Swerve-Standard/src/robot.c ****     {
 1204              		.loc 1 73 5 view .LVU271
  73:Swerve-Standard/src/robot.c ****     {
 1205              		.loc 1 73 18 is_stmt 0 view .LVU272
 1206 0002 0B4B     		ldr	r3, .L68
 1207 0004 93F82830 		ldrb	r3, [r3, #40]	@ zero_extendqisi2
  73:Swerve-Standard/src/robot.c ****     {
 1208              		.loc 1 73 8 view .LVU273
 1209 0008 1BB1     		cbz	r3, .L64
  73:Swerve-Standard/src/robot.c ****     {
 1210              		.loc 1 73 73 discriminator 1 view .LVU274
 1211 000a 094B     		ldr	r3, .L68
 1212 000c 5B7B     		ldrb	r3, [r3, #13]	@ zero_extendqisi2
  73:Swerve-Standard/src/robot.c ****     {
 1213              		.loc 1 73 50 discriminator 1 view .LVU275
 1214 000e 022B     		cmp	r3, #2
 1215 0010 03D1     		bne	.L65
 1216              	.L64:
  75:Swerve-Standard/src/robot.c ****     }
 1217              		.loc 1 75 9 is_stmt 1 view .LVU276
  75:Swerve-Standard/src/robot.c ****     }
 1218              		.loc 1 75 29 is_stmt 0 view .LVU277
 1219 0012 084B     		ldr	r3, .L68+4
 1220 0014 0122     		movs	r2, #1
 1221 0016 1A70     		strb	r2, [r3]
 1222              	.L63:
ARM GAS  /var/folders/sg/pxk9dyzj7jz_x3889hx3b3dw0000gn/T//ccgLpubu.s 			page 29


  86:Swerve-Standard/src/robot.c **** 
 1223              		.loc 1 86 1 view .LVU278
 1224 0018 08BD     		pop	{r3, pc}
 1225              	.L65:
  80:Swerve-Standard/src/robot.c ****         Process_Remote_Input();
 1226              		.loc 1 80 9 is_stmt 1 view .LVU279
 1227 001a FFF7FEFF 		bl	Referee_Set_Robot_State
 1228              	.LVL70:
  81:Swerve-Standard/src/robot.c ****         Process_Chassis_Control();
 1229              		.loc 1 81 9 view .LVU280
 1230 001e FFF7FEFF 		bl	Process_Remote_Input
 1231              	.LVL71:
  82:Swerve-Standard/src/robot.c ****         Process_Gimbal_Control();
 1232              		.loc 1 82 9 view .LVU281
 1233 0022 FFF7FEFF 		bl	Process_Chassis_Control
 1234              	.LVL72:
  83:Swerve-Standard/src/robot.c ****         Process_Launch_Control();
 1235              		.loc 1 83 9 view .LVU282
 1236 0026 FFF7FEFF 		bl	Process_Gimbal_Control
 1237              	.LVL73:
  84:Swerve-Standard/src/robot.c ****     }
 1238              		.loc 1 84 9 view .LVU283
 1239 002a FFF7FEFF 		bl	Process_Launch_Control
 1240              	.LVL74:
  86:Swerve-Standard/src/robot.c **** 
 1241              		.loc 1 86 1 is_stmt 0 view .LVU284
 1242 002e F3E7     		b	.L63
 1243              	.L69:
 1244              		.align	2
 1245              	.L68:
 1246 0030 00000000 		.word	g_remote
 1247 0034 00000000 		.word	g_robot_state
 1248              		.cfi_endproc
 1249              	.LFE152:
 1251              		.section	.text.Robot_Command_Loop,"ax",%progbits
 1252              		.align	1
 1253              		.global	Robot_Command_Loop
 1254              		.syntax unified
 1255              		.thumb
 1256              		.thumb_func
 1258              	Robot_Command_Loop:
 1259              	.LFB158:
 195:Swerve-Standard/src/robot.c **** 
 196:Swerve-Standard/src/robot.c **** /*
 197:Swerve-Standard/src/robot.c ****  * @brief It serves as the top level state machine for the robot based on the current state.
 198:Swerve-Standard/src/robot.c ****  *  Appropriate functions are called.
 199:Swerve-Standard/src/robot.c ****  */
 200:Swerve-Standard/src/robot.c **** void Robot_Command_Loop()
 201:Swerve-Standard/src/robot.c **** {
 1260              		.loc 1 201 1 is_stmt 1 view -0
 1261              		.cfi_startproc
 1262              		@ args = 0, pretend = 0, frame = 0
 1263              		@ frame_needed = 0, uses_anonymous_args = 0
 1264 0000 08B5     		push	{r3, lr}
 1265              	.LCFI29:
 1266              		.cfi_def_cfa_offset 8
 1267              		.cfi_offset 3, -8
ARM GAS  /var/folders/sg/pxk9dyzj7jz_x3889hx3b3dw0000gn/T//ccgLpubu.s 			page 30


 1268              		.cfi_offset 14, -4
 202:Swerve-Standard/src/robot.c ****     switch (g_robot_state.state)
 1269              		.loc 1 202 5 view .LVU286
 1270              		.loc 1 202 26 is_stmt 0 view .LVU287
 1271 0002 094B     		ldr	r3, .L76
 1272 0004 1B78     		ldrb	r3, [r3]	@ zero_extendqisi2
 1273              		.loc 1 202 5 view .LVU288
 1274 0006 012B     		cmp	r3, #1
 1275 0008 05D0     		beq	.L71
 1276 000a 022B     		cmp	r3, #2
 1277 000c 06D0     		beq	.L72
 1278 000e 43B9     		cbnz	r3, .L73
 203:Swerve-Standard/src/robot.c ****     {
 204:Swerve-Standard/src/robot.c ****     case STARTING_UP:
 205:Swerve-Standard/src/robot.c ****         Handle_Starting_Up_State();
 1279              		.loc 1 205 9 is_stmt 1 view .LVU289
 1280 0010 FFF7FEFF 		bl	Handle_Starting_Up_State
 1281              	.LVL75:
 206:Swerve-Standard/src/robot.c ****         break;
 1282              		.loc 1 206 9 view .LVU290
 1283              	.L70:
 207:Swerve-Standard/src/robot.c ****     case DISABLED:
 208:Swerve-Standard/src/robot.c ****         Handle_Disabled_State();
 209:Swerve-Standard/src/robot.c ****         break;
 210:Swerve-Standard/src/robot.c ****     case ENABLED:
 211:Swerve-Standard/src/robot.c ****         Handle_Enabled_State();
 212:Swerve-Standard/src/robot.c ****         break;
 213:Swerve-Standard/src/robot.c ****     default:
 214:Swerve-Standard/src/robot.c ****         Error_Handler();
 215:Swerve-Standard/src/robot.c ****         break;
 216:Swerve-Standard/src/robot.c ****     }
 217:Swerve-Standard/src/robot.c **** }
 1284              		.loc 1 217 1 is_stmt 0 view .LVU291
 1285 0014 08BD     		pop	{r3, pc}
 1286              	.L71:
 208:Swerve-Standard/src/robot.c ****         break;
 1287              		.loc 1 208 9 is_stmt 1 view .LVU292
 1288 0016 FFF7FEFF 		bl	Handle_Disabled_State
 1289              	.LVL76:
 209:Swerve-Standard/src/robot.c ****     case ENABLED:
 1290              		.loc 1 209 9 view .LVU293
 1291 001a FBE7     		b	.L70
 1292              	.L72:
 211:Swerve-Standard/src/robot.c ****         break;
 1293              		.loc 1 211 9 view .LVU294
 1294 001c FFF7FEFF 		bl	Handle_Enabled_State
 1295              	.LVL77:
 212:Swerve-Standard/src/robot.c ****     default:
 1296              		.loc 1 212 9 view .LVU295
 1297 0020 F8E7     		b	.L70
 1298              	.L73:
 214:Swerve-Standard/src/robot.c ****         break;
 1299              		.loc 1 214 9 view .LVU296
 1300 0022 FFF7FEFF 		bl	Error_Handler
 1301              	.LVL78:
 215:Swerve-Standard/src/robot.c ****     }
 1302              		.loc 1 215 9 view .LVU297
ARM GAS  /var/folders/sg/pxk9dyzj7jz_x3889hx3b3dw0000gn/T//ccgLpubu.s 			page 31


 1303              		.loc 1 217 1 is_stmt 0 view .LVU298
 1304 0026 F5E7     		b	.L70
 1305              	.L77:
 1306              		.align	2
 1307              	.L76:
 1308 0028 00000000 		.word	g_robot_state
 1309              		.cfi_endproc
 1310              	.LFE158:
 1312              		.section	.text.Robot_Tasks_Robot_Command,"ax",%progbits
 1313              		.align	1
 1314              		.global	Robot_Tasks_Robot_Command
 1315              		.syntax unified
 1316              		.thumb
 1317              		.thumb_func
 1319              	Robot_Tasks_Robot_Command:
 1320              	.LVL79:
 1321              	.LFB143:
  59:Swerve-Standard/inc/robot_tasks.h ****     portTickType xLastWakeTime;
 1322              		.loc 2 59 1 is_stmt 1 view -0
 1323              		.cfi_startproc
 1324              		@ args = 0, pretend = 0, frame = 8
 1325              		@ frame_needed = 0, uses_anonymous_args = 0
  59:Swerve-Standard/inc/robot_tasks.h ****     portTickType xLastWakeTime;
 1326              		.loc 2 59 1 is_stmt 0 view .LVU300
 1327 0000 00B5     		push	{lr}
 1328              	.LCFI30:
 1329              		.cfi_def_cfa_offset 4
 1330              		.cfi_offset 14, -4
 1331 0002 83B0     		sub	sp, sp, #12
 1332              	.LCFI31:
 1333              		.cfi_def_cfa_offset 16
  60:Swerve-Standard/inc/robot_tasks.h ****     xLastWakeTime = xTaskGetTickCount();
 1334              		.loc 2 60 5 is_stmt 1 view .LVU301
  61:Swerve-Standard/inc/robot_tasks.h ****     const TickType_t TimeIncrement = pdMS_TO_TICKS(2);
 1335              		.loc 2 61 5 view .LVU302
  61:Swerve-Standard/inc/robot_tasks.h ****     const TickType_t TimeIncrement = pdMS_TO_TICKS(2);
 1336              		.loc 2 61 21 is_stmt 0 view .LVU303
 1337 0004 FFF7FEFF 		bl	xTaskGetTickCount
 1338              	.LVL80:
  61:Swerve-Standard/inc/robot_tasks.h ****     const TickType_t TimeIncrement = pdMS_TO_TICKS(2);
 1339              		.loc 2 61 19 discriminator 1 view .LVU304
 1340 0008 0190     		str	r0, [sp, #4]
  62:Swerve-Standard/inc/robot_tasks.h ****     while (1)
 1341              		.loc 2 62 5 is_stmt 1 view .LVU305
 1342              	.LVL81:
 1343              	.L79:
  63:Swerve-Standard/inc/robot_tasks.h ****     {
 1344              		.loc 2 63 5 view .LVU306
  65:Swerve-Standard/inc/robot_tasks.h ****         vTaskDelayUntil(&xLastWakeTime, TimeIncrement);
 1345              		.loc 2 65 9 view .LVU307
 1346 000a FFF7FEFF 		bl	Robot_Command_Loop
 1347              	.LVL82:
  66:Swerve-Standard/inc/robot_tasks.h ****     }
 1348              		.loc 2 66 9 discriminator 1 view .LVU308
 1349 000e 0221     		movs	r1, #2
 1350 0010 01A8     		add	r0, sp, #4
 1351 0012 FFF7FEFF 		bl	vTaskDelayUntil
ARM GAS  /var/folders/sg/pxk9dyzj7jz_x3889hx3b3dw0000gn/T//ccgLpubu.s 			page 32


 1352              	.LVL83:
  63:Swerve-Standard/inc/robot_tasks.h ****     {
 1353              		.loc 2 63 11 view .LVU309
 1354 0016 F8E7     		b	.L79
 1355              		.cfi_endproc
 1356              	.LFE143:
 1358              		.section	.rodata.str1.4,"aMS",%progbits,1
 1359              		.align	2
 1360              	.LC12:
 1361 0000 6461656D 		.ascii	"daemon_task\000"
 1361      6F6E5F74 
 1361      61736B00 
 1362              		.align	2
 1363              	.LC10:
 1364 000c 6A657473 		.ascii	"jetson_orin_task\000"
 1364      6F6E5F6F 
 1364      72696E5F 
 1364      7461736B 
 1364      00
 1365 001d 000000   		.align	2
 1366              	.LC8:
 1367 0020 64656275 		.ascii	"debug_task\000"
 1367      675F7461 
 1367      736B00
 1368 002b 00       		.align	2
 1369              	.LC6:
 1370 002c 75695F74 		.ascii	"ui_task\000"
 1370      61736B00 
 1371              		.align	2
 1372              	.LC4:
 1373 0034 726F626F 		.ascii	"robot_command_task\000"
 1373      745F636F 
 1373      6D6D616E 
 1373      645F7461 
 1373      736B00
 1374 0047 00       		.align	2
 1375              	.LC2:
 1376 0048 6D6F746F 		.ascii	"motor_task\000"
 1376      725F7461 
 1376      736B00
 1377 0053 00       		.align	2
 1378              	.LC0:
 1379 0054 696D755F 		.ascii	"imu_task\000"
 1379      7461736B 
 1379      00
 1380              		.global	g_input_state
 1381              		.section	.bss.g_input_state,"aw",%nobits
 1382              		.align	2
 1385              	g_input_state:
 1386 0000 00000000 		.space	24
 1386      00000000 
 1386      00000000 
 1386      00000000 
 1386      00000000 
 1387              		.global	g_robot_state
 1388              		.section	.bss.g_robot_state,"aw",%nobits
 1389              		.align	2
ARM GAS  /var/folders/sg/pxk9dyzj7jz_x3889hx3b3dw0000gn/T//ccgLpubu.s 			page 33


 1392              	g_robot_state:
 1393 0000 00000000 		.space	92
 1393      00000000 
 1393      00000000 
 1393      00000000 
 1393      00000000 
 1394              		.global	daemon_task_handle
 1395              		.section	.bss.daemon_task_handle,"aw",%nobits
 1396              		.align	2
 1399              	daemon_task_handle:
 1400 0000 00000000 		.space	4
 1401              		.global	jetson_orin_task_handle
 1402              		.section	.bss.jetson_orin_task_handle,"aw",%nobits
 1403              		.align	2
 1406              	jetson_orin_task_handle:
 1407 0000 00000000 		.space	4
 1408              		.global	debug_task_handle
 1409              		.section	.bss.debug_task_handle,"aw",%nobits
 1410              		.align	2
 1413              	debug_task_handle:
 1414 0000 00000000 		.space	4
 1415              		.global	ui_task_handle
 1416              		.section	.bss.ui_task_handle,"aw",%nobits
 1417              		.align	2
 1420              	ui_task_handle:
 1421 0000 00000000 		.space	4
 1422              		.global	motor_task_handle
 1423              		.section	.bss.motor_task_handle,"aw",%nobits
 1424              		.align	2
 1427              	motor_task_handle:
 1428 0000 00000000 		.space	4
 1429              		.global	robot_command_task_handle
 1430              		.section	.bss.robot_command_task_handle,"aw",%nobits
 1431              		.align	2
 1434              	robot_command_task_handle:
 1435 0000 00000000 		.space	4
 1436              		.global	imu_task_handle
 1437              		.section	.bss.imu_task_handle,"aw",%nobits
 1438              		.align	2
 1441              	imu_task_handle:
 1442 0000 00000000 		.space	4
 1443              		.section	.rodata
 1444              		.align	2
 1445              		.set	.LANCHOR0,. + 0
 1446              	.LC14:
 1447 0000 54000000 		.word	.LC0
 1448 0004 00000000 		.word	Robot_Tasks_IMU
 1449 0008 0100     		.short	1
 1450 000a 0000     		.space	2
 1451 000c 00000000 		.word	0
 1452 0010 00040000 		.word	1024
 1453 0014 00000000 		.word	0
 1454 0018 00000000 		.word	0
 1455              	.LC15:
 1456 001c 48000000 		.word	.LC2
 1457 0020 00000000 		.word	Robot_Tasks_Motor
 1458 0024 0100     		.short	1
ARM GAS  /var/folders/sg/pxk9dyzj7jz_x3889hx3b3dw0000gn/T//ccgLpubu.s 			page 34


 1459 0026 0000     		.space	2
 1460 0028 00000000 		.word	0
 1461 002c 00010000 		.word	256
 1462 0030 00000000 		.word	0
 1463 0034 00000000 		.word	0
 1464              	.LC16:
 1465 0038 34000000 		.word	.LC4
 1466 003c 00000000 		.word	Robot_Tasks_Robot_Command
 1467 0040 0100     		.short	1
 1468 0042 0000     		.space	2
 1469 0044 00000000 		.word	0
 1470 0048 00010000 		.word	256
 1471 004c 00000000 		.word	0
 1472 0050 00000000 		.word	0
 1473              	.LC17:
 1474 0054 2C000000 		.word	.LC6
 1475 0058 00000000 		.word	Robot_Tasks_UI
 1476 005c 0100     		.short	1
 1477 005e 0000     		.space	2
 1478 0060 00000000 		.word	0
 1479 0064 00010000 		.word	256
 1480 0068 00000000 		.word	0
 1481 006c 00000000 		.word	0
 1482              	.LC18:
 1483 0070 20000000 		.word	.LC8
 1484 0074 00000000 		.word	Robot_Tasks_Debug
 1485 0078 FDFF     		.short	-3
 1486 007a 0000     		.space	2
 1487 007c 00000000 		.word	0
 1488 0080 00010000 		.word	256
 1489 0084 00000000 		.word	0
 1490 0088 00000000 		.word	0
 1491              	.LC19:
 1492 008c 0C000000 		.word	.LC10
 1493 0090 00000000 		.word	Robot_Tasks_Jetson_Orin
 1494 0094 0100     		.short	1
 1495 0096 0000     		.space	2
 1496 0098 00000000 		.word	0
 1497 009c 00010000 		.word	256
 1498 00a0 00000000 		.word	0
 1499 00a4 00000000 		.word	0
 1500              	.LC20:
 1501 00a8 00000000 		.word	.LC12
 1502 00ac 00000000 		.word	Robot_Tasks_Daemon
 1503 00b0 0100     		.short	1
 1504 00b2 0000     		.space	2
 1505 00b4 00000000 		.word	0
 1506 00b8 00010000 		.word	256
 1507 00bc 00000000 		.word	0
 1508 00c0 00000000 		.word	0
 1509              		.text
 1510              	.Letext0:
 1511              		.file 3 "/Applications/ArmGNUToolchain/14.3.rel1/arm-none-eabi/arm-none-eabi/include/machine/_defa
 1512              		.file 4 "/Applications/ArmGNUToolchain/14.3.rel1/arm-none-eabi/arm-none-eabi/include/sys/_stdint.h
 1513              		.file 5 "Swerve-Standard/inc/robot.h"
 1514              		.file 6 "control-base/typec-board-base/Middlewares/Third_Party/FreeRTOS/Source/portable/GCC/ARM_CM
 1515              		.file 7 "control-base/typec-board-base/Middlewares/Third_Party/FreeRTOS/Source/include/FreeRTOS.h"
ARM GAS  /var/folders/sg/pxk9dyzj7jz_x3889hx3b3dw0000gn/T//ccgLpubu.s 			page 35


 1516              		.file 8 "control-base/typec-board-base/Middlewares/Third_Party/FreeRTOS/Source/include/task.h"
 1517              		.file 9 "control-base/typec-board-base/Drivers/CMSIS/Device/ST/STM32F4xx/Include/stm32f407xx.h"
 1518              		.file 10 "control-base/typec-board-base/Drivers/STM32F4xx_HAL_Driver/Inc/stm32f4xx_hal_def.h"
 1519              		.file 11 "control-base/typec-board-base/Drivers/STM32F4xx_HAL_Driver/Inc/stm32f4xx_hal_dma.h"
 1520              		.file 12 "control-base/typec-board-base/Drivers/STM32F4xx_HAL_Driver/Inc/stm32f4xx_hal_uart.h"
 1521              		.file 13 "control-base/typec-board-base/Middlewares/Third_Party/FreeRTOS/Source/CMSIS_RTOS/cmsis_o
 1522              		.file 14 "control-base/algo/inc/pid.h"
 1523              		.file 15 "control-base/devices/inc/motor.h"
 1524              		.file 16 "control-base/devices/inc/dji_motor.h"
 1525              		.file 17 "control-base/typec-board-base/Core/Inc/usart.h"
 1526              		.file 18 "control-base/devices/inc/supercap.h"
 1527              		.file 19 "control-base/devices/inc/remote.h"
 1528              		.file 20 "control-base/devices/inc/buzzer.h"
 1529              		.file 21 "control-base/typec-board-base/Core/Inc/main.h"
 1530              		.file 22 "Swerve-Standard/inc/launch_task.h"
 1531              		.file 23 "Swerve-Standard/inc/gimbal_task.h"
 1532              		.file 24 "Swerve-Standard/inc/chassis_task.h"
 1533              		.file 25 "/Applications/ArmGNUToolchain/14.3.rel1/arm-none-eabi/arm-none-eabi/include/math.h"
 1534              		.file 26 "control-base/devices/inc/referee_system.h"
 1535              		.file 27 "control-base/devices/inc/jetson_orin.h"
 1536              		.file 28 "control-base/bsp/inc/bsp_can.h"
 1537              		.file 29 "control-base/bsp/inc/bsp_daemon.h"
 1538              		.file 30 "Swerve-Standard/inc/debug_task.h"
 1539              		.file 31 "Swerve-Standard/inc/motor_task.h"
 1540              		.file 32 "<built-in>"
ARM GAS  /var/folders/sg/pxk9dyzj7jz_x3889hx3b3dw0000gn/T//ccgLpubu.s 			page 36

