ARM GAS  /var/folders/sg/pxk9dyzj7jz_x3889hx3b3dw0000gn/T//ccoJih7m.s 			page 1


   1              		.cpu cortex-m4
   2              		.arch armv7e-m
   3              		.fpu fpv4-sp-d16
   4              		.eabi_attribute 27, 1
   5              		.eabi_attribute 28, 1
   6              		.eabi_attribute 20, 1
   7              		.eabi_attribute 21, 1
   8              		.eabi_attribute 23, 3
   9              		.eabi_attribute 24, 1
  10              		.eabi_attribute 25, 1
  11              		.eabi_attribute 26, 1
  12              		.eabi_attribute 30, 1
  13              		.eabi_attribute 34, 1
  14              		.eabi_attribute 18, 4
  15              		.file	"supercap.c"
  16              		.text
  17              	.Ltext0:
  18              		.cfi_sections	.debug_frame
  19              		.file 1 "control-base/devices/src/supercap.c"
  20              		.section	.text.Supercap_Decode,"ax",%progbits
  21              		.align	1
  22              		.global	Supercap_Decode
  23              		.syntax unified
  24              		.thumb
  25              		.thumb_func
  27              	Supercap_Decode:
  28              	.LVL0:
  29              	.LFB143:
   1:control-base/devices/src/supercap.c **** #include "supercap.h"
   2:control-base/devices/src/supercap.c **** 
   3:control-base/devices/src/supercap.c **** #include "referee_system.h"
   4:control-base/devices/src/supercap.c **** 
   5:control-base/devices/src/supercap.c **** Supercap_t g_supercap;
   6:control-base/devices/src/supercap.c **** CAN_Instance_t *supercap_can_instance;
   7:control-base/devices/src/supercap.c **** extern Jetson_Orin_Data_t g_orin_data;
   8:control-base/devices/src/supercap.c **** 
   9:control-base/devices/src/supercap.c **** struct rx_data
  10:control-base/devices/src/supercap.c **** {
  11:control-base/devices/src/supercap.c ****     uint16_t cap_percentage;
  12:control-base/devices/src/supercap.c ****     uint16_t reserved1;
  13:control-base/devices/src/supercap.c ****     uint16_t reserved2;
  14:control-base/devices/src/supercap.c ****     uint16_t reserved3;
  15:control-base/devices/src/supercap.c **** } g_supercap_rx_data;
  16:control-base/devices/src/supercap.c **** 
  17:control-base/devices/src/supercap.c **** void Supercap_Init(Supercap_t *g_supercap)
  18:control-base/devices/src/supercap.c **** {
  19:control-base/devices/src/supercap.c ****     // Initialize supercap
  20:control-base/devices/src/supercap.c ****     g_supercap->can_bus = 1;
  21:control-base/devices/src/supercap.c ****     g_supercap->tx_id = 0x2C8;
  22:control-base/devices/src/supercap.c ****     g_supercap->rx_id = 0x2C7;
  23:control-base/devices/src/supercap.c ****     supercap_can_instance =
  24:control-base/devices/src/supercap.c ****         CAN_Device_Register(g_supercap->can_bus, g_supercap->tx_id,
  25:control-base/devices/src/supercap.c ****                             g_supercap->rx_id, Supercap_Decode);
  26:control-base/devices/src/supercap.c **** }
  27:control-base/devices/src/supercap.c **** 
  28:control-base/devices/src/supercap.c **** void Supercap_Decode(CAN_Instance_t *can_instance)
  29:control-base/devices/src/supercap.c **** {
ARM GAS  /var/folders/sg/pxk9dyzj7jz_x3889hx3b3dw0000gn/T//ccoJih7m.s 			page 2


  30              		.loc 1 29 1 view -0
  31              		.cfi_startproc
  32              		@ args = 0, pretend = 0, frame = 0
  33              		@ frame_needed = 0, uses_anonymous_args = 0
  34              		@ link register save eliminated.
  30:control-base/devices/src/supercap.c ****     // Recieve supercap data
  31:control-base/devices/src/supercap.c ****     uint16_t *supercap_rx = (uint16_t *) can_instance->rx_buffer;
  35              		.loc 1 31 5 view .LVU1
  32:control-base/devices/src/supercap.c **** 
  33:control-base/devices/src/supercap.c ****     g_supercap_rx_data.cap_percentage = supercap_rx[0];
  36              		.loc 1 33 5 view .LVU2
  37              		.loc 1 33 52 is_stmt 0 view .LVU3
  38 0000 428A     		ldrh	r2, [r0, #18]
  39              		.loc 1 33 39 view .LVU4
  40 0002 034B     		ldr	r3, .L2
  41 0004 1A80     		strh	r2, [r3]	@ movhi
  34:control-base/devices/src/supercap.c ****     g_supercap_rx_data.reserved1 = 0;
  42              		.loc 1 34 5 is_stmt 1 view .LVU5
  43              		.loc 1 34 34 is_stmt 0 view .LVU6
  44 0006 0022     		movs	r2, #0
  45 0008 5A80     		strh	r2, [r3, #2]	@ movhi
  35:control-base/devices/src/supercap.c ****     g_supercap_rx_data.reserved2 = 0;
  46              		.loc 1 35 5 is_stmt 1 view .LVU7
  47              		.loc 1 35 34 is_stmt 0 view .LVU8
  48 000a 9A80     		strh	r2, [r3, #4]	@ movhi
  36:control-base/devices/src/supercap.c ****     g_supercap_rx_data.reserved3 = 0;
  49              		.loc 1 36 5 is_stmt 1 view .LVU9
  50              		.loc 1 36 34 is_stmt 0 view .LVU10
  51 000c DA80     		strh	r2, [r3, #6]	@ movhi
  37:control-base/devices/src/supercap.c ****     // ! do not read more than 8 bytes from the buffer
  38:control-base/devices/src/supercap.c **** }
  52              		.loc 1 38 1 view .LVU11
  53 000e 7047     		bx	lr
  54              	.L3:
  55              		.align	2
  56              	.L2:
  57 0010 00000000 		.word	g_supercap_rx_data
  58              		.cfi_endproc
  59              	.LFE143:
  61              		.section	.text.Supercap_Init,"ax",%progbits
  62              		.align	1
  63              		.global	Supercap_Init
  64              		.syntax unified
  65              		.thumb
  66              		.thumb_func
  68              	Supercap_Init:
  69              	.LVL1:
  70              	.LFB142:
  18:control-base/devices/src/supercap.c ****     // Initialize supercap
  71              		.loc 1 18 1 is_stmt 1 view -0
  72              		.cfi_startproc
  73              		@ args = 0, pretend = 0, frame = 0
  74              		@ frame_needed = 0, uses_anonymous_args = 0
  18:control-base/devices/src/supercap.c ****     // Initialize supercap
  75              		.loc 1 18 1 is_stmt 0 view .LVU13
  76 0000 08B5     		push	{r3, lr}
  77              	.LCFI0:
ARM GAS  /var/folders/sg/pxk9dyzj7jz_x3889hx3b3dw0000gn/T//ccoJih7m.s 			page 3


  78              		.cfi_def_cfa_offset 8
  79              		.cfi_offset 3, -8
  80              		.cfi_offset 14, -4
  81 0002 0346     		mov	r3, r0
  20:control-base/devices/src/supercap.c ****     g_supercap->tx_id = 0x2C8;
  82              		.loc 1 20 5 is_stmt 1 view .LVU14
  20:control-base/devices/src/supercap.c ****     g_supercap->tx_id = 0x2C8;
  83              		.loc 1 20 25 is_stmt 0 view .LVU15
  84 0004 0120     		movs	r0, #1
  85              	.LVL2:
  20:control-base/devices/src/supercap.c ****     g_supercap->tx_id = 0x2C8;
  86              		.loc 1 20 25 view .LVU16
  87 0006 1870     		strb	r0, [r3]
  21:control-base/devices/src/supercap.c ****     g_supercap->rx_id = 0x2C7;
  88              		.loc 1 21 5 is_stmt 1 view .LVU17
  21:control-base/devices/src/supercap.c ****     g_supercap->rx_id = 0x2C7;
  89              		.loc 1 21 23 is_stmt 0 view .LVU18
  90 0008 4FF43271 		mov	r1, #712
  91 000c 5980     		strh	r1, [r3, #2]	@ movhi
  22:control-base/devices/src/supercap.c ****     supercap_can_instance =
  92              		.loc 1 22 5 is_stmt 1 view .LVU19
  22:control-base/devices/src/supercap.c ****     supercap_can_instance =
  93              		.loc 1 22 23 is_stmt 0 view .LVU20
  94 000e 40F2C722 		movw	r2, #711
  95 0012 9A80     		strh	r2, [r3, #4]	@ movhi
  23:control-base/devices/src/supercap.c ****         CAN_Device_Register(g_supercap->can_bus, g_supercap->tx_id,
  96              		.loc 1 23 5 is_stmt 1 view .LVU21
  24:control-base/devices/src/supercap.c ****                             g_supercap->rx_id, Supercap_Decode);
  97              		.loc 1 24 9 is_stmt 0 view .LVU22
  98 0014 024B     		ldr	r3, .L6
  99              	.LVL3:
  24:control-base/devices/src/supercap.c ****                             g_supercap->rx_id, Supercap_Decode);
 100              		.loc 1 24 9 view .LVU23
 101 0016 FFF7FEFF 		bl	CAN_Device_Register
 102              	.LVL4:
  23:control-base/devices/src/supercap.c ****         CAN_Device_Register(g_supercap->can_bus, g_supercap->tx_id,
 103              		.loc 1 23 27 view .LVU24
 104 001a 024B     		ldr	r3, .L6+4
 105 001c 1860     		str	r0, [r3]
  26:control-base/devices/src/supercap.c **** 
 106              		.loc 1 26 1 view .LVU25
 107 001e 08BD     		pop	{r3, pc}
 108              	.L7:
 109              		.align	2
 110              	.L6:
 111 0020 00000000 		.word	Supercap_Decode
 112 0024 00000000 		.word	supercap_can_instance
 113              		.cfi_endproc
 114              	.LFE142:
 116              		.section	.text.Supercap_Send,"ax",%progbits
 117              		.align	1
 118              		.global	Supercap_Send
 119              		.syntax unified
 120              		.thumb
 121              		.thumb_func
 123              	Supercap_Send:
 124              	.LFB144:
ARM GAS  /var/folders/sg/pxk9dyzj7jz_x3889hx3b3dw0000gn/T//ccoJih7m.s 			page 4


  39:control-base/devices/src/supercap.c **** 
  40:control-base/devices/src/supercap.c **** void Supercap_Send(void)
  41:control-base/devices/src/supercap.c **** {
 125              		.loc 1 41 1 is_stmt 1 view -0
 126              		.cfi_startproc
 127              		@ args = 0, pretend = 0, frame = 0
 128              		@ frame_needed = 0, uses_anonymous_args = 0
 129 0000 08B5     		push	{r3, lr}
 130              	.LCFI1:
 131              		.cfi_def_cfa_offset 8
 132              		.cfi_offset 3, -8
 133              		.cfi_offset 14, -4
  42:control-base/devices/src/supercap.c ****     // Send supercap data
  43:control-base/devices/src/supercap.c ****     uint16_t *supercap_tx = (uint16_t *) supercap_can_instance->tx_buffer;
 134              		.loc 1 43 5 view .LVU27
 135              		.loc 1 43 63 is_stmt 0 view .LVU28
 136 0002 0A4B     		ldr	r3, .L10
 137 0004 1868     		ldr	r0, [r3]
 138              	.LVL5:
  44:control-base/devices/src/supercap.c ****     supercap_tx[0] = Referee_System.Robot_State.Chassis_Power_Max;    // The power limit from the r
 139              		.loc 1 44 5 is_stmt 1 view .LVU29
 140              		.loc 1 44 48 is_stmt 0 view .LVU30
 141 0006 0A4B     		ldr	r3, .L10+4
 142 0008 B3F85B21 		ldrh	r2, [r3, #347]	@ unaligned
 143              		.loc 1 44 20 view .LVU31
 144 000c 4281     		strh	r2, [r0, #10]	@ movhi
  45:control-base/devices/src/supercap.c ****     supercap_tx[1] = (uint16_t) Referee_System.Power_Heat.Chassis_Power;        // the total power 
 145              		.loc 1 45 5 is_stmt 1 view .LVU32
 146              		.loc 1 45 58 is_stmt 0 view .LVU33
 147 000e D3F86231 		ldr	r3, [r3, #354]	@ unaligned
 148              		.loc 1 45 22 view .LVU34
 149 0012 07EE903A 		vmov	s15, r3
 150 0016 FCEEE77A 		vcvt.u32.f32	s15, s15
 151 001a 17EE903A 		vmov	r3, s15	@ int
 152              		.loc 1 45 20 view .LVU35
 153 001e 8381     		strh	r3, [r0, #12]	@ movhi
  46:control-base/devices/src/supercap.c ****     supercap_tx[2] = 0;
 154              		.loc 1 46 5 is_stmt 1 view .LVU36
 155              		.loc 1 46 20 is_stmt 0 view .LVU37
 156 0020 0023     		movs	r3, #0
 157 0022 C381     		strh	r3, [r0, #14]	@ movhi
  47:control-base/devices/src/supercap.c ****     supercap_tx[3] = 0;
 158              		.loc 1 47 5 is_stmt 1 view .LVU38
 159              		.loc 1 47 20 is_stmt 0 view .LVU39
 160 0024 0382     		strh	r3, [r0, #16]	@ movhi
  48:control-base/devices/src/supercap.c ****     // ! do not write more than 8 bytes to the buffer
  49:control-base/devices/src/supercap.c ****     
  50:control-base/devices/src/supercap.c ****     CAN_Transmit(supercap_can_instance);
 161              		.loc 1 50 5 is_stmt 1 view .LVU40
 162 0026 FFF7FEFF 		bl	CAN_Transmit
 163              	.LVL6:
  51:control-base/devices/src/supercap.c **** }...
 164              		.loc 1 51 1 is_stmt 0 view .LVU41
 165 002a 08BD     		pop	{r3, pc}
 166              	.L11:
 167              		.align	2
 168              	.L10:
ARM GAS  /var/folders/sg/pxk9dyzj7jz_x3889hx3b3dw0000gn/T//ccoJih7m.s 			page 5


 169 002c 00000000 		.word	supercap_can_instance
 170 0030 00000000 		.word	Referee_System
 171              		.cfi_endproc
 172              	.LFE144:
 174              		.global	g_supercap_rx_data
 175              		.section	.bss.g_supercap_rx_data,"aw",%nobits
 176              		.align	2
 179              	g_supercap_rx_data:
 180 0000 00000000 		.space	8
 180      00000000 
 181              		.global	supercap_can_instance
 182              		.section	.bss.supercap_can_instance,"aw",%nobits
 183              		.align	2
 186              	supercap_can_instance:
 187 0000 00000000 		.space	4
 188              		.global	g_supercap
 189              		.section	.bss.g_supercap,"aw",%nobits
 190              		.align	2
 193              	g_supercap:
 194 0000 00000000 		.space	10
 194      00000000 
 194      0000
 195              		.text
 196              	.Letext0:
 197              		.file 2 "/Applications/ArmGNUToolchain/14.3.rel1/arm-none-eabi/arm-none-eabi/include/machine/_defa
 198              		.file 3 "/Applications/ArmGNUToolchain/14.3.rel1/arm-none-eabi/arm-none-eabi/include/sys/_stdint.h
 199              		.file 4 "control-base/typec-board-base/Drivers/CMSIS/Device/ST/STM32F4xx/Include/stm32f407xx.h"
 200              		.file 5 "control-base/typec-board-base/Drivers/CMSIS/Device/ST/STM32F4xx/Include/stm32f4xx.h"
 201              		.file 6 "control-base/typec-board-base/Drivers/STM32F4xx_HAL_Driver/Inc/stm32f4xx_hal_def.h"
 202              		.file 7 "control-base/typec-board-base/Drivers/STM32F4xx_HAL_Driver/Inc/stm32f4xx_hal_dma.h"
 203              		.file 8 "control-base/typec-board-base/Drivers/STM32F4xx_HAL_Driver/Inc/stm32f4xx_hal_can.h"
 204              		.file 9 "control-base/typec-board-base/Drivers/STM32F4xx_HAL_Driver/Inc/stm32f4xx_hal_uart.h"
 205              		.file 10 "control-base/bsp/inc/bsp_can.h"
 206              		.file 11 "control-base/devices/inc/referee_system.h"
 207              		.file 12 "control-base/devices/inc/supercap.h"
ARM GAS  /var/folders/sg/pxk9dyzj7jz_x3889hx3b3dw0000gn/T//ccoJih7m.s 			page 6

