ARM GAS  /var/folders/sg/pxk9dyzj7jz_x3889hx3b3dw0000gn/T//cc6LuLar.s 			page 1


   1              		.cpu cortex-m4
   2              		.arch armv7e-m
   3              		.fpu fpv4-sp-d16
   4              		.eabi_attribute 27, 1
   5              		.eabi_attribute 28, 1
   6              		.eabi_attribute 20, 1
   7              		.eabi_attribute 21, 1
   8              		.eabi_attribute 23, 3
   9              		.eabi_attribute 24, 1
  10              		.eabi_attribute 25, 1
  11              		.eabi_attribute 26, 1
  12              		.eabi_attribute 30, 1
  13              		.eabi_attribute 34, 1
  14              		.eabi_attribute 18, 4
  15              		.file	"usart.c"
  16              		.text
  17              	.Ltext0:
  18              		.cfi_sections	.debug_frame
  19              		.file 1 "control-base/typec-board-base/Core/Src/usart.c"
  20              		.section	.text.MX_USART1_UART_Init,"ax",%progbits
  21              		.align	1
  22              		.global	MX_USART1_UART_Init
  23              		.syntax unified
  24              		.thumb
  25              		.thumb_func
  27              	MX_USART1_UART_Init:
  28              	.LFB134:
   1:control-base/typec-board-base/Core/Src/usart.c **** /* USER CODE BEGIN Header */
   2:control-base/typec-board-base/Core/Src/usart.c **** /**
   3:control-base/typec-board-base/Core/Src/usart.c ****   ******************************************************************************
   4:control-base/typec-board-base/Core/Src/usart.c ****   * @file    usart.c
   5:control-base/typec-board-base/Core/Src/usart.c ****   * @brief   This file provides code for the configuration
   6:control-base/typec-board-base/Core/Src/usart.c ****   *          of the USART instances.
   7:control-base/typec-board-base/Core/Src/usart.c ****   ******************************************************************************
   8:control-base/typec-board-base/Core/Src/usart.c ****   * @attention
   9:control-base/typec-board-base/Core/Src/usart.c ****   *
  10:control-base/typec-board-base/Core/Src/usart.c ****   * Copyright (c) 2023 STMicroelectronics.
  11:control-base/typec-board-base/Core/Src/usart.c ****   * All rights reserved.
  12:control-base/typec-board-base/Core/Src/usart.c ****   *
  13:control-base/typec-board-base/Core/Src/usart.c ****   * This software is licensed under terms that can be found in the LICENSE file
  14:control-base/typec-board-base/Core/Src/usart.c ****   * in the root directory of this software component.
  15:control-base/typec-board-base/Core/Src/usart.c ****   * If no LICENSE file comes with this software, it is provided AS-IS.
  16:control-base/typec-board-base/Core/Src/usart.c ****   *
  17:control-base/typec-board-base/Core/Src/usart.c ****   ******************************************************************************
  18:control-base/typec-board-base/Core/Src/usart.c ****   */
  19:control-base/typec-board-base/Core/Src/usart.c **** /* USER CODE END Header */
  20:control-base/typec-board-base/Core/Src/usart.c **** /* Includes ------------------------------------------------------------------*/
  21:control-base/typec-board-base/Core/Src/usart.c **** #include "usart.h"
  22:control-base/typec-board-base/Core/Src/usart.c **** 
  23:control-base/typec-board-base/Core/Src/usart.c **** /* USER CODE BEGIN 0 */
  24:control-base/typec-board-base/Core/Src/usart.c **** /* USER CODE END 0 */
  25:control-base/typec-board-base/Core/Src/usart.c **** 
  26:control-base/typec-board-base/Core/Src/usart.c **** UART_HandleTypeDef huart1;
  27:control-base/typec-board-base/Core/Src/usart.c **** UART_HandleTypeDef huart3;
  28:control-base/typec-board-base/Core/Src/usart.c **** UART_HandleTypeDef huart6;
  29:control-base/typec-board-base/Core/Src/usart.c **** DMA_HandleTypeDef hdma_usart1_rx;
  30:control-base/typec-board-base/Core/Src/usart.c **** DMA_HandleTypeDef hdma_usart1_tx;
ARM GAS  /var/folders/sg/pxk9dyzj7jz_x3889hx3b3dw0000gn/T//cc6LuLar.s 			page 2


  31:control-base/typec-board-base/Core/Src/usart.c **** DMA_HandleTypeDef hdma_usart3_rx;
  32:control-base/typec-board-base/Core/Src/usart.c **** DMA_HandleTypeDef hdma_usart6_rx;
  33:control-base/typec-board-base/Core/Src/usart.c **** DMA_HandleTypeDef hdma_usart6_tx;
  34:control-base/typec-board-base/Core/Src/usart.c **** 
  35:control-base/typec-board-base/Core/Src/usart.c **** /* USART1 init function */
  36:control-base/typec-board-base/Core/Src/usart.c **** 
  37:control-base/typec-board-base/Core/Src/usart.c **** void MX_USART1_UART_Init(void)
  38:control-base/typec-board-base/Core/Src/usart.c **** {
  29              		.loc 1 38 1 view -0
  30              		.cfi_startproc
  31              		@ args = 0, pretend = 0, frame = 0
  32              		@ frame_needed = 0, uses_anonymous_args = 0
  33 0000 08B5     		push	{r3, lr}
  34              	.LCFI0:
  35              		.cfi_def_cfa_offset 8
  36              		.cfi_offset 3, -8
  37              		.cfi_offset 14, -4
  39:control-base/typec-board-base/Core/Src/usart.c **** 
  40:control-base/typec-board-base/Core/Src/usart.c ****   /* USER CODE BEGIN USART1_Init 0 */
  41:control-base/typec-board-base/Core/Src/usart.c **** 
  42:control-base/typec-board-base/Core/Src/usart.c ****   /* USER CODE END USART1_Init 0 */
  43:control-base/typec-board-base/Core/Src/usart.c **** 
  44:control-base/typec-board-base/Core/Src/usart.c ****   /* USER CODE BEGIN USART1_Init 1 */
  45:control-base/typec-board-base/Core/Src/usart.c **** 
  46:control-base/typec-board-base/Core/Src/usart.c ****   /* USER CODE END USART1_Init 1 */
  47:control-base/typec-board-base/Core/Src/usart.c ****   huart1.Instance = USART1;
  38              		.loc 1 47 3 view .LVU1
  39              		.loc 1 47 19 is_stmt 0 view .LVU2
  40 0002 0A48     		ldr	r0, .L5
  41 0004 0A4B     		ldr	r3, .L5+4
  42 0006 0360     		str	r3, [r0]
  48:control-base/typec-board-base/Core/Src/usart.c ****   huart1.Init.BaudRate = 1152000;
  43              		.loc 1 48 3 is_stmt 1 view .LVU3
  44              		.loc 1 48 24 is_stmt 0 view .LVU4
  45 0008 0A4B     		ldr	r3, .L5+8
  46 000a 4360     		str	r3, [r0, #4]
  49:control-base/typec-board-base/Core/Src/usart.c ****   huart1.Init.WordLength = UART_WORDLENGTH_8B;
  47              		.loc 1 49 3 is_stmt 1 view .LVU5
  48              		.loc 1 49 26 is_stmt 0 view .LVU6
  49 000c 0023     		movs	r3, #0
  50 000e 8360     		str	r3, [r0, #8]
  50:control-base/typec-board-base/Core/Src/usart.c ****   huart1.Init.StopBits = UART_STOPBITS_1;
  51              		.loc 1 50 3 is_stmt 1 view .LVU7
  52              		.loc 1 50 24 is_stmt 0 view .LVU8
  53 0010 C360     		str	r3, [r0, #12]
  51:control-base/typec-board-base/Core/Src/usart.c ****   huart1.Init.Parity = UART_PARITY_NONE;
  54              		.loc 1 51 3 is_stmt 1 view .LVU9
  55              		.loc 1 51 22 is_stmt 0 view .LVU10
  56 0012 0361     		str	r3, [r0, #16]
  52:control-base/typec-board-base/Core/Src/usart.c ****   huart1.Init.Mode = UART_MODE_TX_RX;
  57              		.loc 1 52 3 is_stmt 1 view .LVU11
  58              		.loc 1 52 20 is_stmt 0 view .LVU12
  59 0014 0C22     		movs	r2, #12
  60 0016 4261     		str	r2, [r0, #20]
  53:control-base/typec-board-base/Core/Src/usart.c ****   huart1.Init.HwFlowCtl = UART_HWCONTROL_NONE;
  61              		.loc 1 53 3 is_stmt 1 view .LVU13
  62              		.loc 1 53 25 is_stmt 0 view .LVU14
ARM GAS  /var/folders/sg/pxk9dyzj7jz_x3889hx3b3dw0000gn/T//cc6LuLar.s 			page 3


  63 0018 8361     		str	r3, [r0, #24]
  54:control-base/typec-board-base/Core/Src/usart.c ****   huart1.Init.OverSampling = UART_OVERSAMPLING_16;
  64              		.loc 1 54 3 is_stmt 1 view .LVU15
  65              		.loc 1 54 28 is_stmt 0 view .LVU16
  66 001a C361     		str	r3, [r0, #28]
  55:control-base/typec-board-base/Core/Src/usart.c ****   if (HAL_UART_Init(&huart1) != HAL_OK)
  67              		.loc 1 55 3 is_stmt 1 view .LVU17
  68              		.loc 1 55 7 is_stmt 0 view .LVU18
  69 001c FFF7FEFF 		bl	HAL_UART_Init
  70              	.LVL0:
  71              		.loc 1 55 6 discriminator 1 view .LVU19
  72 0020 00B9     		cbnz	r0, .L4
  73              	.L1:
  56:control-base/typec-board-base/Core/Src/usart.c ****   {
  57:control-base/typec-board-base/Core/Src/usart.c ****     Error_Handler();
  58:control-base/typec-board-base/Core/Src/usart.c ****   }
  59:control-base/typec-board-base/Core/Src/usart.c ****   /* USER CODE BEGIN USART1_Init 2 */
  60:control-base/typec-board-base/Core/Src/usart.c **** 
  61:control-base/typec-board-base/Core/Src/usart.c ****   /* USER CODE END USART1_Init 2 */
  62:control-base/typec-board-base/Core/Src/usart.c **** 
  63:control-base/typec-board-base/Core/Src/usart.c **** }
  74              		.loc 1 63 1 view .LVU20
  75 0022 08BD     		pop	{r3, pc}
  76              	.L4:
  57:control-base/typec-board-base/Core/Src/usart.c ****   }
  77              		.loc 1 57 5 is_stmt 1 view .LVU21
  78 0024 FFF7FEFF 		bl	Error_Handler
  79              	.LVL1:
  80              		.loc 1 63 1 is_stmt 0 view .LVU22
  81 0028 FBE7     		b	.L1
  82              	.L6:
  83 002a 00BF     		.align	2
  84              	.L5:
  85 002c 00000000 		.word	huart1
  86 0030 00100140 		.word	1073811456
  87 0034 00941100 		.word	1152000
  88              		.cfi_endproc
  89              	.LFE134:
  91              		.section	.text.MX_USART3_UART_Init,"ax",%progbits
  92              		.align	1
  93              		.global	MX_USART3_UART_Init
  94              		.syntax unified
  95              		.thumb
  96              		.thumb_func
  98              	MX_USART3_UART_Init:
  99              	.LFB135:
  64:control-base/typec-board-base/Core/Src/usart.c **** /* USART3 init function */
  65:control-base/typec-board-base/Core/Src/usart.c **** 
  66:control-base/typec-board-base/Core/Src/usart.c **** void MX_USART3_UART_Init(void)
  67:control-base/typec-board-base/Core/Src/usart.c **** {
 100              		.loc 1 67 1 is_stmt 1 view -0
 101              		.cfi_startproc
 102              		@ args = 0, pretend = 0, frame = 0
 103              		@ frame_needed = 0, uses_anonymous_args = 0
 104 0000 08B5     		push	{r3, lr}
 105              	.LCFI1:
 106              		.cfi_def_cfa_offset 8
ARM GAS  /var/folders/sg/pxk9dyzj7jz_x3889hx3b3dw0000gn/T//cc6LuLar.s 			page 4


 107              		.cfi_offset 3, -8
 108              		.cfi_offset 14, -4
  68:control-base/typec-board-base/Core/Src/usart.c **** 
  69:control-base/typec-board-base/Core/Src/usart.c ****   /* USER CODE BEGIN USART3_Init 0 */
  70:control-base/typec-board-base/Core/Src/usart.c **** 
  71:control-base/typec-board-base/Core/Src/usart.c ****   /* USER CODE END USART3_Init 0 */
  72:control-base/typec-board-base/Core/Src/usart.c **** 
  73:control-base/typec-board-base/Core/Src/usart.c ****   /* USER CODE BEGIN USART3_Init 1 */
  74:control-base/typec-board-base/Core/Src/usart.c **** 
  75:control-base/typec-board-base/Core/Src/usart.c ****   /* USER CODE END USART3_Init 1 */
  76:control-base/typec-board-base/Core/Src/usart.c ****   huart3.Instance = USART3;
 109              		.loc 1 76 3 view .LVU24
 110              		.loc 1 76 19 is_stmt 0 view .LVU25
 111 0002 0C48     		ldr	r0, .L11
 112 0004 0C4B     		ldr	r3, .L11+4
 113 0006 0360     		str	r3, [r0]
  77:control-base/typec-board-base/Core/Src/usart.c ****   huart3.Init.BaudRate = 100000;
 114              		.loc 1 77 3 is_stmt 1 view .LVU26
 115              		.loc 1 77 24 is_stmt 0 view .LVU27
 116 0008 0C4B     		ldr	r3, .L11+8
 117 000a 4360     		str	r3, [r0, #4]
  78:control-base/typec-board-base/Core/Src/usart.c ****   huart3.Init.WordLength = UART_WORDLENGTH_9B;
 118              		.loc 1 78 3 is_stmt 1 view .LVU28
 119              		.loc 1 78 26 is_stmt 0 view .LVU29
 120 000c 4FF48053 		mov	r3, #4096
 121 0010 8360     		str	r3, [r0, #8]
  79:control-base/typec-board-base/Core/Src/usart.c ****   huart3.Init.StopBits = UART_STOPBITS_1;
 122              		.loc 1 79 3 is_stmt 1 view .LVU30
 123              		.loc 1 79 24 is_stmt 0 view .LVU31
 124 0012 0023     		movs	r3, #0
 125 0014 C360     		str	r3, [r0, #12]
  80:control-base/typec-board-base/Core/Src/usart.c ****   huart3.Init.Parity = UART_PARITY_EVEN;
 126              		.loc 1 80 3 is_stmt 1 view .LVU32
 127              		.loc 1 80 22 is_stmt 0 view .LVU33
 128 0016 4FF48062 		mov	r2, #1024
 129 001a 0261     		str	r2, [r0, #16]
  81:control-base/typec-board-base/Core/Src/usart.c ****   huart3.Init.Mode = UART_MODE_RX;
 130              		.loc 1 81 3 is_stmt 1 view .LVU34
 131              		.loc 1 81 20 is_stmt 0 view .LVU35
 132 001c 0422     		movs	r2, #4
 133 001e 4261     		str	r2, [r0, #20]
  82:control-base/typec-board-base/Core/Src/usart.c ****   huart3.Init.HwFlowCtl = UART_HWCONTROL_NONE;
 134              		.loc 1 82 3 is_stmt 1 view .LVU36
 135              		.loc 1 82 25 is_stmt 0 view .LVU37
 136 0020 8361     		str	r3, [r0, #24]
  83:control-base/typec-board-base/Core/Src/usart.c ****   huart3.Init.OverSampling = UART_OVERSAMPLING_16;
 137              		.loc 1 83 3 is_stmt 1 view .LVU38
 138              		.loc 1 83 28 is_stmt 0 view .LVU39
 139 0022 C361     		str	r3, [r0, #28]
  84:control-base/typec-board-base/Core/Src/usart.c ****   if (HAL_UART_Init(&huart3) != HAL_OK)
 140              		.loc 1 84 3 is_stmt 1 view .LVU40
 141              		.loc 1 84 7 is_stmt 0 view .LVU41
 142 0024 FFF7FEFF 		bl	HAL_UART_Init
 143              	.LVL2:
 144              		.loc 1 84 6 discriminator 1 view .LVU42
 145 0028 00B9     		cbnz	r0, .L10
 146              	.L7:
ARM GAS  /var/folders/sg/pxk9dyzj7jz_x3889hx3b3dw0000gn/T//cc6LuLar.s 			page 5


  85:control-base/typec-board-base/Core/Src/usart.c ****   {
  86:control-base/typec-board-base/Core/Src/usart.c ****     Error_Handler();
  87:control-base/typec-board-base/Core/Src/usart.c ****   }
  88:control-base/typec-board-base/Core/Src/usart.c ****   /* USER CODE BEGIN USART3_Init 2 */
  89:control-base/typec-board-base/Core/Src/usart.c **** 
  90:control-base/typec-board-base/Core/Src/usart.c ****   /* USER CODE END USART3_Init 2 */
  91:control-base/typec-board-base/Core/Src/usart.c **** 
  92:control-base/typec-board-base/Core/Src/usart.c **** }
 147              		.loc 1 92 1 view .LVU43
 148 002a 08BD     		pop	{r3, pc}
 149              	.L10:
  86:control-base/typec-board-base/Core/Src/usart.c ****   }
 150              		.loc 1 86 5 is_stmt 1 view .LVU44
 151 002c FFF7FEFF 		bl	Error_Handler
 152              	.LVL3:
 153              		.loc 1 92 1 is_stmt 0 view .LVU45
 154 0030 FBE7     		b	.L7
 155              	.L12:
 156 0032 00BF     		.align	2
 157              	.L11:
 158 0034 00000000 		.word	huart3
 159 0038 00480040 		.word	1073760256
 160 003c A0860100 		.word	100000
 161              		.cfi_endproc
 162              	.LFE135:
 164              		.section	.text.MX_USART6_UART_Init,"ax",%progbits
 165              		.align	1
 166              		.global	MX_USART6_UART_Init
 167              		.syntax unified
 168              		.thumb
 169              		.thumb_func
 171              	MX_USART6_UART_Init:
 172              	.LFB136:
  93:control-base/typec-board-base/Core/Src/usart.c **** /* USART6 init function */
  94:control-base/typec-board-base/Core/Src/usart.c **** 
  95:control-base/typec-board-base/Core/Src/usart.c **** void MX_USART6_UART_Init(void)
  96:control-base/typec-board-base/Core/Src/usart.c **** {
 173              		.loc 1 96 1 is_stmt 1 view -0
 174              		.cfi_startproc
 175              		@ args = 0, pretend = 0, frame = 0
 176              		@ frame_needed = 0, uses_anonymous_args = 0
 177 0000 08B5     		push	{r3, lr}
 178              	.LCFI2:
 179              		.cfi_def_cfa_offset 8
 180              		.cfi_offset 3, -8
 181              		.cfi_offset 14, -4
  97:control-base/typec-board-base/Core/Src/usart.c **** 
  98:control-base/typec-board-base/Core/Src/usart.c ****   /* USER CODE BEGIN USART6_Init 0 */
  99:control-base/typec-board-base/Core/Src/usart.c **** 
 100:control-base/typec-board-base/Core/Src/usart.c ****   /* USER CODE END USART6_Init 0 */
 101:control-base/typec-board-base/Core/Src/usart.c **** 
 102:control-base/typec-board-base/Core/Src/usart.c ****   /* USER CODE BEGIN USART6_Init 1 */
 103:control-base/typec-board-base/Core/Src/usart.c **** 
 104:control-base/typec-board-base/Core/Src/usart.c ****   /* USER CODE END USART6_Init 1 */
 105:control-base/typec-board-base/Core/Src/usart.c ****   huart6.Instance = USART6;
 182              		.loc 1 105 3 view .LVU47
 183              		.loc 1 105 19 is_stmt 0 view .LVU48
ARM GAS  /var/folders/sg/pxk9dyzj7jz_x3889hx3b3dw0000gn/T//cc6LuLar.s 			page 6


 184 0002 0A48     		ldr	r0, .L17
 185 0004 0A4B     		ldr	r3, .L17+4
 186 0006 0360     		str	r3, [r0]
 106:control-base/typec-board-base/Core/Src/usart.c ****   huart6.Init.BaudRate = 115200;
 187              		.loc 1 106 3 is_stmt 1 view .LVU49
 188              		.loc 1 106 24 is_stmt 0 view .LVU50
 189 0008 4FF4E133 		mov	r3, #115200
 190 000c 4360     		str	r3, [r0, #4]
 107:control-base/typec-board-base/Core/Src/usart.c ****   huart6.Init.WordLength = UART_WORDLENGTH_8B;
 191              		.loc 1 107 3 is_stmt 1 view .LVU51
 192              		.loc 1 107 26 is_stmt 0 view .LVU52
 193 000e 0023     		movs	r3, #0
 194 0010 8360     		str	r3, [r0, #8]
 108:control-base/typec-board-base/Core/Src/usart.c ****   huart6.Init.StopBits = UART_STOPBITS_1;
 195              		.loc 1 108 3 is_stmt 1 view .LVU53
 196              		.loc 1 108 24 is_stmt 0 view .LVU54
 197 0012 C360     		str	r3, [r0, #12]
 109:control-base/typec-board-base/Core/Src/usart.c ****   huart6.Init.Parity = UART_PARITY_NONE;
 198              		.loc 1 109 3 is_stmt 1 view .LVU55
 199              		.loc 1 109 22 is_stmt 0 view .LVU56
 200 0014 0361     		str	r3, [r0, #16]
 110:control-base/typec-board-base/Core/Src/usart.c ****   huart6.Init.Mode = UART_MODE_TX_RX;
 201              		.loc 1 110 3 is_stmt 1 view .LVU57
 202              		.loc 1 110 20 is_stmt 0 view .LVU58
 203 0016 0C22     		movs	r2, #12
 204 0018 4261     		str	r2, [r0, #20]
 111:control-base/typec-board-base/Core/Src/usart.c ****   huart6.Init.HwFlowCtl = UART_HWCONTROL_NONE;
 205              		.loc 1 111 3 is_stmt 1 view .LVU59
 206              		.loc 1 111 25 is_stmt 0 view .LVU60
 207 001a 8361     		str	r3, [r0, #24]
 112:control-base/typec-board-base/Core/Src/usart.c ****   huart6.Init.OverSampling = UART_OVERSAMPLING_16;
 208              		.loc 1 112 3 is_stmt 1 view .LVU61
 209              		.loc 1 112 28 is_stmt 0 view .LVU62
 210 001c C361     		str	r3, [r0, #28]
 113:control-base/typec-board-base/Core/Src/usart.c ****   if (HAL_UART_Init(&huart6) != HAL_OK)
 211              		.loc 1 113 3 is_stmt 1 view .LVU63
 212              		.loc 1 113 7 is_stmt 0 view .LVU64
 213 001e FFF7FEFF 		bl	HAL_UART_Init
 214              	.LVL4:
 215              		.loc 1 113 6 discriminator 1 view .LVU65
 216 0022 00B9     		cbnz	r0, .L16
 217              	.L13:
 114:control-base/typec-board-base/Core/Src/usart.c ****   {
 115:control-base/typec-board-base/Core/Src/usart.c ****     Error_Handler();
 116:control-base/typec-board-base/Core/Src/usart.c ****   }
 117:control-base/typec-board-base/Core/Src/usart.c ****   /* USER CODE BEGIN USART6_Init 2 */
 118:control-base/typec-board-base/Core/Src/usart.c **** 
 119:control-base/typec-board-base/Core/Src/usart.c ****   /* USER CODE END USART6_Init 2 */
 120:control-base/typec-board-base/Core/Src/usart.c **** 
 121:control-base/typec-board-base/Core/Src/usart.c **** }
 218              		.loc 1 121 1 view .LVU66
 219 0024 08BD     		pop	{r3, pc}
 220              	.L16:
 115:control-base/typec-board-base/Core/Src/usart.c ****   }
 221              		.loc 1 115 5 is_stmt 1 view .LVU67
 222 0026 FFF7FEFF 		bl	Error_Handler
 223              	.LVL5:
ARM GAS  /var/folders/sg/pxk9dyzj7jz_x3889hx3b3dw0000gn/T//cc6LuLar.s 			page 7


 224              		.loc 1 121 1 is_stmt 0 view .LVU68
 225 002a FBE7     		b	.L13
 226              	.L18:
 227              		.align	2
 228              	.L17:
 229 002c 00000000 		.word	huart6
 230 0030 00140140 		.word	1073812480
 231              		.cfi_endproc
 232              	.LFE136:
 234              		.section	.text.HAL_UART_MspInit,"ax",%progbits
 235              		.align	1
 236              		.global	HAL_UART_MspInit
 237              		.syntax unified
 238              		.thumb
 239              		.thumb_func
 241              	HAL_UART_MspInit:
 242              	.LVL6:
 243              	.LFB137:
 122:control-base/typec-board-base/Core/Src/usart.c **** 
 123:control-base/typec-board-base/Core/Src/usart.c **** void HAL_UART_MspInit(UART_HandleTypeDef* uartHandle)
 124:control-base/typec-board-base/Core/Src/usart.c **** {
 244              		.loc 1 124 1 is_stmt 1 view -0
 245              		.cfi_startproc
 246              		@ args = 0, pretend = 0, frame = 48
 247              		@ frame_needed = 0, uses_anonymous_args = 0
 248              		.loc 1 124 1 is_stmt 0 view .LVU70
 249 0000 2DE9F043 		push	{r4, r5, r6, r7, r8, r9, lr}
 250              	.LCFI3:
 251              		.cfi_def_cfa_offset 28
 252              		.cfi_offset 4, -28
 253              		.cfi_offset 5, -24
 254              		.cfi_offset 6, -20
 255              		.cfi_offset 7, -16
 256              		.cfi_offset 8, -12
 257              		.cfi_offset 9, -8
 258              		.cfi_offset 14, -4
 259 0004 8DB0     		sub	sp, sp, #52
 260              	.LCFI4:
 261              		.cfi_def_cfa_offset 80
 262 0006 0446     		mov	r4, r0
 125:control-base/typec-board-base/Core/Src/usart.c **** 
 126:control-base/typec-board-base/Core/Src/usart.c ****   GPIO_InitTypeDef GPIO_InitStruct = {0};
 263              		.loc 1 126 3 is_stmt 1 view .LVU71
 264              		.loc 1 126 20 is_stmt 0 view .LVU72
 265 0008 0023     		movs	r3, #0
 266 000a 0793     		str	r3, [sp, #28]
 267 000c 0893     		str	r3, [sp, #32]
 268 000e 0993     		str	r3, [sp, #36]
 269 0010 0A93     		str	r3, [sp, #40]
 270 0012 0B93     		str	r3, [sp, #44]
 127:control-base/typec-board-base/Core/Src/usart.c ****   if(uartHandle->Instance==USART1)
 271              		.loc 1 127 3 is_stmt 1 view .LVU73
 272              		.loc 1 127 16 is_stmt 0 view .LVU74
 273 0014 0368     		ldr	r3, [r0]
 274              		.loc 1 127 5 view .LVU75
 275 0016 9A4A     		ldr	r2, .L37
 276 0018 9342     		cmp	r3, r2
ARM GAS  /var/folders/sg/pxk9dyzj7jz_x3889hx3b3dw0000gn/T//cc6LuLar.s 			page 8


 277 001a 0AD0     		beq	.L29
 128:control-base/typec-board-base/Core/Src/usart.c ****   {
 129:control-base/typec-board-base/Core/Src/usart.c ****   /* USER CODE BEGIN USART1_MspInit 0 */
 130:control-base/typec-board-base/Core/Src/usart.c **** 
 131:control-base/typec-board-base/Core/Src/usart.c ****   /* USER CODE END USART1_MspInit 0 */
 132:control-base/typec-board-base/Core/Src/usart.c ****     /* USART1 clock enable */
 133:control-base/typec-board-base/Core/Src/usart.c ****     __HAL_RCC_USART1_CLK_ENABLE();
 134:control-base/typec-board-base/Core/Src/usart.c **** 
 135:control-base/typec-board-base/Core/Src/usart.c ****     __HAL_RCC_GPIOB_CLK_ENABLE();
 136:control-base/typec-board-base/Core/Src/usart.c ****     __HAL_RCC_GPIOA_CLK_ENABLE();
 137:control-base/typec-board-base/Core/Src/usart.c ****     /**USART1 GPIO Configuration
 138:control-base/typec-board-base/Core/Src/usart.c ****     PB7     ------> USART1_RX
 139:control-base/typec-board-base/Core/Src/usart.c ****     PA9     ------> USART1_TX
 140:control-base/typec-board-base/Core/Src/usart.c ****     */
 141:control-base/typec-board-base/Core/Src/usart.c ****     GPIO_InitStruct.Pin = GPIO_PIN_7;
 142:control-base/typec-board-base/Core/Src/usart.c ****     GPIO_InitStruct.Mode = GPIO_MODE_AF_PP;
 143:control-base/typec-board-base/Core/Src/usart.c ****     GPIO_InitStruct.Pull = GPIO_NOPULL;
 144:control-base/typec-board-base/Core/Src/usart.c ****     GPIO_InitStruct.Speed = GPIO_SPEED_FREQ_VERY_HIGH;
 145:control-base/typec-board-base/Core/Src/usart.c ****     GPIO_InitStruct.Alternate = GPIO_AF7_USART1;
 146:control-base/typec-board-base/Core/Src/usart.c ****     HAL_GPIO_Init(GPIOB, &GPIO_InitStruct);
 147:control-base/typec-board-base/Core/Src/usart.c **** 
 148:control-base/typec-board-base/Core/Src/usart.c ****     GPIO_InitStruct.Pin = GPIO_PIN_9;
 149:control-base/typec-board-base/Core/Src/usart.c ****     GPIO_InitStruct.Mode = GPIO_MODE_AF_PP;
 150:control-base/typec-board-base/Core/Src/usart.c ****     GPIO_InitStruct.Pull = GPIO_NOPULL;
 151:control-base/typec-board-base/Core/Src/usart.c ****     GPIO_InitStruct.Speed = GPIO_SPEED_FREQ_VERY_HIGH;
 152:control-base/typec-board-base/Core/Src/usart.c ****     GPIO_InitStruct.Alternate = GPIO_AF7_USART1;
 153:control-base/typec-board-base/Core/Src/usart.c ****     HAL_GPIO_Init(GPIOA, &GPIO_InitStruct);
 154:control-base/typec-board-base/Core/Src/usart.c **** 
 155:control-base/typec-board-base/Core/Src/usart.c ****     /* USART1 DMA Init */
 156:control-base/typec-board-base/Core/Src/usart.c ****     /* USART1_RX Init */
 157:control-base/typec-board-base/Core/Src/usart.c ****     hdma_usart1_rx.Instance = DMA2_Stream5;
 158:control-base/typec-board-base/Core/Src/usart.c ****     hdma_usart1_rx.Init.Channel = DMA_CHANNEL_4;
 159:control-base/typec-board-base/Core/Src/usart.c ****     hdma_usart1_rx.Init.Direction = DMA_PERIPH_TO_MEMORY;
 160:control-base/typec-board-base/Core/Src/usart.c ****     hdma_usart1_rx.Init.PeriphInc = DMA_PINC_DISABLE;
 161:control-base/typec-board-base/Core/Src/usart.c ****     hdma_usart1_rx.Init.MemInc = DMA_MINC_ENABLE;
 162:control-base/typec-board-base/Core/Src/usart.c ****     hdma_usart1_rx.Init.PeriphDataAlignment = DMA_PDATAALIGN_BYTE;
 163:control-base/typec-board-base/Core/Src/usart.c ****     hdma_usart1_rx.Init.MemDataAlignment = DMA_MDATAALIGN_BYTE;
 164:control-base/typec-board-base/Core/Src/usart.c ****     hdma_usart1_rx.Init.Mode = DMA_CIRCULAR;
 165:control-base/typec-board-base/Core/Src/usart.c ****     hdma_usart1_rx.Init.Priority = DMA_PRIORITY_LOW;
 166:control-base/typec-board-base/Core/Src/usart.c ****     hdma_usart1_rx.Init.FIFOMode = DMA_FIFOMODE_DISABLE;
 167:control-base/typec-board-base/Core/Src/usart.c ****     if (HAL_DMA_Init(&hdma_usart1_rx) != HAL_OK)
 168:control-base/typec-board-base/Core/Src/usart.c ****     {
 169:control-base/typec-board-base/Core/Src/usart.c ****       Error_Handler();
 170:control-base/typec-board-base/Core/Src/usart.c ****     }
 171:control-base/typec-board-base/Core/Src/usart.c **** 
 172:control-base/typec-board-base/Core/Src/usart.c ****     __HAL_LINKDMA(uartHandle,hdmarx,hdma_usart1_rx);
 173:control-base/typec-board-base/Core/Src/usart.c **** 
 174:control-base/typec-board-base/Core/Src/usart.c ****     /* USART1_TX Init */
 175:control-base/typec-board-base/Core/Src/usart.c ****     hdma_usart1_tx.Instance = DMA2_Stream7;
 176:control-base/typec-board-base/Core/Src/usart.c ****     hdma_usart1_tx.Init.Channel = DMA_CHANNEL_4;
 177:control-base/typec-board-base/Core/Src/usart.c ****     hdma_usart1_tx.Init.Direction = DMA_MEMORY_TO_PERIPH;
 178:control-base/typec-board-base/Core/Src/usart.c ****     hdma_usart1_tx.Init.PeriphInc = DMA_PINC_DISABLE;
 179:control-base/typec-board-base/Core/Src/usart.c ****     hdma_usart1_tx.Init.MemInc = DMA_MINC_ENABLE;
 180:control-base/typec-board-base/Core/Src/usart.c ****     hdma_usart1_tx.Init.PeriphDataAlignment = DMA_PDATAALIGN_BYTE;
 181:control-base/typec-board-base/Core/Src/usart.c ****     hdma_usart1_tx.Init.MemDataAlignment = DMA_MDATAALIGN_BYTE;
 182:control-base/typec-board-base/Core/Src/usart.c ****     hdma_usart1_tx.Init.Mode = DMA_NORMAL;
 183:control-base/typec-board-base/Core/Src/usart.c ****     hdma_usart1_tx.Init.Priority = DMA_PRIORITY_LOW;
ARM GAS  /var/folders/sg/pxk9dyzj7jz_x3889hx3b3dw0000gn/T//cc6LuLar.s 			page 9


 184:control-base/typec-board-base/Core/Src/usart.c ****     hdma_usart1_tx.Init.FIFOMode = DMA_FIFOMODE_DISABLE;
 185:control-base/typec-board-base/Core/Src/usart.c ****     if (HAL_DMA_Init(&hdma_usart1_tx) != HAL_OK)
 186:control-base/typec-board-base/Core/Src/usart.c ****     {
 187:control-base/typec-board-base/Core/Src/usart.c ****       Error_Handler();
 188:control-base/typec-board-base/Core/Src/usart.c ****     }
 189:control-base/typec-board-base/Core/Src/usart.c **** 
 190:control-base/typec-board-base/Core/Src/usart.c ****     __HAL_LINKDMA(uartHandle,hdmatx,hdma_usart1_tx);
 191:control-base/typec-board-base/Core/Src/usart.c **** 
 192:control-base/typec-board-base/Core/Src/usart.c ****     /* USART1 interrupt Init */
 193:control-base/typec-board-base/Core/Src/usart.c ****     HAL_NVIC_SetPriority(USART1_IRQn, 5, 0);
 194:control-base/typec-board-base/Core/Src/usart.c ****     HAL_NVIC_EnableIRQ(USART1_IRQn);
 195:control-base/typec-board-base/Core/Src/usart.c ****   /* USER CODE BEGIN USART1_MspInit 1 */
 196:control-base/typec-board-base/Core/Src/usart.c **** 
 197:control-base/typec-board-base/Core/Src/usart.c ****   /* USER CODE END USART1_MspInit 1 */
 198:control-base/typec-board-base/Core/Src/usart.c ****   }
 199:control-base/typec-board-base/Core/Src/usart.c ****   else if(uartHandle->Instance==USART3)
 278              		.loc 1 199 8 is_stmt 1 view .LVU76
 279              		.loc 1 199 10 is_stmt 0 view .LVU77
 280 001c 994A     		ldr	r2, .L37+4
 281 001e 9342     		cmp	r3, r2
 282 0020 00F08480 		beq	.L30
 200:control-base/typec-board-base/Core/Src/usart.c ****   {
 201:control-base/typec-board-base/Core/Src/usart.c ****   /* USER CODE BEGIN USART3_MspInit 0 */
 202:control-base/typec-board-base/Core/Src/usart.c **** 
 203:control-base/typec-board-base/Core/Src/usart.c ****   /* USER CODE END USART3_MspInit 0 */
 204:control-base/typec-board-base/Core/Src/usart.c ****     /* USART3 clock enable */
 205:control-base/typec-board-base/Core/Src/usart.c ****     __HAL_RCC_USART3_CLK_ENABLE();
 206:control-base/typec-board-base/Core/Src/usart.c **** 
 207:control-base/typec-board-base/Core/Src/usart.c ****     __HAL_RCC_GPIOC_CLK_ENABLE();
 208:control-base/typec-board-base/Core/Src/usart.c ****     /**USART3 GPIO Configuration
 209:control-base/typec-board-base/Core/Src/usart.c ****     PC11     ------> USART3_RX
 210:control-base/typec-board-base/Core/Src/usart.c ****     PC10     ------> USART3_TX
 211:control-base/typec-board-base/Core/Src/usart.c ****     */
 212:control-base/typec-board-base/Core/Src/usart.c ****     GPIO_InitStruct.Pin = GPIO_PIN_11|GPIO_PIN_10;
 213:control-base/typec-board-base/Core/Src/usart.c ****     GPIO_InitStruct.Mode = GPIO_MODE_AF_PP;
 214:control-base/typec-board-base/Core/Src/usart.c ****     GPIO_InitStruct.Pull = GPIO_NOPULL;
 215:control-base/typec-board-base/Core/Src/usart.c ****     GPIO_InitStruct.Speed = GPIO_SPEED_FREQ_VERY_HIGH;
 216:control-base/typec-board-base/Core/Src/usart.c ****     GPIO_InitStruct.Alternate = GPIO_AF7_USART3;
 217:control-base/typec-board-base/Core/Src/usart.c ****     HAL_GPIO_Init(GPIOC, &GPIO_InitStruct);
 218:control-base/typec-board-base/Core/Src/usart.c **** 
 219:control-base/typec-board-base/Core/Src/usart.c ****     /* USART3 DMA Init */
 220:control-base/typec-board-base/Core/Src/usart.c ****     /* USART3_RX Init */
 221:control-base/typec-board-base/Core/Src/usart.c ****     hdma_usart3_rx.Instance = DMA1_Stream1;
 222:control-base/typec-board-base/Core/Src/usart.c ****     hdma_usart3_rx.Init.Channel = DMA_CHANNEL_4;
 223:control-base/typec-board-base/Core/Src/usart.c ****     hdma_usart3_rx.Init.Direction = DMA_PERIPH_TO_MEMORY;
 224:control-base/typec-board-base/Core/Src/usart.c ****     hdma_usart3_rx.Init.PeriphInc = DMA_PINC_DISABLE;
 225:control-base/typec-board-base/Core/Src/usart.c ****     hdma_usart3_rx.Init.MemInc = DMA_MINC_ENABLE;
 226:control-base/typec-board-base/Core/Src/usart.c ****     hdma_usart3_rx.Init.PeriphDataAlignment = DMA_PDATAALIGN_BYTE;
 227:control-base/typec-board-base/Core/Src/usart.c ****     hdma_usart3_rx.Init.MemDataAlignment = DMA_MDATAALIGN_BYTE;
 228:control-base/typec-board-base/Core/Src/usart.c ****     hdma_usart3_rx.Init.Mode = DMA_NORMAL;
 229:control-base/typec-board-base/Core/Src/usart.c ****     hdma_usart3_rx.Init.Priority = DMA_PRIORITY_VERY_HIGH;
 230:control-base/typec-board-base/Core/Src/usart.c ****     hdma_usart3_rx.Init.FIFOMode = DMA_FIFOMODE_DISABLE;
 231:control-base/typec-board-base/Core/Src/usart.c ****     if (HAL_DMA_Init(&hdma_usart3_rx) != HAL_OK)
 232:control-base/typec-board-base/Core/Src/usart.c ****     {
 233:control-base/typec-board-base/Core/Src/usart.c ****       Error_Handler();
 234:control-base/typec-board-base/Core/Src/usart.c ****     }
 235:control-base/typec-board-base/Core/Src/usart.c **** 
ARM GAS  /var/folders/sg/pxk9dyzj7jz_x3889hx3b3dw0000gn/T//cc6LuLar.s 			page 10


 236:control-base/typec-board-base/Core/Src/usart.c ****     __HAL_LINKDMA(uartHandle,hdmarx,hdma_usart3_rx);
 237:control-base/typec-board-base/Core/Src/usart.c **** 
 238:control-base/typec-board-base/Core/Src/usart.c ****     /* USART3 interrupt Init */
 239:control-base/typec-board-base/Core/Src/usart.c ****     HAL_NVIC_SetPriority(USART3_IRQn, 5, 0);
 240:control-base/typec-board-base/Core/Src/usart.c ****     HAL_NVIC_EnableIRQ(USART3_IRQn);
 241:control-base/typec-board-base/Core/Src/usart.c ****   /* USER CODE BEGIN USART3_MspInit 1 */
 242:control-base/typec-board-base/Core/Src/usart.c **** 
 243:control-base/typec-board-base/Core/Src/usart.c ****   /* USER CODE END USART3_MspInit 1 */
 244:control-base/typec-board-base/Core/Src/usart.c ****   }
 245:control-base/typec-board-base/Core/Src/usart.c ****   else if(uartHandle->Instance==USART6)
 283              		.loc 1 245 8 is_stmt 1 view .LVU78
 284              		.loc 1 245 10 is_stmt 0 view .LVU79
 285 0024 984A     		ldr	r2, .L37+8
 286 0026 9342     		cmp	r3, r2
 287 0028 00F0C780 		beq	.L31
 288              	.LVL7:
 289              	.L19:
 246:control-base/typec-board-base/Core/Src/usart.c ****   {
 247:control-base/typec-board-base/Core/Src/usart.c ****   /* USER CODE BEGIN USART6_MspInit 0 */
 248:control-base/typec-board-base/Core/Src/usart.c **** 
 249:control-base/typec-board-base/Core/Src/usart.c ****   /* USER CODE END USART6_MspInit 0 */
 250:control-base/typec-board-base/Core/Src/usart.c ****     /* USART6 clock enable */
 251:control-base/typec-board-base/Core/Src/usart.c ****     __HAL_RCC_USART6_CLK_ENABLE();
 252:control-base/typec-board-base/Core/Src/usart.c **** 
 253:control-base/typec-board-base/Core/Src/usart.c ****     __HAL_RCC_GPIOG_CLK_ENABLE();
 254:control-base/typec-board-base/Core/Src/usart.c ****     /**USART6 GPIO Configuration
 255:control-base/typec-board-base/Core/Src/usart.c ****     PG14     ------> USART6_TX
 256:control-base/typec-board-base/Core/Src/usart.c ****     PG9     ------> USART6_RX
 257:control-base/typec-board-base/Core/Src/usart.c ****     */
 258:control-base/typec-board-base/Core/Src/usart.c ****     GPIO_InitStruct.Pin = GPIO_PIN_14|GPIO_PIN_9;
 259:control-base/typec-board-base/Core/Src/usart.c ****     GPIO_InitStruct.Mode = GPIO_MODE_AF_PP;
 260:control-base/typec-board-base/Core/Src/usart.c ****     GPIO_InitStruct.Pull = GPIO_NOPULL;
 261:control-base/typec-board-base/Core/Src/usart.c ****     GPIO_InitStruct.Speed = GPIO_SPEED_FREQ_VERY_HIGH;
 262:control-base/typec-board-base/Core/Src/usart.c ****     GPIO_InitStruct.Alternate = GPIO_AF8_USART6;
 263:control-base/typec-board-base/Core/Src/usart.c ****     HAL_GPIO_Init(GPIOG, &GPIO_InitStruct);
 264:control-base/typec-board-base/Core/Src/usart.c **** 
 265:control-base/typec-board-base/Core/Src/usart.c ****     /* USART6 DMA Init */
 266:control-base/typec-board-base/Core/Src/usart.c ****     /* USART6_RX Init */
 267:control-base/typec-board-base/Core/Src/usart.c ****     hdma_usart6_rx.Instance = DMA2_Stream1;
 268:control-base/typec-board-base/Core/Src/usart.c ****     hdma_usart6_rx.Init.Channel = DMA_CHANNEL_5;
 269:control-base/typec-board-base/Core/Src/usart.c ****     hdma_usart6_rx.Init.Direction = DMA_PERIPH_TO_MEMORY;
 270:control-base/typec-board-base/Core/Src/usart.c ****     hdma_usart6_rx.Init.PeriphInc = DMA_PINC_DISABLE;
 271:control-base/typec-board-base/Core/Src/usart.c ****     hdma_usart6_rx.Init.MemInc = DMA_MINC_ENABLE;
 272:control-base/typec-board-base/Core/Src/usart.c ****     hdma_usart6_rx.Init.PeriphDataAlignment = DMA_PDATAALIGN_BYTE;
 273:control-base/typec-board-base/Core/Src/usart.c ****     hdma_usart6_rx.Init.MemDataAlignment = DMA_MDATAALIGN_BYTE;
 274:control-base/typec-board-base/Core/Src/usart.c ****     hdma_usart6_rx.Init.Mode = DMA_CIRCULAR;
 275:control-base/typec-board-base/Core/Src/usart.c ****     hdma_usart6_rx.Init.Priority = DMA_PRIORITY_LOW;
 276:control-base/typec-board-base/Core/Src/usart.c ****     hdma_usart6_rx.Init.FIFOMode = DMA_FIFOMODE_DISABLE;
 277:control-base/typec-board-base/Core/Src/usart.c ****     if (HAL_DMA_Init(&hdma_usart6_rx) != HAL_OK)
 278:control-base/typec-board-base/Core/Src/usart.c ****     {
 279:control-base/typec-board-base/Core/Src/usart.c ****       Error_Handler();
 280:control-base/typec-board-base/Core/Src/usart.c ****     }
 281:control-base/typec-board-base/Core/Src/usart.c **** 
 282:control-base/typec-board-base/Core/Src/usart.c ****     __HAL_LINKDMA(uartHandle,hdmarx,hdma_usart6_rx);
 283:control-base/typec-board-base/Core/Src/usart.c **** 
 284:control-base/typec-board-base/Core/Src/usart.c ****     /* USART6_TX Init */
 285:control-base/typec-board-base/Core/Src/usart.c ****     hdma_usart6_tx.Instance = DMA2_Stream6;
ARM GAS  /var/folders/sg/pxk9dyzj7jz_x3889hx3b3dw0000gn/T//cc6LuLar.s 			page 11


 286:control-base/typec-board-base/Core/Src/usart.c ****     hdma_usart6_tx.Init.Channel = DMA_CHANNEL_5;
 287:control-base/typec-board-base/Core/Src/usart.c ****     hdma_usart6_tx.Init.Direction = DMA_MEMORY_TO_PERIPH;
 288:control-base/typec-board-base/Core/Src/usart.c ****     hdma_usart6_tx.Init.PeriphInc = DMA_PINC_DISABLE;
 289:control-base/typec-board-base/Core/Src/usart.c ****     hdma_usart6_tx.Init.MemInc = DMA_MINC_ENABLE;
 290:control-base/typec-board-base/Core/Src/usart.c ****     hdma_usart6_tx.Init.PeriphDataAlignment = DMA_PDATAALIGN_BYTE;
 291:control-base/typec-board-base/Core/Src/usart.c ****     hdma_usart6_tx.Init.MemDataAlignment = DMA_MDATAALIGN_BYTE;
 292:control-base/typec-board-base/Core/Src/usart.c ****     hdma_usart6_tx.Init.Mode = DMA_NORMAL;
 293:control-base/typec-board-base/Core/Src/usart.c ****     hdma_usart6_tx.Init.Priority = DMA_PRIORITY_LOW;
 294:control-base/typec-board-base/Core/Src/usart.c ****     hdma_usart6_tx.Init.FIFOMode = DMA_FIFOMODE_DISABLE;
 295:control-base/typec-board-base/Core/Src/usart.c ****     if (HAL_DMA_Init(&hdma_usart6_tx) != HAL_OK)
 296:control-base/typec-board-base/Core/Src/usart.c ****     {
 297:control-base/typec-board-base/Core/Src/usart.c ****       Error_Handler();
 298:control-base/typec-board-base/Core/Src/usart.c ****     }
 299:control-base/typec-board-base/Core/Src/usart.c **** 
 300:control-base/typec-board-base/Core/Src/usart.c ****     __HAL_LINKDMA(uartHandle,hdmatx,hdma_usart6_tx);
 301:control-base/typec-board-base/Core/Src/usart.c **** 
 302:control-base/typec-board-base/Core/Src/usart.c ****     /* USART6 interrupt Init */
 303:control-base/typec-board-base/Core/Src/usart.c ****     HAL_NVIC_SetPriority(USART6_IRQn, 5, 0);
 304:control-base/typec-board-base/Core/Src/usart.c ****     HAL_NVIC_EnableIRQ(USART6_IRQn);
 305:control-base/typec-board-base/Core/Src/usart.c ****   /* USER CODE BEGIN USART6_MspInit 1 */
 306:control-base/typec-board-base/Core/Src/usart.c **** 
 307:control-base/typec-board-base/Core/Src/usart.c ****   /* USER CODE END USART6_MspInit 1 */
 308:control-base/typec-board-base/Core/Src/usart.c ****   }
 309:control-base/typec-board-base/Core/Src/usart.c **** }
 290              		.loc 1 309 1 view .LVU80
 291 002c 0DB0     		add	sp, sp, #52
 292              	.LCFI5:
 293              		.cfi_remember_state
 294              		.cfi_def_cfa_offset 28
 295              		@ sp needed
 296 002e BDE8F083 		pop	{r4, r5, r6, r7, r8, r9, pc}
 297              	.LVL8:
 298              	.L29:
 299              	.LCFI6:
 300              		.cfi_restore_state
 133:control-base/typec-board-base/Core/Src/usart.c **** 
 301              		.loc 1 133 5 is_stmt 1 view .LVU81
 302              	.LBB2:
 133:control-base/typec-board-base/Core/Src/usart.c **** 
 303              		.loc 1 133 5 view .LVU82
 304 0032 0025     		movs	r5, #0
 305 0034 0095     		str	r5, [sp]
 133:control-base/typec-board-base/Core/Src/usart.c **** 
 306              		.loc 1 133 5 view .LVU83
 307 0036 954B     		ldr	r3, .L37+12
 308 0038 5A6C     		ldr	r2, [r3, #68]
 309 003a 42F01002 		orr	r2, r2, #16
 310 003e 5A64     		str	r2, [r3, #68]
 133:control-base/typec-board-base/Core/Src/usart.c **** 
 311              		.loc 1 133 5 view .LVU84
 312 0040 5A6C     		ldr	r2, [r3, #68]
 313 0042 02F01002 		and	r2, r2, #16
 314 0046 0092     		str	r2, [sp]
 133:control-base/typec-board-base/Core/Src/usart.c **** 
 315              		.loc 1 133 5 view .LVU85
 316 0048 009A     		ldr	r2, [sp]
 317              	.LBE2:
ARM GAS  /var/folders/sg/pxk9dyzj7jz_x3889hx3b3dw0000gn/T//cc6LuLar.s 			page 12


 133:control-base/typec-board-base/Core/Src/usart.c **** 
 318              		.loc 1 133 5 view .LVU86
 135:control-base/typec-board-base/Core/Src/usart.c ****     __HAL_RCC_GPIOA_CLK_ENABLE();
 319              		.loc 1 135 5 view .LVU87
 320              	.LBB3:
 135:control-base/typec-board-base/Core/Src/usart.c ****     __HAL_RCC_GPIOA_CLK_ENABLE();
 321              		.loc 1 135 5 view .LVU88
 322 004a 0195     		str	r5, [sp, #4]
 135:control-base/typec-board-base/Core/Src/usart.c ****     __HAL_RCC_GPIOA_CLK_ENABLE();
 323              		.loc 1 135 5 view .LVU89
 324 004c 1A6B     		ldr	r2, [r3, #48]
 325 004e 42F00202 		orr	r2, r2, #2
 326 0052 1A63     		str	r2, [r3, #48]
 135:control-base/typec-board-base/Core/Src/usart.c ****     __HAL_RCC_GPIOA_CLK_ENABLE();
 327              		.loc 1 135 5 view .LVU90
 328 0054 1A6B     		ldr	r2, [r3, #48]
 329 0056 02F00202 		and	r2, r2, #2
 330 005a 0192     		str	r2, [sp, #4]
 135:control-base/typec-board-base/Core/Src/usart.c ****     __HAL_RCC_GPIOA_CLK_ENABLE();
 331              		.loc 1 135 5 view .LVU91
 332 005c 019A     		ldr	r2, [sp, #4]
 333              	.LBE3:
 135:control-base/typec-board-base/Core/Src/usart.c ****     __HAL_RCC_GPIOA_CLK_ENABLE();
 334              		.loc 1 135 5 view .LVU92
 136:control-base/typec-board-base/Core/Src/usart.c ****     /**USART1 GPIO Configuration
 335              		.loc 1 136 5 view .LVU93
 336              	.LBB4:
 136:control-base/typec-board-base/Core/Src/usart.c ****     /**USART1 GPIO Configuration
 337              		.loc 1 136 5 view .LVU94
 338 005e 0295     		str	r5, [sp, #8]
 136:control-base/typec-board-base/Core/Src/usart.c ****     /**USART1 GPIO Configuration
 339              		.loc 1 136 5 view .LVU95
 340 0060 1A6B     		ldr	r2, [r3, #48]
 341 0062 42F00102 		orr	r2, r2, #1
 342 0066 1A63     		str	r2, [r3, #48]
 136:control-base/typec-board-base/Core/Src/usart.c ****     /**USART1 GPIO Configuration
 343              		.loc 1 136 5 view .LVU96
 344 0068 1B6B     		ldr	r3, [r3, #48]
 345 006a 03F00103 		and	r3, r3, #1
 346 006e 0293     		str	r3, [sp, #8]
 136:control-base/typec-board-base/Core/Src/usart.c ****     /**USART1 GPIO Configuration
 347              		.loc 1 136 5 view .LVU97
 348 0070 029B     		ldr	r3, [sp, #8]
 349              	.LBE4:
 136:control-base/typec-board-base/Core/Src/usart.c ****     /**USART1 GPIO Configuration
 350              		.loc 1 136 5 view .LVU98
 141:control-base/typec-board-base/Core/Src/usart.c ****     GPIO_InitStruct.Mode = GPIO_MODE_AF_PP;
 351              		.loc 1 141 5 view .LVU99
 141:control-base/typec-board-base/Core/Src/usart.c ****     GPIO_InitStruct.Mode = GPIO_MODE_AF_PP;
 352              		.loc 1 141 25 is_stmt 0 view .LVU100
 353 0072 8023     		movs	r3, #128
 354 0074 0793     		str	r3, [sp, #28]
 142:control-base/typec-board-base/Core/Src/usart.c ****     GPIO_InitStruct.Pull = GPIO_NOPULL;
 355              		.loc 1 142 5 is_stmt 1 view .LVU101
 142:control-base/typec-board-base/Core/Src/usart.c ****     GPIO_InitStruct.Pull = GPIO_NOPULL;
 356              		.loc 1 142 26 is_stmt 0 view .LVU102
 357 0076 4FF00209 		mov	r9, #2
ARM GAS  /var/folders/sg/pxk9dyzj7jz_x3889hx3b3dw0000gn/T//cc6LuLar.s 			page 13


 358 007a CDF82090 		str	r9, [sp, #32]
 143:control-base/typec-board-base/Core/Src/usart.c ****     GPIO_InitStruct.Speed = GPIO_SPEED_FREQ_VERY_HIGH;
 359              		.loc 1 143 5 is_stmt 1 view .LVU103
 144:control-base/typec-board-base/Core/Src/usart.c ****     GPIO_InitStruct.Alternate = GPIO_AF7_USART1;
 360              		.loc 1 144 5 view .LVU104
 144:control-base/typec-board-base/Core/Src/usart.c ****     GPIO_InitStruct.Alternate = GPIO_AF7_USART1;
 361              		.loc 1 144 27 is_stmt 0 view .LVU105
 362 007e 4FF00308 		mov	r8, #3
 363 0082 CDF82880 		str	r8, [sp, #40]
 145:control-base/typec-board-base/Core/Src/usart.c ****     HAL_GPIO_Init(GPIOB, &GPIO_InitStruct);
 364              		.loc 1 145 5 is_stmt 1 view .LVU106
 145:control-base/typec-board-base/Core/Src/usart.c ****     HAL_GPIO_Init(GPIOB, &GPIO_InitStruct);
 365              		.loc 1 145 31 is_stmt 0 view .LVU107
 366 0086 0727     		movs	r7, #7
 367 0088 0B97     		str	r7, [sp, #44]
 146:control-base/typec-board-base/Core/Src/usart.c **** 
 368              		.loc 1 146 5 is_stmt 1 view .LVU108
 369 008a 07AE     		add	r6, sp, #28
 370 008c 3146     		mov	r1, r6
 371 008e 8048     		ldr	r0, .L37+16
 372              	.LVL9:
 146:control-base/typec-board-base/Core/Src/usart.c **** 
 373              		.loc 1 146 5 is_stmt 0 view .LVU109
 374 0090 FFF7FEFF 		bl	HAL_GPIO_Init
 375              	.LVL10:
 148:control-base/typec-board-base/Core/Src/usart.c ****     GPIO_InitStruct.Mode = GPIO_MODE_AF_PP;
 376              		.loc 1 148 5 is_stmt 1 view .LVU110
 148:control-base/typec-board-base/Core/Src/usart.c ****     GPIO_InitStruct.Mode = GPIO_MODE_AF_PP;
 377              		.loc 1 148 25 is_stmt 0 view .LVU111
 378 0094 4FF40073 		mov	r3, #512
 379 0098 0793     		str	r3, [sp, #28]
 149:control-base/typec-board-base/Core/Src/usart.c ****     GPIO_InitStruct.Pull = GPIO_NOPULL;
 380              		.loc 1 149 5 is_stmt 1 view .LVU112
 149:control-base/typec-board-base/Core/Src/usart.c ****     GPIO_InitStruct.Pull = GPIO_NOPULL;
 381              		.loc 1 149 26 is_stmt 0 view .LVU113
 382 009a CDF82090 		str	r9, [sp, #32]
 150:control-base/typec-board-base/Core/Src/usart.c ****     GPIO_InitStruct.Speed = GPIO_SPEED_FREQ_VERY_HIGH;
 383              		.loc 1 150 5 is_stmt 1 view .LVU114
 150:control-base/typec-board-base/Core/Src/usart.c ****     GPIO_InitStruct.Speed = GPIO_SPEED_FREQ_VERY_HIGH;
 384              		.loc 1 150 26 is_stmt 0 view .LVU115
 385 009e 0995     		str	r5, [sp, #36]
 151:control-base/typec-board-base/Core/Src/usart.c ****     GPIO_InitStruct.Alternate = GPIO_AF7_USART1;
 386              		.loc 1 151 5 is_stmt 1 view .LVU116
 151:control-base/typec-board-base/Core/Src/usart.c ****     GPIO_InitStruct.Alternate = GPIO_AF7_USART1;
 387              		.loc 1 151 27 is_stmt 0 view .LVU117
 388 00a0 CDF82880 		str	r8, [sp, #40]
 152:control-base/typec-board-base/Core/Src/usart.c ****     HAL_GPIO_Init(GPIOA, &GPIO_InitStruct);
 389              		.loc 1 152 5 is_stmt 1 view .LVU118
 152:control-base/typec-board-base/Core/Src/usart.c ****     HAL_GPIO_Init(GPIOA, &GPIO_InitStruct);
 390              		.loc 1 152 31 is_stmt 0 view .LVU119
 391 00a4 0B97     		str	r7, [sp, #44]
 153:control-base/typec-board-base/Core/Src/usart.c **** 
 392              		.loc 1 153 5 is_stmt 1 view .LVU120
 393 00a6 3146     		mov	r1, r6
 394 00a8 7A48     		ldr	r0, .L37+20
 395 00aa FFF7FEFF 		bl	HAL_GPIO_Init
 396              	.LVL11:
ARM GAS  /var/folders/sg/pxk9dyzj7jz_x3889hx3b3dw0000gn/T//cc6LuLar.s 			page 14


 157:control-base/typec-board-base/Core/Src/usart.c ****     hdma_usart1_rx.Init.Channel = DMA_CHANNEL_4;
 397              		.loc 1 157 5 view .LVU121
 157:control-base/typec-board-base/Core/Src/usart.c ****     hdma_usart1_rx.Init.Channel = DMA_CHANNEL_4;
 398              		.loc 1 157 29 is_stmt 0 view .LVU122
 399 00ae 7A48     		ldr	r0, .L37+24
 400 00b0 7A4B     		ldr	r3, .L37+28
 401 00b2 0360     		str	r3, [r0]
 158:control-base/typec-board-base/Core/Src/usart.c ****     hdma_usart1_rx.Init.Direction = DMA_PERIPH_TO_MEMORY;
 402              		.loc 1 158 5 is_stmt 1 view .LVU123
 158:control-base/typec-board-base/Core/Src/usart.c ****     hdma_usart1_rx.Init.Direction = DMA_PERIPH_TO_MEMORY;
 403              		.loc 1 158 33 is_stmt 0 view .LVU124
 404 00b4 4FF00063 		mov	r3, #134217728
 405 00b8 4360     		str	r3, [r0, #4]
 159:control-base/typec-board-base/Core/Src/usart.c ****     hdma_usart1_rx.Init.PeriphInc = DMA_PINC_DISABLE;
 406              		.loc 1 159 5 is_stmt 1 view .LVU125
 159:control-base/typec-board-base/Core/Src/usart.c ****     hdma_usart1_rx.Init.PeriphInc = DMA_PINC_DISABLE;
 407              		.loc 1 159 35 is_stmt 0 view .LVU126
 408 00ba 8560     		str	r5, [r0, #8]
 160:control-base/typec-board-base/Core/Src/usart.c ****     hdma_usart1_rx.Init.MemInc = DMA_MINC_ENABLE;
 409              		.loc 1 160 5 is_stmt 1 view .LVU127
 160:control-base/typec-board-base/Core/Src/usart.c ****     hdma_usart1_rx.Init.MemInc = DMA_MINC_ENABLE;
 410              		.loc 1 160 35 is_stmt 0 view .LVU128
 411 00bc C560     		str	r5, [r0, #12]
 161:control-base/typec-board-base/Core/Src/usart.c ****     hdma_usart1_rx.Init.PeriphDataAlignment = DMA_PDATAALIGN_BYTE;
 412              		.loc 1 161 5 is_stmt 1 view .LVU129
 161:control-base/typec-board-base/Core/Src/usart.c ****     hdma_usart1_rx.Init.PeriphDataAlignment = DMA_PDATAALIGN_BYTE;
 413              		.loc 1 161 32 is_stmt 0 view .LVU130
 414 00be 4FF48063 		mov	r3, #1024
 415 00c2 0361     		str	r3, [r0, #16]
 162:control-base/typec-board-base/Core/Src/usart.c ****     hdma_usart1_rx.Init.MemDataAlignment = DMA_MDATAALIGN_BYTE;
 416              		.loc 1 162 5 is_stmt 1 view .LVU131
 162:control-base/typec-board-base/Core/Src/usart.c ****     hdma_usart1_rx.Init.MemDataAlignment = DMA_MDATAALIGN_BYTE;
 417              		.loc 1 162 45 is_stmt 0 view .LVU132
 418 00c4 4561     		str	r5, [r0, #20]
 163:control-base/typec-board-base/Core/Src/usart.c ****     hdma_usart1_rx.Init.Mode = DMA_CIRCULAR;
 419              		.loc 1 163 5 is_stmt 1 view .LVU133
 163:control-base/typec-board-base/Core/Src/usart.c ****     hdma_usart1_rx.Init.Mode = DMA_CIRCULAR;
 420              		.loc 1 163 42 is_stmt 0 view .LVU134
 421 00c6 8561     		str	r5, [r0, #24]
 164:control-base/typec-board-base/Core/Src/usart.c ****     hdma_usart1_rx.Init.Priority = DMA_PRIORITY_LOW;
 422              		.loc 1 164 5 is_stmt 1 view .LVU135
 164:control-base/typec-board-base/Core/Src/usart.c ****     hdma_usart1_rx.Init.Priority = DMA_PRIORITY_LOW;
 423              		.loc 1 164 30 is_stmt 0 view .LVU136
 424 00c8 4FF48073 		mov	r3, #256
 425 00cc C361     		str	r3, [r0, #28]
 165:control-base/typec-board-base/Core/Src/usart.c ****     hdma_usart1_rx.Init.FIFOMode = DMA_FIFOMODE_DISABLE;
 426              		.loc 1 165 5 is_stmt 1 view .LVU137
 165:control-base/typec-board-base/Core/Src/usart.c ****     hdma_usart1_rx.Init.FIFOMode = DMA_FIFOMODE_DISABLE;
 427              		.loc 1 165 34 is_stmt 0 view .LVU138
 428 00ce 0562     		str	r5, [r0, #32]
 166:control-base/typec-board-base/Core/Src/usart.c ****     if (HAL_DMA_Init(&hdma_usart1_rx) != HAL_OK)
 429              		.loc 1 166 5 is_stmt 1 view .LVU139
 166:control-base/typec-board-base/Core/Src/usart.c ****     if (HAL_DMA_Init(&hdma_usart1_rx) != HAL_OK)
 430              		.loc 1 166 34 is_stmt 0 view .LVU140
 431 00d0 4562     		str	r5, [r0, #36]
 167:control-base/typec-board-base/Core/Src/usart.c ****     {
 432              		.loc 1 167 5 is_stmt 1 view .LVU141
ARM GAS  /var/folders/sg/pxk9dyzj7jz_x3889hx3b3dw0000gn/T//cc6LuLar.s 			page 15


 167:control-base/typec-board-base/Core/Src/usart.c ****     {
 433              		.loc 1 167 9 is_stmt 0 view .LVU142
 434 00d2 FFF7FEFF 		bl	HAL_DMA_Init
 435              	.LVL12:
 167:control-base/typec-board-base/Core/Src/usart.c ****     {
 436              		.loc 1 167 8 discriminator 1 view .LVU143
 437 00d6 18BB     		cbnz	r0, .L32
 438              	.L21:
 172:control-base/typec-board-base/Core/Src/usart.c **** 
 439              		.loc 1 172 5 is_stmt 1 view .LVU144
 172:control-base/typec-board-base/Core/Src/usart.c **** 
 440              		.loc 1 172 5 view .LVU145
 441 00d8 6F4B     		ldr	r3, .L37+24
 442 00da E363     		str	r3, [r4, #60]
 172:control-base/typec-board-base/Core/Src/usart.c **** 
 443              		.loc 1 172 5 view .LVU146
 444 00dc 9C63     		str	r4, [r3, #56]
 172:control-base/typec-board-base/Core/Src/usart.c **** 
 445              		.loc 1 172 5 view .LVU147
 175:control-base/typec-board-base/Core/Src/usart.c ****     hdma_usart1_tx.Init.Channel = DMA_CHANNEL_4;
 446              		.loc 1 175 5 view .LVU148
 175:control-base/typec-board-base/Core/Src/usart.c ****     hdma_usart1_tx.Init.Channel = DMA_CHANNEL_4;
 447              		.loc 1 175 29 is_stmt 0 view .LVU149
 448 00de 7048     		ldr	r0, .L37+32
 449 00e0 704B     		ldr	r3, .L37+36
 450 00e2 0360     		str	r3, [r0]
 176:control-base/typec-board-base/Core/Src/usart.c ****     hdma_usart1_tx.Init.Direction = DMA_MEMORY_TO_PERIPH;
 451              		.loc 1 176 5 is_stmt 1 view .LVU150
 176:control-base/typec-board-base/Core/Src/usart.c ****     hdma_usart1_tx.Init.Direction = DMA_MEMORY_TO_PERIPH;
 452              		.loc 1 176 33 is_stmt 0 view .LVU151
 453 00e4 4FF00063 		mov	r3, #134217728
 454 00e8 4360     		str	r3, [r0, #4]
 177:control-base/typec-board-base/Core/Src/usart.c ****     hdma_usart1_tx.Init.PeriphInc = DMA_PINC_DISABLE;
 455              		.loc 1 177 5 is_stmt 1 view .LVU152
 177:control-base/typec-board-base/Core/Src/usart.c ****     hdma_usart1_tx.Init.PeriphInc = DMA_PINC_DISABLE;
 456              		.loc 1 177 35 is_stmt 0 view .LVU153
 457 00ea 4023     		movs	r3, #64
 458 00ec 8360     		str	r3, [r0, #8]
 178:control-base/typec-board-base/Core/Src/usart.c ****     hdma_usart1_tx.Init.MemInc = DMA_MINC_ENABLE;
 459              		.loc 1 178 5 is_stmt 1 view .LVU154
 178:control-base/typec-board-base/Core/Src/usart.c ****     hdma_usart1_tx.Init.MemInc = DMA_MINC_ENABLE;
 460              		.loc 1 178 35 is_stmt 0 view .LVU155
 461 00ee 0023     		movs	r3, #0
 462 00f0 C360     		str	r3, [r0, #12]
 179:control-base/typec-board-base/Core/Src/usart.c ****     hdma_usart1_tx.Init.PeriphDataAlignment = DMA_PDATAALIGN_BYTE;
 463              		.loc 1 179 5 is_stmt 1 view .LVU156
 179:control-base/typec-board-base/Core/Src/usart.c ****     hdma_usart1_tx.Init.PeriphDataAlignment = DMA_PDATAALIGN_BYTE;
 464              		.loc 1 179 32 is_stmt 0 view .LVU157
 465 00f2 4FF48062 		mov	r2, #1024
 466 00f6 0261     		str	r2, [r0, #16]
 180:control-base/typec-board-base/Core/Src/usart.c ****     hdma_usart1_tx.Init.MemDataAlignment = DMA_MDATAALIGN_BYTE;
 467              		.loc 1 180 5 is_stmt 1 view .LVU158
 180:control-base/typec-board-base/Core/Src/usart.c ****     hdma_usart1_tx.Init.MemDataAlignment = DMA_MDATAALIGN_BYTE;
 468              		.loc 1 180 45 is_stmt 0 view .LVU159
 469 00f8 4361     		str	r3, [r0, #20]
 181:control-base/typec-board-base/Core/Src/usart.c ****     hdma_usart1_tx.Init.Mode = DMA_NORMAL;
 470              		.loc 1 181 5 is_stmt 1 view .LVU160
ARM GAS  /var/folders/sg/pxk9dyzj7jz_x3889hx3b3dw0000gn/T//cc6LuLar.s 			page 16


 181:control-base/typec-board-base/Core/Src/usart.c ****     hdma_usart1_tx.Init.Mode = DMA_NORMAL;
 471              		.loc 1 181 42 is_stmt 0 view .LVU161
 472 00fa 8361     		str	r3, [r0, #24]
 182:control-base/typec-board-base/Core/Src/usart.c ****     hdma_usart1_tx.Init.Priority = DMA_PRIORITY_LOW;
 473              		.loc 1 182 5 is_stmt 1 view .LVU162
 182:control-base/typec-board-base/Core/Src/usart.c ****     hdma_usart1_tx.Init.Priority = DMA_PRIORITY_LOW;
 474              		.loc 1 182 30 is_stmt 0 view .LVU163
 475 00fc C361     		str	r3, [r0, #28]
 183:control-base/typec-board-base/Core/Src/usart.c ****     hdma_usart1_tx.Init.FIFOMode = DMA_FIFOMODE_DISABLE;
 476              		.loc 1 183 5 is_stmt 1 view .LVU164
 183:control-base/typec-board-base/Core/Src/usart.c ****     hdma_usart1_tx.Init.FIFOMode = DMA_FIFOMODE_DISABLE;
 477              		.loc 1 183 34 is_stmt 0 view .LVU165
 478 00fe 0362     		str	r3, [r0, #32]
 184:control-base/typec-board-base/Core/Src/usart.c ****     if (HAL_DMA_Init(&hdma_usart1_tx) != HAL_OK)
 479              		.loc 1 184 5 is_stmt 1 view .LVU166
 184:control-base/typec-board-base/Core/Src/usart.c ****     if (HAL_DMA_Init(&hdma_usart1_tx) != HAL_OK)
 480              		.loc 1 184 34 is_stmt 0 view .LVU167
 481 0100 4362     		str	r3, [r0, #36]
 185:control-base/typec-board-base/Core/Src/usart.c ****     {
 482              		.loc 1 185 5 is_stmt 1 view .LVU168
 185:control-base/typec-board-base/Core/Src/usart.c ****     {
 483              		.loc 1 185 9 is_stmt 0 view .LVU169
 484 0102 FFF7FEFF 		bl	HAL_DMA_Init
 485              	.LVL13:
 185:control-base/typec-board-base/Core/Src/usart.c ****     {
 486              		.loc 1 185 8 discriminator 1 view .LVU170
 487 0106 70B9     		cbnz	r0, .L33
 488              	.L22:
 190:control-base/typec-board-base/Core/Src/usart.c **** 
 489              		.loc 1 190 5 is_stmt 1 view .LVU171
 190:control-base/typec-board-base/Core/Src/usart.c **** 
 490              		.loc 1 190 5 view .LVU172
 491 0108 654B     		ldr	r3, .L37+32
 492 010a A363     		str	r3, [r4, #56]
 190:control-base/typec-board-base/Core/Src/usart.c **** 
 493              		.loc 1 190 5 view .LVU173
 494 010c 9C63     		str	r4, [r3, #56]
 190:control-base/typec-board-base/Core/Src/usart.c **** 
 495              		.loc 1 190 5 view .LVU174
 193:control-base/typec-board-base/Core/Src/usart.c ****     HAL_NVIC_EnableIRQ(USART1_IRQn);
 496              		.loc 1 193 5 view .LVU175
 497 010e 0022     		movs	r2, #0
 498 0110 0521     		movs	r1, #5
 499 0112 2520     		movs	r0, #37
 500 0114 FFF7FEFF 		bl	HAL_NVIC_SetPriority
 501              	.LVL14:
 194:control-base/typec-board-base/Core/Src/usart.c ****   /* USER CODE BEGIN USART1_MspInit 1 */
 502              		.loc 1 194 5 view .LVU176
 503 0118 2520     		movs	r0, #37
 504 011a FFF7FEFF 		bl	HAL_NVIC_EnableIRQ
 505              	.LVL15:
 506 011e 85E7     		b	.L19
 507              	.L32:
 169:control-base/typec-board-base/Core/Src/usart.c ****     }
 508              		.loc 1 169 7 view .LVU177
 509 0120 FFF7FEFF 		bl	Error_Handler
 510              	.LVL16:
ARM GAS  /var/folders/sg/pxk9dyzj7jz_x3889hx3b3dw0000gn/T//cc6LuLar.s 			page 17


 511 0124 D8E7     		b	.L21
 512              	.L33:
 187:control-base/typec-board-base/Core/Src/usart.c ****     }
 513              		.loc 1 187 7 view .LVU178
 514 0126 FFF7FEFF 		bl	Error_Handler
 515              	.LVL17:
 516 012a EDE7     		b	.L22
 517              	.LVL18:
 518              	.L30:
 205:control-base/typec-board-base/Core/Src/usart.c **** 
 519              		.loc 1 205 5 view .LVU179
 520              	.LBB5:
 205:control-base/typec-board-base/Core/Src/usart.c **** 
 521              		.loc 1 205 5 view .LVU180
 522 012c 0025     		movs	r5, #0
 523 012e 0395     		str	r5, [sp, #12]
 205:control-base/typec-board-base/Core/Src/usart.c **** 
 524              		.loc 1 205 5 view .LVU181
 525 0130 564B     		ldr	r3, .L37+12
 526 0132 1A6C     		ldr	r2, [r3, #64]
 527 0134 42F48022 		orr	r2, r2, #262144
 528 0138 1A64     		str	r2, [r3, #64]
 205:control-base/typec-board-base/Core/Src/usart.c **** 
 529              		.loc 1 205 5 view .LVU182
 530 013a 1A6C     		ldr	r2, [r3, #64]
 531 013c 02F48022 		and	r2, r2, #262144
 532 0140 0392     		str	r2, [sp, #12]
 205:control-base/typec-board-base/Core/Src/usart.c **** 
 533              		.loc 1 205 5 view .LVU183
 534 0142 039A     		ldr	r2, [sp, #12]
 535              	.LBE5:
 205:control-base/typec-board-base/Core/Src/usart.c **** 
 536              		.loc 1 205 5 view .LVU184
 207:control-base/typec-board-base/Core/Src/usart.c ****     /**USART3 GPIO Configuration
 537              		.loc 1 207 5 view .LVU185
 538              	.LBB6:
 207:control-base/typec-board-base/Core/Src/usart.c ****     /**USART3 GPIO Configuration
 539              		.loc 1 207 5 view .LVU186
 540 0144 0495     		str	r5, [sp, #16]
 207:control-base/typec-board-base/Core/Src/usart.c ****     /**USART3 GPIO Configuration
 541              		.loc 1 207 5 view .LVU187
 542 0146 1A6B     		ldr	r2, [r3, #48]
 543 0148 42F00402 		orr	r2, r2, #4
 544 014c 1A63     		str	r2, [r3, #48]
 207:control-base/typec-board-base/Core/Src/usart.c ****     /**USART3 GPIO Configuration
 545              		.loc 1 207 5 view .LVU188
 546 014e 1B6B     		ldr	r3, [r3, #48]
 547 0150 03F00403 		and	r3, r3, #4
 548 0154 0493     		str	r3, [sp, #16]
 207:control-base/typec-board-base/Core/Src/usart.c ****     /**USART3 GPIO Configuration
 549              		.loc 1 207 5 view .LVU189
 550 0156 049B     		ldr	r3, [sp, #16]
 551              	.LBE6:
 207:control-base/typec-board-base/Core/Src/usart.c ****     /**USART3 GPIO Configuration
 552              		.loc 1 207 5 view .LVU190
 212:control-base/typec-board-base/Core/Src/usart.c ****     GPIO_InitStruct.Mode = GPIO_MODE_AF_PP;
 553              		.loc 1 212 5 view .LVU191
ARM GAS  /var/folders/sg/pxk9dyzj7jz_x3889hx3b3dw0000gn/T//cc6LuLar.s 			page 18


 212:control-base/typec-board-base/Core/Src/usart.c ****     GPIO_InitStruct.Mode = GPIO_MODE_AF_PP;
 554              		.loc 1 212 25 is_stmt 0 view .LVU192
 555 0158 4FF44063 		mov	r3, #3072
 556 015c 0793     		str	r3, [sp, #28]
 213:control-base/typec-board-base/Core/Src/usart.c ****     GPIO_InitStruct.Pull = GPIO_NOPULL;
 557              		.loc 1 213 5 is_stmt 1 view .LVU193
 213:control-base/typec-board-base/Core/Src/usart.c ****     GPIO_InitStruct.Pull = GPIO_NOPULL;
 558              		.loc 1 213 26 is_stmt 0 view .LVU194
 559 015e 0223     		movs	r3, #2
 560 0160 0893     		str	r3, [sp, #32]
 214:control-base/typec-board-base/Core/Src/usart.c ****     GPIO_InitStruct.Speed = GPIO_SPEED_FREQ_VERY_HIGH;
 561              		.loc 1 214 5 is_stmt 1 view .LVU195
 215:control-base/typec-board-base/Core/Src/usart.c ****     GPIO_InitStruct.Alternate = GPIO_AF7_USART3;
 562              		.loc 1 215 5 view .LVU196
 215:control-base/typec-board-base/Core/Src/usart.c ****     GPIO_InitStruct.Alternate = GPIO_AF7_USART3;
 563              		.loc 1 215 27 is_stmt 0 view .LVU197
 564 0162 0323     		movs	r3, #3
 565 0164 0A93     		str	r3, [sp, #40]
 216:control-base/typec-board-base/Core/Src/usart.c ****     HAL_GPIO_Init(GPIOC, &GPIO_InitStruct);
 566              		.loc 1 216 5 is_stmt 1 view .LVU198
 216:control-base/typec-board-base/Core/Src/usart.c ****     HAL_GPIO_Init(GPIOC, &GPIO_InitStruct);
 567              		.loc 1 216 31 is_stmt 0 view .LVU199
 568 0166 0723     		movs	r3, #7
 569 0168 0B93     		str	r3, [sp, #44]
 217:control-base/typec-board-base/Core/Src/usart.c **** 
 570              		.loc 1 217 5 is_stmt 1 view .LVU200
 571 016a 07A9     		add	r1, sp, #28
 572 016c 4E48     		ldr	r0, .L37+40
 573              	.LVL19:
 217:control-base/typec-board-base/Core/Src/usart.c **** 
 574              		.loc 1 217 5 is_stmt 0 view .LVU201
 575 016e FFF7FEFF 		bl	HAL_GPIO_Init
 576              	.LVL20:
 221:control-base/typec-board-base/Core/Src/usart.c ****     hdma_usart3_rx.Init.Channel = DMA_CHANNEL_4;
 577              		.loc 1 221 5 is_stmt 1 view .LVU202
 221:control-base/typec-board-base/Core/Src/usart.c ****     hdma_usart3_rx.Init.Channel = DMA_CHANNEL_4;
 578              		.loc 1 221 29 is_stmt 0 view .LVU203
 579 0172 4E48     		ldr	r0, .L37+44
 580 0174 4E4B     		ldr	r3, .L37+48
 581 0176 0360     		str	r3, [r0]
 222:control-base/typec-board-base/Core/Src/usart.c ****     hdma_usart3_rx.Init.Direction = DMA_PERIPH_TO_MEMORY;
 582              		.loc 1 222 5 is_stmt 1 view .LVU204
 222:control-base/typec-board-base/Core/Src/usart.c ****     hdma_usart3_rx.Init.Direction = DMA_PERIPH_TO_MEMORY;
 583              		.loc 1 222 33 is_stmt 0 view .LVU205
 584 0178 4FF00063 		mov	r3, #134217728
 585 017c 4360     		str	r3, [r0, #4]
 223:control-base/typec-board-base/Core/Src/usart.c ****     hdma_usart3_rx.Init.PeriphInc = DMA_PINC_DISABLE;
 586              		.loc 1 223 5 is_stmt 1 view .LVU206
 223:control-base/typec-board-base/Core/Src/usart.c ****     hdma_usart3_rx.Init.PeriphInc = DMA_PINC_DISABLE;
 587              		.loc 1 223 35 is_stmt 0 view .LVU207
 588 017e 8560     		str	r5, [r0, #8]
 224:control-base/typec-board-base/Core/Src/usart.c ****     hdma_usart3_rx.Init.MemInc = DMA_MINC_ENABLE;
 589              		.loc 1 224 5 is_stmt 1 view .LVU208
 224:control-base/typec-board-base/Core/Src/usart.c ****     hdma_usart3_rx.Init.MemInc = DMA_MINC_ENABLE;
 590              		.loc 1 224 35 is_stmt 0 view .LVU209
 591 0180 C560     		str	r5, [r0, #12]
 225:control-base/typec-board-base/Core/Src/usart.c ****     hdma_usart3_rx.Init.PeriphDataAlignment = DMA_PDATAALIGN_BYTE;
ARM GAS  /var/folders/sg/pxk9dyzj7jz_x3889hx3b3dw0000gn/T//cc6LuLar.s 			page 19


 592              		.loc 1 225 5 is_stmt 1 view .LVU210
 225:control-base/typec-board-base/Core/Src/usart.c ****     hdma_usart3_rx.Init.PeriphDataAlignment = DMA_PDATAALIGN_BYTE;
 593              		.loc 1 225 32 is_stmt 0 view .LVU211
 594 0182 4FF48063 		mov	r3, #1024
 595 0186 0361     		str	r3, [r0, #16]
 226:control-base/typec-board-base/Core/Src/usart.c ****     hdma_usart3_rx.Init.MemDataAlignment = DMA_MDATAALIGN_BYTE;
 596              		.loc 1 226 5 is_stmt 1 view .LVU212
 226:control-base/typec-board-base/Core/Src/usart.c ****     hdma_usart3_rx.Init.MemDataAlignment = DMA_MDATAALIGN_BYTE;
 597              		.loc 1 226 45 is_stmt 0 view .LVU213
 598 0188 4561     		str	r5, [r0, #20]
 227:control-base/typec-board-base/Core/Src/usart.c ****     hdma_usart3_rx.Init.Mode = DMA_NORMAL;
 599              		.loc 1 227 5 is_stmt 1 view .LVU214
 227:control-base/typec-board-base/Core/Src/usart.c ****     hdma_usart3_rx.Init.Mode = DMA_NORMAL;
 600              		.loc 1 227 42 is_stmt 0 view .LVU215
 601 018a 8561     		str	r5, [r0, #24]
 228:control-base/typec-board-base/Core/Src/usart.c ****     hdma_usart3_rx.Init.Priority = DMA_PRIORITY_VERY_HIGH;
 602              		.loc 1 228 5 is_stmt 1 view .LVU216
 228:control-base/typec-board-base/Core/Src/usart.c ****     hdma_usart3_rx.Init.Priority = DMA_PRIORITY_VERY_HIGH;
 603              		.loc 1 228 30 is_stmt 0 view .LVU217
 604 018c C561     		str	r5, [r0, #28]
 229:control-base/typec-board-base/Core/Src/usart.c ****     hdma_usart3_rx.Init.FIFOMode = DMA_FIFOMODE_DISABLE;
 605              		.loc 1 229 5 is_stmt 1 view .LVU218
 229:control-base/typec-board-base/Core/Src/usart.c ****     hdma_usart3_rx.Init.FIFOMode = DMA_FIFOMODE_DISABLE;
 606              		.loc 1 229 34 is_stmt 0 view .LVU219
 607 018e 4FF44033 		mov	r3, #196608
 608 0192 0362     		str	r3, [r0, #32]
 230:control-base/typec-board-base/Core/Src/usart.c ****     if (HAL_DMA_Init(&hdma_usart3_rx) != HAL_OK)
 609              		.loc 1 230 5 is_stmt 1 view .LVU220
 230:control-base/typec-board-base/Core/Src/usart.c ****     if (HAL_DMA_Init(&hdma_usart3_rx) != HAL_OK)
 610              		.loc 1 230 34 is_stmt 0 view .LVU221
 611 0194 4562     		str	r5, [r0, #36]
 231:control-base/typec-board-base/Core/Src/usart.c ****     {
 612              		.loc 1 231 5 is_stmt 1 view .LVU222
 231:control-base/typec-board-base/Core/Src/usart.c ****     {
 613              		.loc 1 231 9 is_stmt 0 view .LVU223
 614 0196 FFF7FEFF 		bl	HAL_DMA_Init
 615              	.LVL21:
 231:control-base/typec-board-base/Core/Src/usart.c ****     {
 616              		.loc 1 231 8 discriminator 1 view .LVU224
 617 019a 58B9     		cbnz	r0, .L34
 618              	.L25:
 236:control-base/typec-board-base/Core/Src/usart.c **** 
 619              		.loc 1 236 5 is_stmt 1 view .LVU225
 236:control-base/typec-board-base/Core/Src/usart.c **** 
 620              		.loc 1 236 5 view .LVU226
 621 019c 434B     		ldr	r3, .L37+44
 622 019e E363     		str	r3, [r4, #60]
 236:control-base/typec-board-base/Core/Src/usart.c **** 
 623              		.loc 1 236 5 view .LVU227
 624 01a0 9C63     		str	r4, [r3, #56]
 236:control-base/typec-board-base/Core/Src/usart.c **** 
 625              		.loc 1 236 5 view .LVU228
 239:control-base/typec-board-base/Core/Src/usart.c ****     HAL_NVIC_EnableIRQ(USART3_IRQn);
 626              		.loc 1 239 5 view .LVU229
 627 01a2 0022     		movs	r2, #0
 628 01a4 0521     		movs	r1, #5
 629 01a6 2720     		movs	r0, #39
ARM GAS  /var/folders/sg/pxk9dyzj7jz_x3889hx3b3dw0000gn/T//cc6LuLar.s 			page 20


 630 01a8 FFF7FEFF 		bl	HAL_NVIC_SetPriority
 631              	.LVL22:
 240:control-base/typec-board-base/Core/Src/usart.c ****   /* USER CODE BEGIN USART3_MspInit 1 */
 632              		.loc 1 240 5 view .LVU230
 633 01ac 2720     		movs	r0, #39
 634 01ae FFF7FEFF 		bl	HAL_NVIC_EnableIRQ
 635              	.LVL23:
 636 01b2 3BE7     		b	.L19
 637              	.L34:
 233:control-base/typec-board-base/Core/Src/usart.c ****     }
 638              		.loc 1 233 7 view .LVU231
 639 01b4 FFF7FEFF 		bl	Error_Handler
 640              	.LVL24:
 641 01b8 F0E7     		b	.L25
 642              	.LVL25:
 643              	.L31:
 251:control-base/typec-board-base/Core/Src/usart.c **** 
 644              		.loc 1 251 5 view .LVU232
 645              	.LBB7:
 251:control-base/typec-board-base/Core/Src/usart.c **** 
 646              		.loc 1 251 5 view .LVU233
 647 01ba 0025     		movs	r5, #0
 648 01bc 0595     		str	r5, [sp, #20]
 251:control-base/typec-board-base/Core/Src/usart.c **** 
 649              		.loc 1 251 5 view .LVU234
 650 01be 334B     		ldr	r3, .L37+12
 651 01c0 5A6C     		ldr	r2, [r3, #68]
 652 01c2 42F02002 		orr	r2, r2, #32
 653 01c6 5A64     		str	r2, [r3, #68]
 251:control-base/typec-board-base/Core/Src/usart.c **** 
 654              		.loc 1 251 5 view .LVU235
 655 01c8 5A6C     		ldr	r2, [r3, #68]
 656 01ca 02F02002 		and	r2, r2, #32
 657 01ce 0592     		str	r2, [sp, #20]
 251:control-base/typec-board-base/Core/Src/usart.c **** 
 658              		.loc 1 251 5 view .LVU236
 659 01d0 059A     		ldr	r2, [sp, #20]
 660              	.LBE7:
 251:control-base/typec-board-base/Core/Src/usart.c **** 
 661              		.loc 1 251 5 view .LVU237
 253:control-base/typec-board-base/Core/Src/usart.c ****     /**USART6 GPIO Configuration
 662              		.loc 1 253 5 view .LVU238
 663              	.LBB8:
 253:control-base/typec-board-base/Core/Src/usart.c ****     /**USART6 GPIO Configuration
 664              		.loc 1 253 5 view .LVU239
 665 01d2 0695     		str	r5, [sp, #24]
 253:control-base/typec-board-base/Core/Src/usart.c ****     /**USART6 GPIO Configuration
 666              		.loc 1 253 5 view .LVU240
 667 01d4 1A6B     		ldr	r2, [r3, #48]
 668 01d6 42F04002 		orr	r2, r2, #64
 669 01da 1A63     		str	r2, [r3, #48]
 253:control-base/typec-board-base/Core/Src/usart.c ****     /**USART6 GPIO Configuration
 670              		.loc 1 253 5 view .LVU241
 671 01dc 1B6B     		ldr	r3, [r3, #48]
 672 01de 03F04003 		and	r3, r3, #64
 673 01e2 0693     		str	r3, [sp, #24]
 253:control-base/typec-board-base/Core/Src/usart.c ****     /**USART6 GPIO Configuration
ARM GAS  /var/folders/sg/pxk9dyzj7jz_x3889hx3b3dw0000gn/T//cc6LuLar.s 			page 21


 674              		.loc 1 253 5 view .LVU242
 675 01e4 069B     		ldr	r3, [sp, #24]
 676              	.LBE8:
 253:control-base/typec-board-base/Core/Src/usart.c ****     /**USART6 GPIO Configuration
 677              		.loc 1 253 5 view .LVU243
 258:control-base/typec-board-base/Core/Src/usart.c ****     GPIO_InitStruct.Mode = GPIO_MODE_AF_PP;
 678              		.loc 1 258 5 view .LVU244
 258:control-base/typec-board-base/Core/Src/usart.c ****     GPIO_InitStruct.Mode = GPIO_MODE_AF_PP;
 679              		.loc 1 258 25 is_stmt 0 view .LVU245
 680 01e6 4FF48443 		mov	r3, #16896
 681 01ea 0793     		str	r3, [sp, #28]
 259:control-base/typec-board-base/Core/Src/usart.c ****     GPIO_InitStruct.Pull = GPIO_NOPULL;
 682              		.loc 1 259 5 is_stmt 1 view .LVU246
 259:control-base/typec-board-base/Core/Src/usart.c ****     GPIO_InitStruct.Pull = GPIO_NOPULL;
 683              		.loc 1 259 26 is_stmt 0 view .LVU247
 684 01ec 0223     		movs	r3, #2
 685 01ee 0893     		str	r3, [sp, #32]
 260:control-base/typec-board-base/Core/Src/usart.c ****     GPIO_InitStruct.Speed = GPIO_SPEED_FREQ_VERY_HIGH;
 686              		.loc 1 260 5 is_stmt 1 view .LVU248
 261:control-base/typec-board-base/Core/Src/usart.c ****     GPIO_InitStruct.Alternate = GPIO_AF8_USART6;
 687              		.loc 1 261 5 view .LVU249
 261:control-base/typec-board-base/Core/Src/usart.c ****     GPIO_InitStruct.Alternate = GPIO_AF8_USART6;
 688              		.loc 1 261 27 is_stmt 0 view .LVU250
 689 01f0 0323     		movs	r3, #3
 690 01f2 0A93     		str	r3, [sp, #40]
 262:control-base/typec-board-base/Core/Src/usart.c ****     HAL_GPIO_Init(GPIOG, &GPIO_InitStruct);
 691              		.loc 1 262 5 is_stmt 1 view .LVU251
 262:control-base/typec-board-base/Core/Src/usart.c ****     HAL_GPIO_Init(GPIOG, &GPIO_InitStruct);
 692              		.loc 1 262 31 is_stmt 0 view .LVU252
 693 01f4 0823     		movs	r3, #8
 694 01f6 0B93     		str	r3, [sp, #44]
 263:control-base/typec-board-base/Core/Src/usart.c **** 
 695              		.loc 1 263 5 is_stmt 1 view .LVU253
 696 01f8 07A9     		add	r1, sp, #28
 697 01fa 2E48     		ldr	r0, .L37+52
 698              	.LVL26:
 263:control-base/typec-board-base/Core/Src/usart.c **** 
 699              		.loc 1 263 5 is_stmt 0 view .LVU254
 700 01fc FFF7FEFF 		bl	HAL_GPIO_Init
 701              	.LVL27:
 267:control-base/typec-board-base/Core/Src/usart.c ****     hdma_usart6_rx.Init.Channel = DMA_CHANNEL_5;
 702              		.loc 1 267 5 is_stmt 1 view .LVU255
 267:control-base/typec-board-base/Core/Src/usart.c ****     hdma_usart6_rx.Init.Channel = DMA_CHANNEL_5;
 703              		.loc 1 267 29 is_stmt 0 view .LVU256
 704 0200 2D48     		ldr	r0, .L37+56
 705 0202 2E4B     		ldr	r3, .L37+60
 706 0204 0360     		str	r3, [r0]
 268:control-base/typec-board-base/Core/Src/usart.c ****     hdma_usart6_rx.Init.Direction = DMA_PERIPH_TO_MEMORY;
 707              		.loc 1 268 5 is_stmt 1 view .LVU257
 268:control-base/typec-board-base/Core/Src/usart.c ****     hdma_usart6_rx.Init.Direction = DMA_PERIPH_TO_MEMORY;
 708              		.loc 1 268 33 is_stmt 0 view .LVU258
 709 0206 4FF02063 		mov	r3, #167772160
 710 020a 4360     		str	r3, [r0, #4]
 269:control-base/typec-board-base/Core/Src/usart.c ****     hdma_usart6_rx.Init.PeriphInc = DMA_PINC_DISABLE;
 711              		.loc 1 269 5 is_stmt 1 view .LVU259
 269:control-base/typec-board-base/Core/Src/usart.c ****     hdma_usart6_rx.Init.PeriphInc = DMA_PINC_DISABLE;
 712              		.loc 1 269 35 is_stmt 0 view .LVU260
ARM GAS  /var/folders/sg/pxk9dyzj7jz_x3889hx3b3dw0000gn/T//cc6LuLar.s 			page 22


 713 020c 8560     		str	r5, [r0, #8]
 270:control-base/typec-board-base/Core/Src/usart.c ****     hdma_usart6_rx.Init.MemInc = DMA_MINC_ENABLE;
 714              		.loc 1 270 5 is_stmt 1 view .LVU261
 270:control-base/typec-board-base/Core/Src/usart.c ****     hdma_usart6_rx.Init.MemInc = DMA_MINC_ENABLE;
 715              		.loc 1 270 35 is_stmt 0 view .LVU262
 716 020e C560     		str	r5, [r0, #12]
 271:control-base/typec-board-base/Core/Src/usart.c ****     hdma_usart6_rx.Init.PeriphDataAlignment = DMA_PDATAALIGN_BYTE;
 717              		.loc 1 271 5 is_stmt 1 view .LVU263
 271:control-base/typec-board-base/Core/Src/usart.c ****     hdma_usart6_rx.Init.PeriphDataAlignment = DMA_PDATAALIGN_BYTE;
 718              		.loc 1 271 32 is_stmt 0 view .LVU264
 719 0210 4FF48063 		mov	r3, #1024
 720 0214 0361     		str	r3, [r0, #16]
 272:control-base/typec-board-base/Core/Src/usart.c ****     hdma_usart6_rx.Init.MemDataAlignment = DMA_MDATAALIGN_BYTE;
 721              		.loc 1 272 5 is_stmt 1 view .LVU265
 272:control-base/typec-board-base/Core/Src/usart.c ****     hdma_usart6_rx.Init.MemDataAlignment = DMA_MDATAALIGN_BYTE;
 722              		.loc 1 272 45 is_stmt 0 view .LVU266
 723 0216 4561     		str	r5, [r0, #20]
 273:control-base/typec-board-base/Core/Src/usart.c ****     hdma_usart6_rx.Init.Mode = DMA_CIRCULAR;
 724              		.loc 1 273 5 is_stmt 1 view .LVU267
 273:control-base/typec-board-base/Core/Src/usart.c ****     hdma_usart6_rx.Init.Mode = DMA_CIRCULAR;
 725              		.loc 1 273 42 is_stmt 0 view .LVU268
 726 0218 8561     		str	r5, [r0, #24]
 274:control-base/typec-board-base/Core/Src/usart.c ****     hdma_usart6_rx.Init.Priority = DMA_PRIORITY_LOW;
 727              		.loc 1 274 5 is_stmt 1 view .LVU269
 274:control-base/typec-board-base/Core/Src/usart.c ****     hdma_usart6_rx.Init.Priority = DMA_PRIORITY_LOW;
 728              		.loc 1 274 30 is_stmt 0 view .LVU270
 729 021a 4FF48073 		mov	r3, #256
 730 021e C361     		str	r3, [r0, #28]
 275:control-base/typec-board-base/Core/Src/usart.c ****     hdma_usart6_rx.Init.FIFOMode = DMA_FIFOMODE_DISABLE;
 731              		.loc 1 275 5 is_stmt 1 view .LVU271
 275:control-base/typec-board-base/Core/Src/usart.c ****     hdma_usart6_rx.Init.FIFOMode = DMA_FIFOMODE_DISABLE;
 732              		.loc 1 275 34 is_stmt 0 view .LVU272
 733 0220 0562     		str	r5, [r0, #32]
 276:control-base/typec-board-base/Core/Src/usart.c ****     if (HAL_DMA_Init(&hdma_usart6_rx) != HAL_OK)
 734              		.loc 1 276 5 is_stmt 1 view .LVU273
 276:control-base/typec-board-base/Core/Src/usart.c ****     if (HAL_DMA_Init(&hdma_usart6_rx) != HAL_OK)
 735              		.loc 1 276 34 is_stmt 0 view .LVU274
 736 0222 4562     		str	r5, [r0, #36]
 277:control-base/typec-board-base/Core/Src/usart.c ****     {
 737              		.loc 1 277 5 is_stmt 1 view .LVU275
 277:control-base/typec-board-base/Core/Src/usart.c ****     {
 738              		.loc 1 277 9 is_stmt 0 view .LVU276
 739 0224 FFF7FEFF 		bl	HAL_DMA_Init
 740              	.LVL28:
 277:control-base/typec-board-base/Core/Src/usart.c ****     {
 741              		.loc 1 277 8 discriminator 1 view .LVU277
 742 0228 18BB     		cbnz	r0, .L35
 743              	.L26:
 282:control-base/typec-board-base/Core/Src/usart.c **** 
 744              		.loc 1 282 5 is_stmt 1 view .LVU278
 282:control-base/typec-board-base/Core/Src/usart.c **** 
 745              		.loc 1 282 5 view .LVU279
 746 022a 234B     		ldr	r3, .L37+56
 747 022c E363     		str	r3, [r4, #60]
 282:control-base/typec-board-base/Core/Src/usart.c **** 
 748              		.loc 1 282 5 view .LVU280
 749 022e 9C63     		str	r4, [r3, #56]
ARM GAS  /var/folders/sg/pxk9dyzj7jz_x3889hx3b3dw0000gn/T//cc6LuLar.s 			page 23


 282:control-base/typec-board-base/Core/Src/usart.c **** 
 750              		.loc 1 282 5 view .LVU281
 285:control-base/typec-board-base/Core/Src/usart.c ****     hdma_usart6_tx.Init.Channel = DMA_CHANNEL_5;
 751              		.loc 1 285 5 view .LVU282
 285:control-base/typec-board-base/Core/Src/usart.c ****     hdma_usart6_tx.Init.Channel = DMA_CHANNEL_5;
 752              		.loc 1 285 29 is_stmt 0 view .LVU283
 753 0230 2348     		ldr	r0, .L37+64
 754 0232 244B     		ldr	r3, .L37+68
 755 0234 0360     		str	r3, [r0]
 286:control-base/typec-board-base/Core/Src/usart.c ****     hdma_usart6_tx.Init.Direction = DMA_MEMORY_TO_PERIPH;
 756              		.loc 1 286 5 is_stmt 1 view .LVU284
 286:control-base/typec-board-base/Core/Src/usart.c ****     hdma_usart6_tx.Init.Direction = DMA_MEMORY_TO_PERIPH;
 757              		.loc 1 286 33 is_stmt 0 view .LVU285
 758 0236 4FF02063 		mov	r3, #167772160
 759 023a 4360     		str	r3, [r0, #4]
 287:control-base/typec-board-base/Core/Src/usart.c ****     hdma_usart6_tx.Init.PeriphInc = DMA_PINC_DISABLE;
 760              		.loc 1 287 5 is_stmt 1 view .LVU286
 287:control-base/typec-board-base/Core/Src/usart.c ****     hdma_usart6_tx.Init.PeriphInc = DMA_PINC_DISABLE;
 761              		.loc 1 287 35 is_stmt 0 view .LVU287
 762 023c 4023     		movs	r3, #64
 763 023e 8360     		str	r3, [r0, #8]
 288:control-base/typec-board-base/Core/Src/usart.c ****     hdma_usart6_tx.Init.MemInc = DMA_MINC_ENABLE;
 764              		.loc 1 288 5 is_stmt 1 view .LVU288
 288:control-base/typec-board-base/Core/Src/usart.c ****     hdma_usart6_tx.Init.MemInc = DMA_MINC_ENABLE;
 765              		.loc 1 288 35 is_stmt 0 view .LVU289
 766 0240 0023     		movs	r3, #0
 767 0242 C360     		str	r3, [r0, #12]
 289:control-base/typec-board-base/Core/Src/usart.c ****     hdma_usart6_tx.Init.PeriphDataAlignment = DMA_PDATAALIGN_BYTE;
 768              		.loc 1 289 5 is_stmt 1 view .LVU290
 289:control-base/typec-board-base/Core/Src/usart.c ****     hdma_usart6_tx.Init.PeriphDataAlignment = DMA_PDATAALIGN_BYTE;
 769              		.loc 1 289 32 is_stmt 0 view .LVU291
 770 0244 4FF48062 		mov	r2, #1024
 771 0248 0261     		str	r2, [r0, #16]
 290:control-base/typec-board-base/Core/Src/usart.c ****     hdma_usart6_tx.Init.MemDataAlignment = DMA_MDATAALIGN_BYTE;
 772              		.loc 1 290 5 is_stmt 1 view .LVU292
 290:control-base/typec-board-base/Core/Src/usart.c ****     hdma_usart6_tx.Init.MemDataAlignment = DMA_MDATAALIGN_BYTE;
 773              		.loc 1 290 45 is_stmt 0 view .LVU293
 774 024a 4361     		str	r3, [r0, #20]
 291:control-base/typec-board-base/Core/Src/usart.c ****     hdma_usart6_tx.Init.Mode = DMA_NORMAL;
 775              		.loc 1 291 5 is_stmt 1 view .LVU294
 291:control-base/typec-board-base/Core/Src/usart.c ****     hdma_usart6_tx.Init.Mode = DMA_NORMAL;
 776              		.loc 1 291 42 is_stmt 0 view .LVU295
 777 024c 8361     		str	r3, [r0, #24]
 292:control-base/typec-board-base/Core/Src/usart.c ****     hdma_usart6_tx.Init.Priority = DMA_PRIORITY_LOW;
 778              		.loc 1 292 5 is_stmt 1 view .LVU296
 292:control-base/typec-board-base/Core/Src/usart.c ****     hdma_usart6_tx.Init.Priority = DMA_PRIORITY_LOW;
 779              		.loc 1 292 30 is_stmt 0 view .LVU297
 780 024e C361     		str	r3, [r0, #28]
 293:control-base/typec-board-base/Core/Src/usart.c ****     hdma_usart6_tx.Init.FIFOMode = DMA_FIFOMODE_DISABLE;
 781              		.loc 1 293 5 is_stmt 1 view .LVU298
 293:control-base/typec-board-base/Core/Src/usart.c ****     hdma_usart6_tx.Init.FIFOMode = DMA_FIFOMODE_DISABLE;
 782              		.loc 1 293 34 is_stmt 0 view .LVU299
 783 0250 0362     		str	r3, [r0, #32]
 294:control-base/typec-board-base/Core/Src/usart.c ****     if (HAL_DMA_Init(&hdma_usart6_tx) != HAL_OK)
 784              		.loc 1 294 5 is_stmt 1 view .LVU300
 294:control-base/typec-board-base/Core/Src/usart.c ****     if (HAL_DMA_Init(&hdma_usart6_tx) != HAL_OK)
 785              		.loc 1 294 34 is_stmt 0 view .LVU301
ARM GAS  /var/folders/sg/pxk9dyzj7jz_x3889hx3b3dw0000gn/T//cc6LuLar.s 			page 24


 786 0252 4362     		str	r3, [r0, #36]
 295:control-base/typec-board-base/Core/Src/usart.c ****     {
 787              		.loc 1 295 5 is_stmt 1 view .LVU302
 295:control-base/typec-board-base/Core/Src/usart.c ****     {
 788              		.loc 1 295 9 is_stmt 0 view .LVU303
 789 0254 FFF7FEFF 		bl	HAL_DMA_Init
 790              	.LVL29:
 295:control-base/typec-board-base/Core/Src/usart.c ****     {
 791              		.loc 1 295 8 discriminator 1 view .LVU304
 792 0258 70B9     		cbnz	r0, .L36
 793              	.L27:
 300:control-base/typec-board-base/Core/Src/usart.c **** 
 794              		.loc 1 300 5 is_stmt 1 view .LVU305
 300:control-base/typec-board-base/Core/Src/usart.c **** 
 795              		.loc 1 300 5 view .LVU306
 796 025a 194B     		ldr	r3, .L37+64
 797 025c A363     		str	r3, [r4, #56]
 300:control-base/typec-board-base/Core/Src/usart.c **** 
 798              		.loc 1 300 5 view .LVU307
 799 025e 9C63     		str	r4, [r3, #56]
 300:control-base/typec-board-base/Core/Src/usart.c **** 
 800              		.loc 1 300 5 view .LVU308
 303:control-base/typec-board-base/Core/Src/usart.c ****     HAL_NVIC_EnableIRQ(USART6_IRQn);
 801              		.loc 1 303 5 view .LVU309
 802 0260 0022     		movs	r2, #0
 803 0262 0521     		movs	r1, #5
 804 0264 4720     		movs	r0, #71
 805 0266 FFF7FEFF 		bl	HAL_NVIC_SetPriority
 806              	.LVL30:
 304:control-base/typec-board-base/Core/Src/usart.c ****   /* USER CODE BEGIN USART6_MspInit 1 */
 807              		.loc 1 304 5 view .LVU310
 808 026a 4720     		movs	r0, #71
 809 026c FFF7FEFF 		bl	HAL_NVIC_EnableIRQ
 810              	.LVL31:
 811              		.loc 1 309 1 is_stmt 0 view .LVU311
 812 0270 DCE6     		b	.L19
 813              	.L35:
 279:control-base/typec-board-base/Core/Src/usart.c ****     }
 814              		.loc 1 279 7 is_stmt 1 view .LVU312
 815 0272 FFF7FEFF 		bl	Error_Handler
 816              	.LVL32:
 817 0276 D8E7     		b	.L26
 818              	.L36:
 297:control-base/typec-board-base/Core/Src/usart.c ****     }
 819              		.loc 1 297 7 view .LVU313
 820 0278 FFF7FEFF 		bl	Error_Handler
 821              	.LVL33:
 822 027c EDE7     		b	.L27
 823              	.L38:
 824 027e 00BF     		.align	2
 825              	.L37:
 826 0280 00100140 		.word	1073811456
 827 0284 00480040 		.word	1073760256
 828 0288 00140140 		.word	1073812480
 829 028c 00380240 		.word	1073887232
 830 0290 00040240 		.word	1073873920
 831 0294 00000240 		.word	1073872896
ARM GAS  /var/folders/sg/pxk9dyzj7jz_x3889hx3b3dw0000gn/T//cc6LuLar.s 			page 25


 832 0298 00000000 		.word	hdma_usart1_rx
 833 029c 88640240 		.word	1073898632
 834 02a0 00000000 		.word	hdma_usart1_tx
 835 02a4 B8640240 		.word	1073898680
 836 02a8 00080240 		.word	1073874944
 837 02ac 00000000 		.word	hdma_usart3_rx
 838 02b0 28600240 		.word	1073897512
 839 02b4 00180240 		.word	1073879040
 840 02b8 00000000 		.word	hdma_usart6_rx
 841 02bc 28640240 		.word	1073898536
 842 02c0 00000000 		.word	hdma_usart6_tx
 843 02c4 A0640240 		.word	1073898656
 844              		.cfi_endproc
 845              	.LFE137:
 847              		.section	.text.HAL_UART_MspDeInit,"ax",%progbits
 848              		.align	1
 849              		.global	HAL_UART_MspDeInit
 850              		.syntax unified
 851              		.thumb
 852              		.thumb_func
 854              	HAL_UART_MspDeInit:
 855              	.LVL34:
 856              	.LFB138:
 310:control-base/typec-board-base/Core/Src/usart.c **** 
 311:control-base/typec-board-base/Core/Src/usart.c **** void HAL_UART_MspDeInit(UART_HandleTypeDef* uartHandle)
 312:control-base/typec-board-base/Core/Src/usart.c **** {
 857              		.loc 1 312 1 view -0
 858              		.cfi_startproc
 859              		@ args = 0, pretend = 0, frame = 0
 860              		@ frame_needed = 0, uses_anonymous_args = 0
 861              		.loc 1 312 1 is_stmt 0 view .LVU315
 862 0000 10B5     		push	{r4, lr}
 863              	.LCFI7:
 864              		.cfi_def_cfa_offset 8
 865              		.cfi_offset 4, -8
 866              		.cfi_offset 14, -4
 867 0002 0446     		mov	r4, r0
 313:control-base/typec-board-base/Core/Src/usart.c **** 
 314:control-base/typec-board-base/Core/Src/usart.c ****   if(uartHandle->Instance==USART1)
 868              		.loc 1 314 3 is_stmt 1 view .LVU316
 869              		.loc 1 314 16 is_stmt 0 view .LVU317
 870 0004 0368     		ldr	r3, [r0]
 871              		.loc 1 314 5 view .LVU318
 872 0006 254A     		ldr	r2, .L47
 873 0008 9342     		cmp	r3, r2
 874 000a 06D0     		beq	.L44
 315:control-base/typec-board-base/Core/Src/usart.c ****   {
 316:control-base/typec-board-base/Core/Src/usart.c ****   /* USER CODE BEGIN USART1_MspDeInit 0 */
 317:control-base/typec-board-base/Core/Src/usart.c **** 
 318:control-base/typec-board-base/Core/Src/usart.c ****   /* USER CODE END USART1_MspDeInit 0 */
 319:control-base/typec-board-base/Core/Src/usart.c ****     /* Peripheral clock disable */
 320:control-base/typec-board-base/Core/Src/usart.c ****     __HAL_RCC_USART1_CLK_DISABLE();
 321:control-base/typec-board-base/Core/Src/usart.c **** 
 322:control-base/typec-board-base/Core/Src/usart.c ****     /**USART1 GPIO Configuration
 323:control-base/typec-board-base/Core/Src/usart.c ****     PB7     ------> USART1_RX
 324:control-base/typec-board-base/Core/Src/usart.c ****     PA9     ------> USART1_TX
 325:control-base/typec-board-base/Core/Src/usart.c ****     */
ARM GAS  /var/folders/sg/pxk9dyzj7jz_x3889hx3b3dw0000gn/T//cc6LuLar.s 			page 26


 326:control-base/typec-board-base/Core/Src/usart.c ****     HAL_GPIO_DeInit(GPIOB, GPIO_PIN_7);
 327:control-base/typec-board-base/Core/Src/usart.c **** 
 328:control-base/typec-board-base/Core/Src/usart.c ****     HAL_GPIO_DeInit(GPIOA, GPIO_PIN_9);
 329:control-base/typec-board-base/Core/Src/usart.c **** 
 330:control-base/typec-board-base/Core/Src/usart.c ****     /* USART1 DMA DeInit */
 331:control-base/typec-board-base/Core/Src/usart.c ****     HAL_DMA_DeInit(uartHandle->hdmarx);
 332:control-base/typec-board-base/Core/Src/usart.c ****     HAL_DMA_DeInit(uartHandle->hdmatx);
 333:control-base/typec-board-base/Core/Src/usart.c **** 
 334:control-base/typec-board-base/Core/Src/usart.c ****     /* USART1 interrupt Deinit */
 335:control-base/typec-board-base/Core/Src/usart.c ****     HAL_NVIC_DisableIRQ(USART1_IRQn);
 336:control-base/typec-board-base/Core/Src/usart.c ****   /* USER CODE BEGIN USART1_MspDeInit 1 */
 337:control-base/typec-board-base/Core/Src/usart.c **** 
 338:control-base/typec-board-base/Core/Src/usart.c ****   /* USER CODE END USART1_MspDeInit 1 */
 339:control-base/typec-board-base/Core/Src/usart.c ****   }
 340:control-base/typec-board-base/Core/Src/usart.c ****   else if(uartHandle->Instance==USART3)
 875              		.loc 1 340 8 is_stmt 1 view .LVU319
 876              		.loc 1 340 10 is_stmt 0 view .LVU320
 877 000c 244A     		ldr	r2, .L47+4
 878 000e 9342     		cmp	r3, r2
 879 0010 1CD0     		beq	.L45
 341:control-base/typec-board-base/Core/Src/usart.c ****   {
 342:control-base/typec-board-base/Core/Src/usart.c ****   /* USER CODE BEGIN USART3_MspDeInit 0 */
 343:control-base/typec-board-base/Core/Src/usart.c **** 
 344:control-base/typec-board-base/Core/Src/usart.c ****   /* USER CODE END USART3_MspDeInit 0 */
 345:control-base/typec-board-base/Core/Src/usart.c ****     /* Peripheral clock disable */
 346:control-base/typec-board-base/Core/Src/usart.c ****     __HAL_RCC_USART3_CLK_DISABLE();
 347:control-base/typec-board-base/Core/Src/usart.c **** 
 348:control-base/typec-board-base/Core/Src/usart.c ****     /**USART3 GPIO Configuration
 349:control-base/typec-board-base/Core/Src/usart.c ****     PC11     ------> USART3_RX
 350:control-base/typec-board-base/Core/Src/usart.c ****     PC10     ------> USART3_TX
 351:control-base/typec-board-base/Core/Src/usart.c ****     */
 352:control-base/typec-board-base/Core/Src/usart.c ****     HAL_GPIO_DeInit(GPIOC, GPIO_PIN_11|GPIO_PIN_10);
 353:control-base/typec-board-base/Core/Src/usart.c **** 
 354:control-base/typec-board-base/Core/Src/usart.c ****     /* USART3 DMA DeInit */
 355:control-base/typec-board-base/Core/Src/usart.c ****     HAL_DMA_DeInit(uartHandle->hdmarx);
 356:control-base/typec-board-base/Core/Src/usart.c **** 
 357:control-base/typec-board-base/Core/Src/usart.c ****     /* USART3 interrupt Deinit */
 358:control-base/typec-board-base/Core/Src/usart.c ****     HAL_NVIC_DisableIRQ(USART3_IRQn);
 359:control-base/typec-board-base/Core/Src/usart.c ****   /* USER CODE BEGIN USART3_MspDeInit 1 */
 360:control-base/typec-board-base/Core/Src/usart.c **** 
 361:control-base/typec-board-base/Core/Src/usart.c ****   /* USER CODE END USART3_MspDeInit 1 */
 362:control-base/typec-board-base/Core/Src/usart.c ****   }
 363:control-base/typec-board-base/Core/Src/usart.c ****   else if(uartHandle->Instance==USART6)
 880              		.loc 1 363 8 is_stmt 1 view .LVU321
 881              		.loc 1 363 10 is_stmt 0 view .LVU322
 882 0012 244A     		ldr	r2, .L47+8
 883 0014 9342     		cmp	r3, r2
 884 0016 2BD0     		beq	.L46
 885              	.LVL35:
 886              	.L39:
 364:control-base/typec-board-base/Core/Src/usart.c ****   {
 365:control-base/typec-board-base/Core/Src/usart.c ****   /* USER CODE BEGIN USART6_MspDeInit 0 */
 366:control-base/typec-board-base/Core/Src/usart.c **** 
 367:control-base/typec-board-base/Core/Src/usart.c ****   /* USER CODE END USART6_MspDeInit 0 */
 368:control-base/typec-board-base/Core/Src/usart.c ****     /* Peripheral clock disable */
 369:control-base/typec-board-base/Core/Src/usart.c ****     __HAL_RCC_USART6_CLK_DISABLE();
 370:control-base/typec-board-base/Core/Src/usart.c **** 
ARM GAS  /var/folders/sg/pxk9dyzj7jz_x3889hx3b3dw0000gn/T//cc6LuLar.s 			page 27


 371:control-base/typec-board-base/Core/Src/usart.c ****     /**USART6 GPIO Configuration
 372:control-base/typec-board-base/Core/Src/usart.c ****     PG14     ------> USART6_TX
 373:control-base/typec-board-base/Core/Src/usart.c ****     PG9     ------> USART6_RX
 374:control-base/typec-board-base/Core/Src/usart.c ****     */
 375:control-base/typec-board-base/Core/Src/usart.c ****     HAL_GPIO_DeInit(GPIOG, GPIO_PIN_14|GPIO_PIN_9);
 376:control-base/typec-board-base/Core/Src/usart.c **** 
 377:control-base/typec-board-base/Core/Src/usart.c ****     /* USART6 DMA DeInit */
 378:control-base/typec-board-base/Core/Src/usart.c ****     HAL_DMA_DeInit(uartHandle->hdmarx);
 379:control-base/typec-board-base/Core/Src/usart.c ****     HAL_DMA_DeInit(uartHandle->hdmatx);
 380:control-base/typec-board-base/Core/Src/usart.c **** 
 381:control-base/typec-board-base/Core/Src/usart.c ****     /* USART6 interrupt Deinit */
 382:control-base/typec-board-base/Core/Src/usart.c ****     HAL_NVIC_DisableIRQ(USART6_IRQn);
 383:control-base/typec-board-base/Core/Src/usart.c ****   /* USER CODE BEGIN USART6_MspDeInit 1 */
 384:control-base/typec-board-base/Core/Src/usart.c **** 
 385:control-base/typec-board-base/Core/Src/usart.c ****   /* USER CODE END USART6_MspDeInit 1 */
 386:control-base/typec-board-base/Core/Src/usart.c ****   }
 387:control-base/typec-board-base/Core/Src/usart.c **** }
 887              		.loc 1 387 1 view .LVU323
 888 0018 10BD     		pop	{r4, pc}
 889              	.LVL36:
 890              	.L44:
 320:control-base/typec-board-base/Core/Src/usart.c **** 
 891              		.loc 1 320 5 is_stmt 1 view .LVU324
 892 001a 02F59432 		add	r2, r2, #75776
 893 001e 536C     		ldr	r3, [r2, #68]
 894 0020 23F01003 		bic	r3, r3, #16
 895 0024 5364     		str	r3, [r2, #68]
 326:control-base/typec-board-base/Core/Src/usart.c **** 
 896              		.loc 1 326 5 view .LVU325
 897 0026 8021     		movs	r1, #128
 898 0028 1F48     		ldr	r0, .L47+12
 899              	.LVL37:
 326:control-base/typec-board-base/Core/Src/usart.c **** 
 900              		.loc 1 326 5 is_stmt 0 view .LVU326
 901 002a FFF7FEFF 		bl	HAL_GPIO_DeInit
 902              	.LVL38:
 328:control-base/typec-board-base/Core/Src/usart.c **** 
 903              		.loc 1 328 5 is_stmt 1 view .LVU327
 904 002e 4FF40071 		mov	r1, #512
 905 0032 1E48     		ldr	r0, .L47+16
 906 0034 FFF7FEFF 		bl	HAL_GPIO_DeInit
 907              	.LVL39:
 331:control-base/typec-board-base/Core/Src/usart.c ****     HAL_DMA_DeInit(uartHandle->hdmatx);
 908              		.loc 1 331 5 view .LVU328
 909 0038 E06B     		ldr	r0, [r4, #60]
 910 003a FFF7FEFF 		bl	HAL_DMA_DeInit
 911              	.LVL40:
 332:control-base/typec-board-base/Core/Src/usart.c **** 
 912              		.loc 1 332 5 view .LVU329
 913 003e A06B     		ldr	r0, [r4, #56]
 914 0040 FFF7FEFF 		bl	HAL_DMA_DeInit
 915              	.LVL41:
 335:control-base/typec-board-base/Core/Src/usart.c ****   /* USER CODE BEGIN USART1_MspDeInit 1 */
 916              		.loc 1 335 5 view .LVU330
 917 0044 2520     		movs	r0, #37
 918 0046 FFF7FEFF 		bl	HAL_NVIC_DisableIRQ
 919              	.LVL42:
ARM GAS  /var/folders/sg/pxk9dyzj7jz_x3889hx3b3dw0000gn/T//cc6LuLar.s 			page 28


 920 004a E5E7     		b	.L39
 921              	.LVL43:
 922              	.L45:
 346:control-base/typec-board-base/Core/Src/usart.c **** 
 923              		.loc 1 346 5 view .LVU331
 924 004c 02F5F832 		add	r2, r2, #126976
 925 0050 136C     		ldr	r3, [r2, #64]
 926 0052 23F48023 		bic	r3, r3, #262144
 927 0056 1364     		str	r3, [r2, #64]
 352:control-base/typec-board-base/Core/Src/usart.c **** 
 928              		.loc 1 352 5 view .LVU332
 929 0058 4FF44061 		mov	r1, #3072
 930 005c 1448     		ldr	r0, .L47+20
 931              	.LVL44:
 352:control-base/typec-board-base/Core/Src/usart.c **** 
 932              		.loc 1 352 5 is_stmt 0 view .LVU333
 933 005e FFF7FEFF 		bl	HAL_GPIO_DeInit
 934              	.LVL45:
 355:control-base/typec-board-base/Core/Src/usart.c **** 
 935              		.loc 1 355 5 is_stmt 1 view .LVU334
 936 0062 E06B     		ldr	r0, [r4, #60]
 937 0064 FFF7FEFF 		bl	HAL_DMA_DeInit
 938              	.LVL46:
 358:control-base/typec-board-base/Core/Src/usart.c ****   /* USER CODE BEGIN USART3_MspDeInit 1 */
 939              		.loc 1 358 5 view .LVU335
 940 0068 2720     		movs	r0, #39
 941 006a FFF7FEFF 		bl	HAL_NVIC_DisableIRQ
 942              	.LVL47:
 943 006e D3E7     		b	.L39
 944              	.LVL48:
 945              	.L46:
 369:control-base/typec-board-base/Core/Src/usart.c **** 
 946              		.loc 1 369 5 view .LVU336
 947 0070 02F59232 		add	r2, r2, #74752
 948 0074 536C     		ldr	r3, [r2, #68]
 949 0076 23F02003 		bic	r3, r3, #32
 950 007a 5364     		str	r3, [r2, #68]
 375:control-base/typec-board-base/Core/Src/usart.c **** 
 951              		.loc 1 375 5 view .LVU337
 952 007c 4FF48441 		mov	r1, #16896
 953 0080 0C48     		ldr	r0, .L47+24
 954              	.LVL49:
 375:control-base/typec-board-base/Core/Src/usart.c **** 
 955              		.loc 1 375 5 is_stmt 0 view .LVU338
 956 0082 FFF7FEFF 		bl	HAL_GPIO_DeInit
 957              	.LVL50:
 378:control-base/typec-board-base/Core/Src/usart.c ****     HAL_DMA_DeInit(uartHandle->hdmatx);
 958              		.loc 1 378 5 is_stmt 1 view .LVU339
 959 0086 E06B     		ldr	r0, [r4, #60]
 960 0088 FFF7FEFF 		bl	HAL_DMA_DeInit
 961              	.LVL51:
 379:control-base/typec-board-base/Core/Src/usart.c **** 
 962              		.loc 1 379 5 view .LVU340
 963 008c A06B     		ldr	r0, [r4, #56]
 964 008e FFF7FEFF 		bl	HAL_DMA_DeInit
 965              	.LVL52:
 382:control-base/typec-board-base/Core/Src/usart.c ****   /* USER CODE BEGIN USART6_MspDeInit 1 */
ARM GAS  /var/folders/sg/pxk9dyzj7jz_x3889hx3b3dw0000gn/T//cc6LuLar.s 			page 29


 966              		.loc 1 382 5 view .LVU341
 967 0092 4720     		movs	r0, #71
 968 0094 FFF7FEFF 		bl	HAL_NVIC_DisableIRQ
 969              	.LVL53:
 970              		.loc 1 387 1 is_stmt 0 view .LVU342
 971 0098 BEE7     		b	.L39
 972              	.L48:
 973 009a 00BF     		.align	2
 974              	.L47:
 975 009c 00100140 		.word	1073811456
 976 00a0 00480040 		.word	1073760256
 977 00a4 00140140 		.word	1073812480
 978 00a8 00040240 		.word	1073873920
 979 00ac 00000240 		.word	1073872896
 980 00b0 00080240 		.word	1073874944
 981 00b4 00180240 		.word	1073879040
 982              		.cfi_endproc
 983              	.LFE138:
 985              		.global	hdma_usart6_tx
 986              		.section	.bss.hdma_usart6_tx,"aw",%nobits
 987              		.align	2
 990              	hdma_usart6_tx:
 991 0000 00000000 		.space	96
 991      00000000 
 991      00000000 
 991      00000000 
 991      00000000 
 992              		.global	hdma_usart6_rx
 993              		.section	.bss.hdma_usart6_rx,"aw",%nobits
 994              		.align	2
 997              	hdma_usart6_rx:
 998 0000 00000000 		.space	96
 998      00000000 
 998      00000000 
 998      00000000 
 998      00000000 
 999              		.global	hdma_usart3_rx
 1000              		.section	.bss.hdma_usart3_rx,"aw",%nobits
 1001              		.align	2
 1004              	hdma_usart3_rx:
 1005 0000 00000000 		.space	96
 1005      00000000 
 1005      00000000 
 1005      00000000 
 1005      00000000 
 1006              		.global	hdma_usart1_tx
 1007              		.section	.bss.hdma_usart1_tx,"aw",%nobits
 1008              		.align	2
 1011              	hdma_usart1_tx:
 1012 0000 00000000 		.space	96
 1012      00000000 
 1012      00000000 
 1012      00000000 
 1012      00000000 
 1013              		.global	hdma_usart1_rx
 1014              		.section	.bss.hdma_usart1_rx,"aw",%nobits
 1015              		.align	2
ARM GAS  /var/folders/sg/pxk9dyzj7jz_x3889hx3b3dw0000gn/T//cc6LuLar.s 			page 30


 1018              	hdma_usart1_rx:
 1019 0000 00000000 		.space	96
 1019      00000000 
 1019      00000000 
 1019      00000000 
 1019      00000000 
 1020              		.global	huart6
 1021              		.section	.bss.huart6,"aw",%nobits
 1022              		.align	2
 1025              	huart6:
 1026 0000 00000000 		.space	72
 1026      00000000 
 1026      00000000 
 1026      00000000 
 1026      00000000 
 1027              		.global	huart3
 1028              		.section	.bss.huart3,"aw",%nobits
 1029              		.align	2
 1032              	huart3:
 1033 0000 00000000 		.space	72
 1033      00000000 
 1033      00000000 
 1033      00000000 
 1033      00000000 
 1034              		.global	huart1
 1035              		.section	.bss.huart1,"aw",%nobits
 1036              		.align	2
 1039              	huart1:
 1040 0000 00000000 		.space	72
 1040      00000000 
 1040      00000000 
 1040      00000000 
 1040      00000000 
 1041              		.text
 1042              	.Letext0:
 1043              		.file 2 "control-base/typec-board-base/Drivers/CMSIS/Device/ST/STM32F4xx/Include/stm32f407xx.h"
 1044              		.file 3 "/Applications/ArmGNUToolchain/14.3.rel1/arm-none-eabi/arm-none-eabi/include/machine/_defa
 1045              		.file 4 "/Applications/ArmGNUToolchain/14.3.rel1/arm-none-eabi/arm-none-eabi/include/sys/_stdint.h
 1046              		.file 5 "control-base/typec-board-base/Drivers/STM32F4xx_HAL_Driver/Inc/stm32f4xx_hal_def.h"
 1047              		.file 6 "control-base/typec-board-base/Drivers/STM32F4xx_HAL_Driver/Inc/stm32f4xx_hal_gpio.h"
 1048              		.file 7 "control-base/typec-board-base/Drivers/STM32F4xx_HAL_Driver/Inc/stm32f4xx_hal_dma.h"
 1049              		.file 8 "control-base/typec-board-base/Drivers/STM32F4xx_HAL_Driver/Inc/stm32f4xx_hal_uart.h"
 1050              		.file 9 "control-base/typec-board-base/Core/Inc/usart.h"
 1051              		.file 10 "control-base/typec-board-base/Drivers/STM32F4xx_HAL_Driver/Inc/stm32f4xx_hal_cortex.h"
 1052              		.file 11 "control-base/typec-board-base/Core/Inc/main.h"
ARM GAS  /var/folders/sg/pxk9dyzj7jz_x3889hx3b3dw0000gn/T//cc6LuLar.s 			page 31

